SF:/home/nenad/repos/rust-contracts-stylus/contracts-proc/src/interface_id.rs
FN:15,_RNvNtCsjwrVuUmux1g_24openzeppelin_stylus_proc12interface_id12interface_id
FN:91,_RNvXNtCsjwrVuUmux1g_24openzeppelin_stylus_proc12interface_idNtB2_12SelectorArgsNtNtCscH9YhXxxY5R_3syn5parse5Parse5parse
FN:44,_RNCNvNtCsjwrVuUmux1g_24openzeppelin_stylus_proc12interface_id12interface_id0B5_
FN:49,_RNCNvNtCsjwrVuUmux1g_24openzeppelin_stylus_proc12interface_id12interface_ids_0B5_
FN:15,_RNvNtCs3dOmUgSCK0x_24openzeppelin_stylus_proc12interface_id12interface_id
FN:44,_RNCNvNtCs3dOmUgSCK0x_24openzeppelin_stylus_proc12interface_id12interface_id0B5_
FN:49,_RNCNvNtCs3dOmUgSCK0x_24openzeppelin_stylus_proc12interface_id12interface_ids_0B5_
FN:91,_RNvXNtCs3dOmUgSCK0x_24openzeppelin_stylus_proc12interface_idNtB2_12SelectorArgsNtNtCscH9YhXxxY5R_3syn5parse5Parse5parse
FNDA:18,_RNvNtCsjwrVuUmux1g_24openzeppelin_stylus_proc12interface_id12interface_id
FNDA:18,_RNvXNtCsjwrVuUmux1g_24openzeppelin_stylus_proc12interface_idNtB2_12SelectorArgsNtNtCscH9YhXxxY5R_3syn5parse5Parse5parse
FNDA:78,_RNCNvNtCsjwrVuUmux1g_24openzeppelin_stylus_proc12interface_id12interface_id0B5_
FNDA:212,_RNCNvNtCsjwrVuUmux1g_24openzeppelin_stylus_proc12interface_id12interface_ids_0B5_
FNDA:0,_RNvNtCs3dOmUgSCK0x_24openzeppelin_stylus_proc12interface_id12interface_id
FNDA:0,_RNCNvNtCs3dOmUgSCK0x_24openzeppelin_stylus_proc12interface_id12interface_id0B5_
FNDA:0,_RNCNvNtCs3dOmUgSCK0x_24openzeppelin_stylus_proc12interface_id12interface_ids_0B5_
FNDA:0,_RNvXNtCs3dOmUgSCK0x_24openzeppelin_stylus_proc12interface_idNtB2_12SelectorArgsNtNtCscH9YhXxxY5R_3syn5parse5Parse5parse
FNF:4
FNH:4
DA:15,18
DA:16,18
DA:17,18
DA:18,18
DA:19,18
DA:21,18
DA:22,126
DA:23,108
DA:24,12
DA:27,96
DA:28,1566
DA:29,1566
DA:30,18
DA:31,0
DA:32,18
DA:33,18
DA:34,18
DA:35,0
DA:37,18
DA:38,1548
DA:39,1548
DA:40,1548
DA:41,1548
DA:44,96
DA:45,78
DA:46,78
DA:47,96
DA:48,96
DA:49,212
DA:50,118
DA:52,94
DA:53,212
DA:54,96
DA:55,96
DA:56,96
DA:57,96
DA:61,18
DA:62,18
DA:63,18
DA:64,18
DA:65,18
DA:66,18
DA:67,18
DA:68,18
DA:69,18
DA:70,18
DA:71,18
DA:72,18
DA:73,18
DA:74,18
DA:75,18
DA:76,18
DA:77,18
DA:78,18
DA:79,18
DA:80,18
DA:81,18
DA:82,18
DA:83,18
DA:91,18
DA:92,18
DA:94,18
DA:95,18
DA:96,18
DA:97,18
DA:99,0
DA:101,18
BRF:0
BRH:0
LF:71
LH:68
end_of_record
SF:/home/nenad/repos/rust-contracts-stylus/contracts-proc/src/lib.rs
FN:62,_RNvCsjwrVuUmux1g_24openzeppelin_stylus_proc12interface_id
FN:62,_RNvCs3dOmUgSCK0x_24openzeppelin_stylus_proc12interface_id
FNDA:18,_RNvCsjwrVuUmux1g_24openzeppelin_stylus_proc12interface_id
FNDA:0,_RNvCs3dOmUgSCK0x_24openzeppelin_stylus_proc12interface_id
FNF:1
FNH:1
DA:62,18
DA:63,18
DA:64,18
BRF:0
BRH:0
LF:3
LH:3
end_of_record
SF:/home/nenad/repos/rust-contracts-stylus/contracts/src/access/control.rs
FN:117,_RNvXsf_NtNtCsa86sUp9HUqm_19openzeppelin_stylus6access7controlNtB5_13AccessControlINtNtCs8c3p7fi1c1U_10stylus_sdk3abi6RouterNtCs3Wda7GwUxlw_22access_control_example20AccessControlExampleE5routeB1Z_
FN:284,_RNvMNtNtCsa86sUp9HUqm_19openzeppelin_stylus6access7controlNtB2_13AccessControl15__set_role_admin
FN:306,_RNvMNtNtCsa86sUp9HUqm_19openzeppelin_stylus6access7controlNtB2_13AccessControl11__check_role
FN:334,_RNvMNtNtCsa86sUp9HUqm_19openzeppelin_stylus6access7controlNtB2_13AccessControl11__grant_role
FN:358,_RNvMNtNtCsa86sUp9HUqm_19openzeppelin_stylus6access7controlNtB2_13AccessControl12__revoke_role
FN:93,_RNvXs6_NtNtCsa86sUp9HUqm_19openzeppelin_stylus6access7controlNtB5_5ErrorINtNtCshuVUGNokh5j_4core7convert4FromNtB5_32AccessControlUnauthorizedAccountE4from
FN:93,_RNvXs7_NtNtCsa86sUp9HUqm_19openzeppelin_stylus6access7controlNtB5_5ErrorINtNtCshuVUGNokh5j_4core7convert4FromNtB5_28AccessControlBadConfirmationE4from
FN:115,_RNvMsa_NtNtCsa86sUp9HUqm_19openzeppelin_stylus6access7controlNtB5_8RoleData14required_slots
FN:115,_RNvXsb_NtNtCsa86sUp9HUqm_19openzeppelin_stylus6access7controlNtB5_8RoleDataNtNtNtCs8c3p7fi1c1U_10stylus_sdk7storage6traits11StorageType3new
FN:101,_RNvXsb_NtNtCsa86sUp9HUqm_19openzeppelin_stylus6access7controlNtB5_8RoleDataNtNtNtCs8c3p7fi1c1U_10stylus_sdk7storage6traits11StorageType4load
FN:101,_RNvXsb_NtNtCsa86sUp9HUqm_19openzeppelin_stylus6access7controlNtB5_8RoleDataNtNtNtCs8c3p7fi1c1U_10stylus_sdk7storage6traits11StorageType8load_mut
FN:115,_RNvMsc_NtNtCsa86sUp9HUqm_19openzeppelin_stylus6access7controlNtB5_13AccessControl14required_slots
FN:115,_RNvXsd_NtNtCsa86sUp9HUqm_19openzeppelin_stylus6access7controlNtB5_13AccessControlNtNtNtCs8c3p7fi1c1U_10stylus_sdk7storage6traits11StorageType3new
FN:101,_RNvXsd_NtNtCsa86sUp9HUqm_19openzeppelin_stylus6access7controlNtB5_13AccessControlNtNtNtCs8c3p7fi1c1U_10stylus_sdk7storage6traits11StorageType4load
FN:101,_RNvXsd_NtNtCsa86sUp9HUqm_19openzeppelin_stylus6access7controlNtB5_13AccessControlNtNtNtCs8c3p7fi1c1U_10stylus_sdk7storage6traits11StorageType8load_mut
FN:130,_RNvMse_NtNtCsa86sUp9HUqm_19openzeppelin_stylus6access7controlNtB5_13AccessControl8has_role
FN:145,_RNvMse_NtNtCsa86sUp9HUqm_19openzeppelin_stylus6access7controlNtB5_13AccessControl9only_role
FN:159,_RNvMse_NtNtCsa86sUp9HUqm_19openzeppelin_stylus6access7controlNtB5_13AccessControl14get_role_admin
FN:186,_RNvMse_NtNtCsa86sUp9HUqm_19openzeppelin_stylus6access7controlNtB5_13AccessControl10grant_role
FN:219,_RNvMse_NtNtCsa86sUp9HUqm_19openzeppelin_stylus6access7controlNtB5_13AccessControl11revoke_role
FN:256,_RNvMse_NtNtCsa86sUp9HUqm_19openzeppelin_stylus6access7controlNtB5_13AccessControl13renounce_role
FN:117,_RNvMsg_NtNtCsa86sUp9HUqm_19openzeppelin_stylus6access7controlNtB5_13AccessControl23___stylus_allow_override
FN:117,_RNvMsg_NtNtCsa86sUp9HUqm_19openzeppelin_stylus6access7controlNtB5_13AccessControl25___stylus_assert_overrides
FN:93,_RNvXs8_NtNtCsa86sUp9HUqm_19openzeppelin_stylus6access7controlINtNtCsdDMkpvQxPWz_5alloc3vec3VechEINtNtCshuVUGNokh5j_4core7convert4FromNtB5_5ErrorE4from
FN:73,_RNvXs_NvNtNtCsa86sUp9HUqm_19openzeppelin_stylus6access7control1__NtNtCs9yoxqfta9I2_16alloy_primitives3log7LogDataINtNtCshuVUGNokh5j_4core7convert4FromRNtB6_16RoleAdminChangedE4fromBa_
FN:50,_RNCNvXs_NvNtNtCsa86sUp9HUqm_19openzeppelin_stylus6access7control1__NtNtCs9yoxqfta9I2_16alloy_primitives3log7LogDataINtNtCshuVUGNokh5j_4core7convert4FromRNtB8_16RoleAdminChangedE4from0Bc_
FN:73,_RNvXs_NvNtNtCsa86sUp9HUqm_19openzeppelin_stylus6access7controls_1__NtNtCs9yoxqfta9I2_16alloy_primitives3log7LogDataINtNtCshuVUGNokh5j_4core7convert4FromRNtB6_11RoleGrantedE4fromBa_
FN:50,_RNCNvXs_NvNtNtCsa86sUp9HUqm_19openzeppelin_stylus6access7controls_1__NtNtCs9yoxqfta9I2_16alloy_primitives3log7LogDataINtNtCshuVUGNokh5j_4core7convert4FromRNtB8_11RoleGrantedE4from0Bc_
FN:73,_RNvXs_NvNtNtCsa86sUp9HUqm_19openzeppelin_stylus6access7controls0_1__NtNtCs9yoxqfta9I2_16alloy_primitives3log7LogDataINtNtCshuVUGNokh5j_4core7convert4FromRNtB6_11RoleRevokedE4fromBa_
FN:50,_RNCNvXs_NvNtNtCsa86sUp9HUqm_19openzeppelin_stylus6access7controls0_1__NtNtCs9yoxqfta9I2_16alloy_primitives3log7LogDataINtNtCshuVUGNokh5j_4core7convert4FromRNtB8_11RoleRevokedE4from0Bc_
FN:117,_RNvXININtNtCsa86sUp9HUqm_19openzeppelin_stylus6access7controlsf_0pENtB5_13AccessControlINtNtCs8c3p7fi1c1U_10stylus_sdk3abi6RouterpE5routeB9_
FN:117,_RNvXsf_NtNtCsa86sUp9HUqm_19openzeppelin_stylus6access7controlNtB5_13AccessControlINtNtCs8c3p7fi1c1U_10stylus_sdk3abi6RouterNtCsbwD9Yma26L7_22access_control_example20AccessControlExampleE5routeB1Z_
FN:73,_RNvXs_NvNtNtCs6vaqcEMrLsG_19openzeppelin_stylus6access7control1__NtNtCs9yoxqfta9I2_16alloy_primitives3log7LogDataINtNtCshuVUGNokh5j_4core7convert4FromRNtB6_16RoleAdminChangedE4fromBa_
FN:50,_RNCNvXs_NvNtNtCs6vaqcEMrLsG_19openzeppelin_stylus6access7control1__NtNtCs9yoxqfta9I2_16alloy_primitives3log7LogDataINtNtCshuVUGNokh5j_4core7convert4FromRNtB8_16RoleAdminChangedE4from0Bc_
FN:73,_RNvXs_NvNtNtCs6vaqcEMrLsG_19openzeppelin_stylus6access7controls_1__NtNtCs9yoxqfta9I2_16alloy_primitives3log7LogDataINtNtCshuVUGNokh5j_4core7convert4FromRNtB6_11RoleGrantedE4fromBa_
FN:50,_RNCNvXs_NvNtNtCs6vaqcEMrLsG_19openzeppelin_stylus6access7controls_1__NtNtCs9yoxqfta9I2_16alloy_primitives3log7LogDataINtNtCshuVUGNokh5j_4core7convert4FromRNtB8_11RoleGrantedE4from0Bc_
FN:73,_RNvXs_NvNtNtCs6vaqcEMrLsG_19openzeppelin_stylus6access7controls0_1__NtNtCs9yoxqfta9I2_16alloy_primitives3log7LogDataINtNtCshuVUGNokh5j_4core7convert4FromRNtB6_11RoleRevokedE4fromBa_
FN:50,_RNCNvXs_NvNtNtCs6vaqcEMrLsG_19openzeppelin_stylus6access7controls0_1__NtNtCs9yoxqfta9I2_16alloy_primitives3log7LogDataINtNtCshuVUGNokh5j_4core7convert4FromRNtB8_11RoleRevokedE4from0Bc_
FN:75,_RNvNvNtNtCs6vaqcEMrLsG_19openzeppelin_stylus6access7controls1_1__15__type_assertion
FN:75,_RNvNvNtNtCs6vaqcEMrLsG_19openzeppelin_stylus6access7controls2_1__15__type_assertion
FN:93,_RNvXs6_NtNtCs6vaqcEMrLsG_19openzeppelin_stylus6access7controlNtB5_5ErrorINtNtCshuVUGNokh5j_4core7convert4FromNtB5_32AccessControlUnauthorizedAccountE4from
FN:93,_RNvXs7_NtNtCs6vaqcEMrLsG_19openzeppelin_stylus6access7controlNtB5_5ErrorINtNtCshuVUGNokh5j_4core7convert4FromNtB5_28AccessControlBadConfirmationE4from
FN:93,_RNvXs8_NtNtCs6vaqcEMrLsG_19openzeppelin_stylus6access7controlINtNtCsdDMkpvQxPWz_5alloc3vec3VechEINtNtCshuVUGNokh5j_4core7convert4FromNtB5_5ErrorE4from
FN:115,_RNvMsa_NtNtCs6vaqcEMrLsG_19openzeppelin_stylus6access7controlNtB5_8RoleData14required_slots
FN:101,_RNvXsb_NtNtCs6vaqcEMrLsG_19openzeppelin_stylus6access7controlNtB5_8RoleDataNtNtNtCs8c3p7fi1c1U_10stylus_sdk7storage6traits11StorageType4load
FN:101,_RNvXsb_NtNtCs6vaqcEMrLsG_19openzeppelin_stylus6access7controlNtB5_8RoleDataNtNtNtCs8c3p7fi1c1U_10stylus_sdk7storage6traits11StorageType8load_mut
FN:115,_RNvMsc_NtNtCs6vaqcEMrLsG_19openzeppelin_stylus6access7controlNtB5_13AccessControl14required_slots
FN:101,_RNvXsd_NtNtCs6vaqcEMrLsG_19openzeppelin_stylus6access7controlNtB5_13AccessControlNtNtNtCs8c3p7fi1c1U_10stylus_sdk7storage6traits11StorageType4load
FN:101,_RNvXsd_NtNtCs6vaqcEMrLsG_19openzeppelin_stylus6access7controlNtB5_13AccessControlNtNtNtCs8c3p7fi1c1U_10stylus_sdk7storage6traits11StorageType8load_mut
FN:117,_RNvXININtNtCs6vaqcEMrLsG_19openzeppelin_stylus6access7controlsf_0pENtB5_13AccessControlINtNtCs8c3p7fi1c1U_10stylus_sdk3abi6RouterpE5routeB9_
FN:117,_RNvMsg_NtNtCs6vaqcEMrLsG_19openzeppelin_stylus6access7controlNtB5_13AccessControl23___stylus_allow_override
FN:117,_RNvMsg_NtNtCs6vaqcEMrLsG_19openzeppelin_stylus6access7controlNtB5_13AccessControl25___stylus_assert_overrides
FN:284,_RNvMNtNtCs6vaqcEMrLsG_19openzeppelin_stylus6access7controlNtB2_13AccessControl15__set_role_admin
FN:306,_RNvMNtNtCs6vaqcEMrLsG_19openzeppelin_stylus6access7controlNtB2_13AccessControl11__check_role
FN:334,_RNvMNtNtCs6vaqcEMrLsG_19openzeppelin_stylus6access7controlNtB2_13AccessControl11__grant_role
FN:358,_RNvMNtNtCs6vaqcEMrLsG_19openzeppelin_stylus6access7controlNtB2_13AccessControl12__revoke_role
FN:115,_RNvXsb_NtNtCs6vaqcEMrLsG_19openzeppelin_stylus6access7controlNtB5_8RoleDataNtNtNtCs8c3p7fi1c1U_10stylus_sdk7storage6traits11StorageType3new
FN:115,_RNvXsd_NtNtCs6vaqcEMrLsG_19openzeppelin_stylus6access7controlNtB5_13AccessControlNtNtNtCs8c3p7fi1c1U_10stylus_sdk7storage6traits11StorageType3new
FN:130,_RNvMse_NtNtCs6vaqcEMrLsG_19openzeppelin_stylus6access7controlNtB5_13AccessControl8has_role
FN:145,_RNvMse_NtNtCs6vaqcEMrLsG_19openzeppelin_stylus6access7controlNtB5_13AccessControl9only_role
FN:159,_RNvMse_NtNtCs6vaqcEMrLsG_19openzeppelin_stylus6access7controlNtB5_13AccessControl14get_role_admin
FN:186,_RNvMse_NtNtCs6vaqcEMrLsG_19openzeppelin_stylus6access7controlNtB5_13AccessControl10grant_role
FN:219,_RNvMse_NtNtCs6vaqcEMrLsG_19openzeppelin_stylus6access7controlNtB5_13AccessControl11revoke_role
FN:256,_RNvMse_NtNtCs6vaqcEMrLsG_19openzeppelin_stylus6access7controlNtB5_13AccessControl13renounce_role
FN:398,_RNvNtNtNtCs6vaqcEMrLsG_19openzeppelin_stylus6access7control5tests25__grant_role_to_msg_sender
FN:406,_RNvNtNtNtCs6vaqcEMrLsG_19openzeppelin_stylus6access7control5testss_29default_role_is_default_admin
FN:412,_RNvNtNtNtCs6vaqcEMrLsG_19openzeppelin_stylus6access7control5testss_35default_admin_roles_admin_is_itself
FN:419,_RNvNtNtNtCs6vaqcEMrLsG_19openzeppelin_stylus6access7control5testss_37non_admin_cannot_grant_role_to_others
FN:425,_RNvNtNtNtCs6vaqcEMrLsG_19openzeppelin_stylus6access7control5testss_44accounts_can_be_granted_roles_multiple_times
FN:435,_RNvNtNtNtCs6vaqcEMrLsG_19openzeppelin_stylus6access7control5testss_32not_granted_roles_can_be_revoked
FN:446,_RNvNtNtNtCs6vaqcEMrLsG_19openzeppelin_stylus6access7control5testss_21admin_can_revoke_role
FN:458,_RNvNtNtNtCs6vaqcEMrLsG_19openzeppelin_stylus6access7control5testss_28non_admin_cannot_revoke_role
FN:468,_RNvNtNtNtCs6vaqcEMrLsG_19openzeppelin_stylus6access7control5testss_35roles_can_be_revoked_multiple_times
FN:478,_RNvNtNtNtCs6vaqcEMrLsG_19openzeppelin_stylus6access7control5testss_24bearer_can_renounce_role
FN:489,_RNvNtNtNtCs6vaqcEMrLsG_19openzeppelin_stylus6access7control5testss_24only_sender_can_renounce
FN:496,_RNvNtNtNtCs6vaqcEMrLsG_19openzeppelin_stylus6access7control5testss_37roles_can_be_renounced_multiple_times
FN:507,_RNvNtNtNtCs6vaqcEMrLsG_19openzeppelin_stylus6access7control5testss_29a_roles_admin_role_can_change
FN:516,_RNvNtNtNtCs6vaqcEMrLsG_19openzeppelin_stylus6access7control5testss_29the_new_admin_can_grant_roles
FN:526,_RNvNtNtNtCs6vaqcEMrLsG_19openzeppelin_stylus6access7control5testss_30the_new_admin_can_revoke_roles
FN:537,_RNvNtNtNtCs6vaqcEMrLsG_19openzeppelin_stylus6access7control5testss_37previous_admins_no_longer_grant_roles
FN:546,_RNvNtNtNtCs6vaqcEMrLsG_19openzeppelin_stylus6access7control5testss_38previous_admins_no_longer_revoke_roles
FN:555,_RNvNtNtNtCs6vaqcEMrLsG_19openzeppelin_stylus6access7control5testss_34does_not_revert_if_sender_has_role
FN:561,_RNvNtNtNtCs6vaqcEMrLsG_19openzeppelin_stylus6access7control5testss_34reverts_if_sender_doesnt_have_role
FN:570,_RNvNtNtNtCs6vaqcEMrLsG_19openzeppelin_stylus6access7control5testss_35internal_grant_role_true_if_no_role
FN:576,_RNvNtNtNtCs6vaqcEMrLsG_19openzeppelin_stylus6access7control5testss_33internal_grant_role_false_if_role
FN:583,_RNvNtNtNtCs6vaqcEMrLsG_19openzeppelin_stylus6access7control5testss_33internal_revoke_role_true_if_role
FN:590,_RNvNtNtNtCs6vaqcEMrLsG_19openzeppelin_stylus6access7control5testss_37internal_revoke_role_false_if_no_role
FNDA:0,_RNvXsf_NtNtCsa86sUp9HUqm_19openzeppelin_stylus6access7controlNtB5_13AccessControlINtNtCs8c3p7fi1c1U_10stylus_sdk3abi6RouterNtCs3Wda7GwUxlw_22access_control_example20AccessControlExampleE5routeB1Z_
FNDA:0,_RNvMNtNtCsa86sUp9HUqm_19openzeppelin_stylus6access7controlNtB2_13AccessControl15__set_role_admin
FNDA:0,_RNvMNtNtCsa86sUp9HUqm_19openzeppelin_stylus6access7controlNtB2_13AccessControl11__check_role
FNDA:0,_RNvMNtNtCsa86sUp9HUqm_19openzeppelin_stylus6access7controlNtB2_13AccessControl11__grant_role
FNDA:0,_RNvMNtNtCsa86sUp9HUqm_19openzeppelin_stylus6access7controlNtB2_13AccessControl12__revoke_role
FNDA:0,_RNvXs6_NtNtCsa86sUp9HUqm_19openzeppelin_stylus6access7controlNtB5_5ErrorINtNtCshuVUGNokh5j_4core7convert4FromNtB5_32AccessControlUnauthorizedAccountE4from
FNDA:0,_RNvXs7_NtNtCsa86sUp9HUqm_19openzeppelin_stylus6access7controlNtB5_5ErrorINtNtCshuVUGNokh5j_4core7convert4FromNtB5_28AccessControlBadConfirmationE4from
FNDA:0,_RNvMsa_NtNtCsa86sUp9HUqm_19openzeppelin_stylus6access7controlNtB5_8RoleData14required_slots
FNDA:0,_RNvXsb_NtNtCsa86sUp9HUqm_19openzeppelin_stylus6access7controlNtB5_8RoleDataNtNtNtCs8c3p7fi1c1U_10stylus_sdk7storage6traits11StorageType3new
FNDA:0,_RNvXsb_NtNtCsa86sUp9HUqm_19openzeppelin_stylus6access7controlNtB5_8RoleDataNtNtNtCs8c3p7fi1c1U_10stylus_sdk7storage6traits11StorageType4load
FNDA:0,_RNvXsb_NtNtCsa86sUp9HUqm_19openzeppelin_stylus6access7controlNtB5_8RoleDataNtNtNtCs8c3p7fi1c1U_10stylus_sdk7storage6traits11StorageType8load_mut
FNDA:0,_RNvMsc_NtNtCsa86sUp9HUqm_19openzeppelin_stylus6access7controlNtB5_13AccessControl14required_slots
FNDA:0,_RNvXsd_NtNtCsa86sUp9HUqm_19openzeppelin_stylus6access7controlNtB5_13AccessControlNtNtNtCs8c3p7fi1c1U_10stylus_sdk7storage6traits11StorageType3new
FNDA:0,_RNvXsd_NtNtCsa86sUp9HUqm_19openzeppelin_stylus6access7controlNtB5_13AccessControlNtNtNtCs8c3p7fi1c1U_10stylus_sdk7storage6traits11StorageType4load
FNDA:0,_RNvXsd_NtNtCsa86sUp9HUqm_19openzeppelin_stylus6access7controlNtB5_13AccessControlNtNtNtCs8c3p7fi1c1U_10stylus_sdk7storage6traits11StorageType8load_mut
FNDA:0,_RNvMse_NtNtCsa86sUp9HUqm_19openzeppelin_stylus6access7controlNtB5_13AccessControl8has_role
FNDA:0,_RNvMse_NtNtCsa86sUp9HUqm_19openzeppelin_stylus6access7controlNtB5_13AccessControl9only_role
FNDA:0,_RNvMse_NtNtCsa86sUp9HUqm_19openzeppelin_stylus6access7controlNtB5_13AccessControl14get_role_admin
FNDA:0,_RNvMse_NtNtCsa86sUp9HUqm_19openzeppelin_stylus6access7controlNtB5_13AccessControl10grant_role
FNDA:0,_RNvMse_NtNtCsa86sUp9HUqm_19openzeppelin_stylus6access7controlNtB5_13AccessControl11revoke_role
FNDA:0,_RNvMse_NtNtCsa86sUp9HUqm_19openzeppelin_stylus6access7controlNtB5_13AccessControl13renounce_role
FNDA:0,_RNvMsg_NtNtCsa86sUp9HUqm_19openzeppelin_stylus6access7controlNtB5_13AccessControl23___stylus_allow_override
FNDA:0,_RNvMsg_NtNtCsa86sUp9HUqm_19openzeppelin_stylus6access7controlNtB5_13AccessControl25___stylus_assert_overrides
FNDA:0,_RNvXs8_NtNtCsa86sUp9HUqm_19openzeppelin_stylus6access7controlINtNtCsdDMkpvQxPWz_5alloc3vec3VechEINtNtCshuVUGNokh5j_4core7convert4FromNtB5_5ErrorE4from
FNDA:0,_RNvXs_NvNtNtCsa86sUp9HUqm_19openzeppelin_stylus6access7control1__NtNtCs9yoxqfta9I2_16alloy_primitives3log7LogDataINtNtCshuVUGNokh5j_4core7convert4FromRNtB6_16RoleAdminChangedE4fromBa_
FNDA:0,_RNCNvXs_NvNtNtCsa86sUp9HUqm_19openzeppelin_stylus6access7control1__NtNtCs9yoxqfta9I2_16alloy_primitives3log7LogDataINtNtCshuVUGNokh5j_4core7convert4FromRNtB8_16RoleAdminChangedE4from0Bc_
FNDA:0,_RNvXs_NvNtNtCsa86sUp9HUqm_19openzeppelin_stylus6access7controls_1__NtNtCs9yoxqfta9I2_16alloy_primitives3log7LogDataINtNtCshuVUGNokh5j_4core7convert4FromRNtB6_11RoleGrantedE4fromBa_
FNDA:0,_RNCNvXs_NvNtNtCsa86sUp9HUqm_19openzeppelin_stylus6access7controls_1__NtNtCs9yoxqfta9I2_16alloy_primitives3log7LogDataINtNtCshuVUGNokh5j_4core7convert4FromRNtB8_11RoleGrantedE4from0Bc_
FNDA:0,_RNvXs_NvNtNtCsa86sUp9HUqm_19openzeppelin_stylus6access7controls0_1__NtNtCs9yoxqfta9I2_16alloy_primitives3log7LogDataINtNtCshuVUGNokh5j_4core7convert4FromRNtB6_11RoleRevokedE4fromBa_
FNDA:0,_RNCNvXs_NvNtNtCsa86sUp9HUqm_19openzeppelin_stylus6access7controls0_1__NtNtCs9yoxqfta9I2_16alloy_primitives3log7LogDataINtNtCshuVUGNokh5j_4core7convert4FromRNtB8_11RoleRevokedE4from0Bc_
FNDA:0,_RNvXININtNtCsa86sUp9HUqm_19openzeppelin_stylus6access7controlsf_0pENtB5_13AccessControlINtNtCs8c3p7fi1c1U_10stylus_sdk3abi6RouterpE5routeB9_
FNDA:0,_RNvXsf_NtNtCsa86sUp9HUqm_19openzeppelin_stylus6access7controlNtB5_13AccessControlINtNtCs8c3p7fi1c1U_10stylus_sdk3abi6RouterNtCsbwD9Yma26L7_22access_control_example20AccessControlExampleE5routeB1Z_
FNDA:0,_RNvXs_NvNtNtCs6vaqcEMrLsG_19openzeppelin_stylus6access7control1__NtNtCs9yoxqfta9I2_16alloy_primitives3log7LogDataINtNtCshuVUGNokh5j_4core7convert4FromRNtB6_16RoleAdminChangedE4fromBa_
FNDA:0,_RNCNvXs_NvNtNtCs6vaqcEMrLsG_19openzeppelin_stylus6access7control1__NtNtCs9yoxqfta9I2_16alloy_primitives3log7LogDataINtNtCshuVUGNokh5j_4core7convert4FromRNtB8_16RoleAdminChangedE4from0Bc_
FNDA:0,_RNvXs_NvNtNtCs6vaqcEMrLsG_19openzeppelin_stylus6access7controls_1__NtNtCs9yoxqfta9I2_16alloy_primitives3log7LogDataINtNtCshuVUGNokh5j_4core7convert4FromRNtB6_11RoleGrantedE4fromBa_
FNDA:0,_RNCNvXs_NvNtNtCs6vaqcEMrLsG_19openzeppelin_stylus6access7controls_1__NtNtCs9yoxqfta9I2_16alloy_primitives3log7LogDataINtNtCshuVUGNokh5j_4core7convert4FromRNtB8_11RoleGrantedE4from0Bc_
FNDA:0,_RNvXs_NvNtNtCs6vaqcEMrLsG_19openzeppelin_stylus6access7controls0_1__NtNtCs9yoxqfta9I2_16alloy_primitives3log7LogDataINtNtCshuVUGNokh5j_4core7convert4FromRNtB6_11RoleRevokedE4fromBa_
FNDA:0,_RNCNvXs_NvNtNtCs6vaqcEMrLsG_19openzeppelin_stylus6access7controls0_1__NtNtCs9yoxqfta9I2_16alloy_primitives3log7LogDataINtNtCshuVUGNokh5j_4core7convert4FromRNtB8_11RoleRevokedE4from0Bc_
FNDA:0,_RNvNvNtNtCs6vaqcEMrLsG_19openzeppelin_stylus6access7controls1_1__15__type_assertion
FNDA:0,_RNvNvNtNtCs6vaqcEMrLsG_19openzeppelin_stylus6access7controls2_1__15__type_assertion
FNDA:0,_RNvXs6_NtNtCs6vaqcEMrLsG_19openzeppelin_stylus6access7controlNtB5_5ErrorINtNtCshuVUGNokh5j_4core7convert4FromNtB5_32AccessControlUnauthorizedAccountE4from
FNDA:0,_RNvXs7_NtNtCs6vaqcEMrLsG_19openzeppelin_stylus6access7controlNtB5_5ErrorINtNtCshuVUGNokh5j_4core7convert4FromNtB5_28AccessControlBadConfirmationE4from
FNDA:0,_RNvXs8_NtNtCs6vaqcEMrLsG_19openzeppelin_stylus6access7controlINtNtCsdDMkpvQxPWz_5alloc3vec3VechEINtNtCshuVUGNokh5j_4core7convert4FromNtB5_5ErrorE4from
FNDA:0,_RNvMsa_NtNtCs6vaqcEMrLsG_19openzeppelin_stylus6access7controlNtB5_8RoleData14required_slots
FNDA:0,_RNvXsb_NtNtCs6vaqcEMrLsG_19openzeppelin_stylus6access7controlNtB5_8RoleDataNtNtNtCs8c3p7fi1c1U_10stylus_sdk7storage6traits11StorageType4load
FNDA:0,_RNvXsb_NtNtCs6vaqcEMrLsG_19openzeppelin_stylus6access7controlNtB5_8RoleDataNtNtNtCs8c3p7fi1c1U_10stylus_sdk7storage6traits11StorageType8load_mut
FNDA:0,_RNvMsc_NtNtCs6vaqcEMrLsG_19openzeppelin_stylus6access7controlNtB5_13AccessControl14required_slots
FNDA:0,_RNvXsd_NtNtCs6vaqcEMrLsG_19openzeppelin_stylus6access7controlNtB5_13AccessControlNtNtNtCs8c3p7fi1c1U_10stylus_sdk7storage6traits11StorageType4load
FNDA:0,_RNvXsd_NtNtCs6vaqcEMrLsG_19openzeppelin_stylus6access7controlNtB5_13AccessControlNtNtNtCs8c3p7fi1c1U_10stylus_sdk7storage6traits11StorageType8load_mut
FNDA:0,_RNvXININtNtCs6vaqcEMrLsG_19openzeppelin_stylus6access7controlsf_0pENtB5_13AccessControlINtNtCs8c3p7fi1c1U_10stylus_sdk3abi6RouterpE5routeB9_
FNDA:0,_RNvMsg_NtNtCs6vaqcEMrLsG_19openzeppelin_stylus6access7controlNtB5_13AccessControl23___stylus_allow_override
FNDA:0,_RNvMsg_NtNtCs6vaqcEMrLsG_19openzeppelin_stylus6access7controlNtB5_13AccessControl25___stylus_assert_overrides
FNDA:5,_RNvMNtNtCs6vaqcEMrLsG_19openzeppelin_stylus6access7controlNtB2_13AccessControl15__set_role_admin
FNDA:15,_RNvMNtNtCs6vaqcEMrLsG_19openzeppelin_stylus6access7controlNtB2_13AccessControl11__check_role
FNDA:5,_RNvMNtNtCs6vaqcEMrLsG_19openzeppelin_stylus6access7controlNtB2_13AccessControl11__grant_role
FNDA:10,_RNvMNtNtCs6vaqcEMrLsG_19openzeppelin_stylus6access7controlNtB2_13AccessControl12__revoke_role
FNDA:93,_RNvXsb_NtNtCs6vaqcEMrLsG_19openzeppelin_stylus6access7controlNtB5_8RoleDataNtNtNtCs8c3p7fi1c1U_10stylus_sdk7storage6traits11StorageType3new
FNDA:22,_RNvXsd_NtNtCs6vaqcEMrLsG_19openzeppelin_stylus6access7controlNtB5_13AccessControlNtNtNtCs8c3p7fi1c1U_10stylus_sdk7storage6traits11StorageType3new
FNDA:42,_RNvMse_NtNtCs6vaqcEMrLsG_19openzeppelin_stylus6access7controlNtB5_13AccessControl8has_role
FNDA:12,_RNvMse_NtNtCs6vaqcEMrLsG_19openzeppelin_stylus6access7controlNtB5_13AccessControl9only_role
FNDA:20,_RNvMse_NtNtCs6vaqcEMrLsG_19openzeppelin_stylus6access7controlNtB5_13AccessControl14get_role_admin
FNDA:5,_RNvMse_NtNtCs6vaqcEMrLsG_19openzeppelin_stylus6access7controlNtB5_13AccessControl10grant_role
FNDA:7,_RNvMse_NtNtCs6vaqcEMrLsG_19openzeppelin_stylus6access7controlNtB5_13AccessControl11revoke_role
FNDA:4,_RNvMse_NtNtCs6vaqcEMrLsG_19openzeppelin_stylus6access7controlNtB5_13AccessControl13renounce_role
FNDA:13,_RNvNtNtNtCs6vaqcEMrLsG_19openzeppelin_stylus6access7control5tests25__grant_role_to_msg_sender
FNDA:1,_RNvNtNtNtCs6vaqcEMrLsG_19openzeppelin_stylus6access7control5testss_29default_role_is_default_admin
FNDA:1,_RNvNtNtNtCs6vaqcEMrLsG_19openzeppelin_stylus6access7control5testss_35default_admin_roles_admin_is_itself
FNDA:1,_RNvNtNtNtCs6vaqcEMrLsG_19openzeppelin_stylus6access7control5testss_37non_admin_cannot_grant_role_to_others
FNDA:1,_RNvNtNtNtCs6vaqcEMrLsG_19openzeppelin_stylus6access7control5testss_44accounts_can_be_granted_roles_multiple_times
FNDA:1,_RNvNtNtNtCs6vaqcEMrLsG_19openzeppelin_stylus6access7control5testss_32not_granted_roles_can_be_revoked
FNDA:1,_RNvNtNtNtCs6vaqcEMrLsG_19openzeppelin_stylus6access7control5testss_21admin_can_revoke_role
FNDA:1,_RNvNtNtNtCs6vaqcEMrLsG_19openzeppelin_stylus6access7control5testss_28non_admin_cannot_revoke_role
FNDA:1,_RNvNtNtNtCs6vaqcEMrLsG_19openzeppelin_stylus6access7control5testss_35roles_can_be_revoked_multiple_times
FNDA:1,_RNvNtNtNtCs6vaqcEMrLsG_19openzeppelin_stylus6access7control5testss_24bearer_can_renounce_role
FNDA:1,_RNvNtNtNtCs6vaqcEMrLsG_19openzeppelin_stylus6access7control5testss_24only_sender_can_renounce
FNDA:1,_RNvNtNtNtCs6vaqcEMrLsG_19openzeppelin_stylus6access7control5testss_37roles_can_be_renounced_multiple_times
FNDA:1,_RNvNtNtNtCs6vaqcEMrLsG_19openzeppelin_stylus6access7control5testss_29a_roles_admin_role_can_change
FNDA:1,_RNvNtNtNtCs6vaqcEMrLsG_19openzeppelin_stylus6access7control5testss_29the_new_admin_can_grant_roles
FNDA:1,_RNvNtNtNtCs6vaqcEMrLsG_19openzeppelin_stylus6access7control5testss_30the_new_admin_can_revoke_roles
FNDA:1,_RNvNtNtNtCs6vaqcEMrLsG_19openzeppelin_stylus6access7control5testss_37previous_admins_no_longer_grant_roles
FNDA:1,_RNvNtNtNtCs6vaqcEMrLsG_19openzeppelin_stylus6access7control5testss_38previous_admins_no_longer_revoke_roles
FNDA:1,_RNvNtNtNtCs6vaqcEMrLsG_19openzeppelin_stylus6access7control5testss_34does_not_revert_if_sender_has_role
FNDA:1,_RNvNtNtNtCs6vaqcEMrLsG_19openzeppelin_stylus6access7control5testss_34reverts_if_sender_doesnt_have_role
FNDA:1,_RNvNtNtNtCs6vaqcEMrLsG_19openzeppelin_stylus6access7control5testss_35internal_grant_role_true_if_no_role
FNDA:1,_RNvNtNtNtCs6vaqcEMrLsG_19openzeppelin_stylus6access7control5testss_33internal_grant_role_false_if_role
FNDA:1,_RNvNtNtNtCs6vaqcEMrLsG_19openzeppelin_stylus6access7control5testss_33internal_revoke_role_true_if_role
FNDA:1,_RNvNtNtNtCs6vaqcEMrLsG_19openzeppelin_stylus6access7control5testss_37internal_revoke_role_false_if_no_role
FNF:40
FNH:34
DA:50,0
DA:51,0
DA:52,0
DA:53,0
DA:54,0
DA:55,0
DA:56,0
DA:57,0
DA:58,0
DA:59,0
DA:60,0
DA:61,0
DA:62,0
DA:63,0
DA:64,0
DA:65,0
DA:66,0
DA:67,0
DA:68,0
DA:69,0
DA:70,0
DA:71,0
DA:72,0
DA:73,0
DA:75,0
DA:76,0
DA:77,0
DA:78,0
DA:79,0
DA:80,0
DA:81,0
DA:82,0
DA:83,0
DA:84,0
DA:85,0
DA:86,0
DA:87,0
DA:88,0
DA:89,0
DA:93,0
DA:101,0
DA:102,0
DA:103,0
DA:104,0
DA:105,0
DA:106,0
DA:107,0
DA:108,0
DA:109,0
DA:110,0
DA:111,0
DA:112,0
DA:113,0
DA:114,0
DA:115,115
DA:117,0
DA:130,42
DA:131,42
DA:132,42
DA:145,12
DA:146,12
DA:147,12
DA:159,20
DA:160,20
DA:161,20
DA:186,5
DA:187,5
DA:188,5
DA:189,5
DA:190,5
DA:191,5
DA:192,5
DA:193,3
DA:194,3
DA:195,5
DA:219,7
DA:220,7
DA:221,7
DA:222,7
DA:223,7
DA:224,7
DA:225,7
DA:226,5
DA:227,5
DA:228,7
DA:256,4
DA:257,4
DA:258,4
DA:259,4
DA:260,4
DA:261,4
DA:262,1
DA:263,1
DA:264,1
DA:265,3
DA:266,3
DA:267,3
DA:268,3
DA:269,4
DA:284,5
DA:285,5
DA:286,5
DA:287,5
DA:288,5
DA:289,5
DA:290,5
DA:291,5
DA:292,5
DA:306,15
DA:307,15
DA:308,15
DA:309,15
DA:310,15
DA:311,15
DA:312,6
DA:313,6
DA:314,6
DA:315,9
DA:316,9
DA:317,9
DA:318,15
DA:334,5
DA:335,5
DA:336,2
DA:338,3
DA:339,3
DA:340,3
DA:342,5
DA:358,10
DA:359,10
DA:360,5
DA:361,5
DA:362,5
DA:364,5
DA:366,10
DA:398,13
DA:399,13
DA:400,13
DA:401,13
DA:402,13
DA:403,13
DA:404,13
DA:406,1
DA:412,1
DA:419,1
DA:425,1
DA:435,1
DA:446,1
DA:458,1
DA:468,1
DA:478,1
DA:489,1
DA:496,1
DA:507,1
DA:516,1
DA:526,1
DA:537,1
DA:546,1
DA:555,1
DA:561,1
DA:570,1
DA:576,1
DA:583,1
DA:590,1
BRF:0
BRH:0
LF:166
LH:109
end_of_record
SF:/home/nenad/repos/rust-contracts-stylus/contracts/src/access/ownable.rs
FN:45,_RNvXs7_NtNtCsa86sUp9HUqm_19openzeppelin_stylus6access7ownableINtNtCsdDMkpvQxPWz_5alloc3vec3VechEINtNtCshuVUGNokh5j_4core7convert4FromNtB5_5ErrorE4from
FN:27,_RNvXs_NvNtNtCsa86sUp9HUqm_19openzeppelin_stylus6access7ownable1__NtNtCs9yoxqfta9I2_16alloy_primitives3log7LogDataINtNtCshuVUGNokh5j_4core7convert4FromRNtB6_20OwnershipTransferredE4fromBa_
FN:20,_RNCNvXs_NvNtNtCsa86sUp9HUqm_19openzeppelin_stylus6access7ownable1__NtNtCs9yoxqfta9I2_16alloy_primitives3log7LogDataINtNtCshuVUGNokh5j_4core7convert4FromRNtB8_20OwnershipTransferredE4from0Bc_
FN:123,_RNvXININtNtCsa86sUp9HUqm_19openzeppelin_stylus6access7ownablesc_0pENtB5_7OwnableINtNtCs8c3p7fi1c1U_10stylus_sdk3abi6RouterpE5routeB9_
FN:54,_RNvXNtNtCsa86sUp9HUqm_19openzeppelin_stylus6access7ownableNtB2_5ErrorNtNtNtCs8c3p7fi1c1U_10stylus_sdk4call5error11MethodError6encode
FN:166,_RNvMs_NtNtCsa86sUp9HUqm_19openzeppelin_stylus6access7ownableNtB4_7Ownable10only_owner
FN:188,_RNvMs_NtNtCsa86sUp9HUqm_19openzeppelin_stylus6access7ownableNtB4_7Ownable19__transfer_ownership
FN:45,_RNvXs5_NtNtCsa86sUp9HUqm_19openzeppelin_stylus6access7ownableNtB5_5ErrorINtNtCshuVUGNokh5j_4core7convert4FromNtB5_26OwnableUnauthorizedAccountE4from
FN:45,_RNvXs6_NtNtCsa86sUp9HUqm_19openzeppelin_stylus6access7ownableNtB5_5ErrorINtNtCshuVUGNokh5j_4core7convert4FromNtB5_19OwnableInvalidOwnerE4from
FN:65,_RNvMs9_NtNtCsa86sUp9HUqm_19openzeppelin_stylus6access7ownableNtB5_7Ownable14required_slots
FN:65,_RNvXsa_NtNtCsa86sUp9HUqm_19openzeppelin_stylus6access7ownableNtB5_7OwnableNtNtNtCs8c3p7fi1c1U_10stylus_sdk7storage6traits11StorageType3new
FN:59,_RNvXsa_NtNtCsa86sUp9HUqm_19openzeppelin_stylus6access7ownableNtB5_7OwnableNtNtNtCs8c3p7fi1c1U_10stylus_sdk7storage6traits11StorageType4load
FN:59,_RNvXsa_NtNtCsa86sUp9HUqm_19openzeppelin_stylus6access7ownableNtB5_7OwnableNtNtNtCs8c3p7fi1c1U_10stylus_sdk7storage6traits11StorageType8load_mut
FN:127,_RNvXsb_NtNtCsa86sUp9HUqm_19openzeppelin_stylus6access7ownableNtB5_7OwnableNtB5_8IOwnable5owner
FN:131,_RNvXsb_NtNtCsa86sUp9HUqm_19openzeppelin_stylus6access7ownableNtB5_7OwnableNtB5_8IOwnable18transfer_ownership
FN:148,_RNvXsb_NtNtCsa86sUp9HUqm_19openzeppelin_stylus6access7ownableNtB5_7OwnableNtB5_8IOwnable18renounce_ownership
FN:123,_RNvMsd_NtNtCsa86sUp9HUqm_19openzeppelin_stylus6access7ownableNtB5_7Ownable23___stylus_allow_override
FN:123,_RNvMsd_NtNtCsa86sUp9HUqm_19openzeppelin_stylus6access7ownableNtB5_7Ownable25___stylus_assert_overrides
FN:123,_RNvXsc_NtNtCsa86sUp9HUqm_19openzeppelin_stylus6access7ownableNtB5_7OwnableINtNtCs8c3p7fi1c1U_10stylus_sdk3abi6RouterNtCs37bsBREJ4Le_15ownable_example14OwnableExampleE5routeB1S_
FN:166,_RNvMs_NtNtCs6vaqcEMrLsG_19openzeppelin_stylus6access7ownableNtB4_7Ownable10only_owner
FN:188,_RNvMs_NtNtCs6vaqcEMrLsG_19openzeppelin_stylus6access7ownableNtB4_7Ownable19__transfer_ownership
FN:65,_RNvXsa_NtNtCs6vaqcEMrLsG_19openzeppelin_stylus6access7ownableNtB5_7OwnableNtNtNtCs8c3p7fi1c1U_10stylus_sdk7storage6traits11StorageType3new
FN:127,_RNvXsb_NtNtCs6vaqcEMrLsG_19openzeppelin_stylus6access7ownableNtB5_7OwnableNtB5_8IOwnable5owner
FN:131,_RNvXsb_NtNtCs6vaqcEMrLsG_19openzeppelin_stylus6access7ownableNtB5_7OwnableNtB5_8IOwnable18transfer_ownership
FN:148,_RNvXsb_NtNtCs6vaqcEMrLsG_19openzeppelin_stylus6access7ownableNtB5_7OwnableNtB5_8IOwnable18renounce_ownership
FN:27,_RNvXs_NvNtNtCs6vaqcEMrLsG_19openzeppelin_stylus6access7ownable1__NtNtCs9yoxqfta9I2_16alloy_primitives3log7LogDataINtNtCshuVUGNokh5j_4core7convert4FromRNtB6_20OwnershipTransferredE4fromBa_
FN:20,_RNCNvXs_NvNtNtCs6vaqcEMrLsG_19openzeppelin_stylus6access7ownable1__NtNtCs9yoxqfta9I2_16alloy_primitives3log7LogDataINtNtCshuVUGNokh5j_4core7convert4FromRNtB8_20OwnershipTransferredE4from0Bc_
FN:29,_RNvNvNtNtCs6vaqcEMrLsG_19openzeppelin_stylus6access7ownables_1__15__type_assertion
FN:29,_RNvNvNtNtCs6vaqcEMrLsG_19openzeppelin_stylus6access7ownables0_1__15__type_assertion
FN:45,_RNvXs5_NtNtCs6vaqcEMrLsG_19openzeppelin_stylus6access7ownableNtB5_5ErrorINtNtCshuVUGNokh5j_4core7convert4FromNtB5_26OwnableUnauthorizedAccountE4from
FN:45,_RNvXs6_NtNtCs6vaqcEMrLsG_19openzeppelin_stylus6access7ownableNtB5_5ErrorINtNtCshuVUGNokh5j_4core7convert4FromNtB5_19OwnableInvalidOwnerE4from
FN:45,_RNvXs7_NtNtCs6vaqcEMrLsG_19openzeppelin_stylus6access7ownableINtNtCsdDMkpvQxPWz_5alloc3vec3VechEINtNtCshuVUGNokh5j_4core7convert4FromNtB5_5ErrorE4from
FN:54,_RNvXNtNtCs6vaqcEMrLsG_19openzeppelin_stylus6access7ownableNtB2_5ErrorNtNtNtCs8c3p7fi1c1U_10stylus_sdk4call5error11MethodError6encode
FN:65,_RNvMs9_NtNtCs6vaqcEMrLsG_19openzeppelin_stylus6access7ownableNtB5_7Ownable14required_slots
FN:59,_RNvXsa_NtNtCs6vaqcEMrLsG_19openzeppelin_stylus6access7ownableNtB5_7OwnableNtNtNtCs8c3p7fi1c1U_10stylus_sdk7storage6traits11StorageType4load
FN:59,_RNvXsa_NtNtCs6vaqcEMrLsG_19openzeppelin_stylus6access7ownableNtB5_7OwnableNtNtNtCs8c3p7fi1c1U_10stylus_sdk7storage6traits11StorageType8load_mut
FN:123,_RNvXININtNtCs6vaqcEMrLsG_19openzeppelin_stylus6access7ownablesc_0pENtB5_7OwnableINtNtCs8c3p7fi1c1U_10stylus_sdk3abi6RouterpE5routeB9_
FN:123,_RNvMsd_NtNtCs6vaqcEMrLsG_19openzeppelin_stylus6access7ownableNtB5_7Ownable23___stylus_allow_override
FN:123,_RNvMsd_NtNtCs6vaqcEMrLsG_19openzeppelin_stylus6access7ownableNtB5_7Ownable25___stylus_assert_overrides
FN:204,_RNvNtNtNtCs6vaqcEMrLsG_19openzeppelin_stylus6access7ownable5testss_11reads_owner
FN:211,_RNvNtNtNtCs6vaqcEMrLsG_19openzeppelin_stylus6access7ownable5testss_19transfers_ownership
FN:220,_RNvNtNtNtCs6vaqcEMrLsG_19openzeppelin_stylus6access7ownable5testss_37prevents_non_onwers_from_transferring
FN:231,_RNvNtNtNtCs6vaqcEMrLsG_19openzeppelin_stylus6access7ownable5testss_29prevents_reaching_stuck_state
FN:239,_RNvNtNtNtCs6vaqcEMrLsG_19openzeppelin_stylus6access7ownable5testss_32loses_ownership_after_renouncing
FN:248,_RNvNtNtNtCs6vaqcEMrLsG_19openzeppelin_stylus6access7ownable5testss_35prevents_non_owners_from_renouncing
FN:258,_RNvNtNtNtCs6vaqcEMrLsG_19openzeppelin_stylus6access7ownable5testss_39recovers_access_using_internal_transfer
FN:123,_RNvXsc_NtNtCsa86sUp9HUqm_19openzeppelin_stylus6access7ownableNtB5_7OwnableINtNtCs8c3p7fi1c1U_10stylus_sdk3abi6RouterNtCskkDasFjYffQ_15ownable_example14OwnableExampleE5routeB1S_
FNDA:0,_RNvXs7_NtNtCsa86sUp9HUqm_19openzeppelin_stylus6access7ownableINtNtCsdDMkpvQxPWz_5alloc3vec3VechEINtNtCshuVUGNokh5j_4core7convert4FromNtB5_5ErrorE4from
FNDA:0,_RNvXs_NvNtNtCsa86sUp9HUqm_19openzeppelin_stylus6access7ownable1__NtNtCs9yoxqfta9I2_16alloy_primitives3log7LogDataINtNtCshuVUGNokh5j_4core7convert4FromRNtB6_20OwnershipTransferredE4fromBa_
FNDA:0,_RNCNvXs_NvNtNtCsa86sUp9HUqm_19openzeppelin_stylus6access7ownable1__NtNtCs9yoxqfta9I2_16alloy_primitives3log7LogDataINtNtCshuVUGNokh5j_4core7convert4FromRNtB8_20OwnershipTransferredE4from0Bc_
FNDA:0,_RNvXININtNtCsa86sUp9HUqm_19openzeppelin_stylus6access7ownablesc_0pENtB5_7OwnableINtNtCs8c3p7fi1c1U_10stylus_sdk3abi6RouterpE5routeB9_
FNDA:0,_RNvXNtNtCsa86sUp9HUqm_19openzeppelin_stylus6access7ownableNtB2_5ErrorNtNtNtCs8c3p7fi1c1U_10stylus_sdk4call5error11MethodError6encode
FNDA:0,_RNvMs_NtNtCsa86sUp9HUqm_19openzeppelin_stylus6access7ownableNtB4_7Ownable10only_owner
FNDA:0,_RNvMs_NtNtCsa86sUp9HUqm_19openzeppelin_stylus6access7ownableNtB4_7Ownable19__transfer_ownership
FNDA:0,_RNvXs5_NtNtCsa86sUp9HUqm_19openzeppelin_stylus6access7ownableNtB5_5ErrorINtNtCshuVUGNokh5j_4core7convert4FromNtB5_26OwnableUnauthorizedAccountE4from
FNDA:0,_RNvXs6_NtNtCsa86sUp9HUqm_19openzeppelin_stylus6access7ownableNtB5_5ErrorINtNtCshuVUGNokh5j_4core7convert4FromNtB5_19OwnableInvalidOwnerE4from
FNDA:0,_RNvMs9_NtNtCsa86sUp9HUqm_19openzeppelin_stylus6access7ownableNtB5_7Ownable14required_slots
FNDA:0,_RNvXsa_NtNtCsa86sUp9HUqm_19openzeppelin_stylus6access7ownableNtB5_7OwnableNtNtNtCs8c3p7fi1c1U_10stylus_sdk7storage6traits11StorageType3new
FNDA:0,_RNvXsa_NtNtCsa86sUp9HUqm_19openzeppelin_stylus6access7ownableNtB5_7OwnableNtNtNtCs8c3p7fi1c1U_10stylus_sdk7storage6traits11StorageType4load
FNDA:0,_RNvXsa_NtNtCsa86sUp9HUqm_19openzeppelin_stylus6access7ownableNtB5_7OwnableNtNtNtCs8c3p7fi1c1U_10stylus_sdk7storage6traits11StorageType8load_mut
FNDA:0,_RNvXsb_NtNtCsa86sUp9HUqm_19openzeppelin_stylus6access7ownableNtB5_7OwnableNtB5_8IOwnable5owner
FNDA:0,_RNvXsb_NtNtCsa86sUp9HUqm_19openzeppelin_stylus6access7ownableNtB5_7OwnableNtB5_8IOwnable18transfer_ownership
FNDA:0,_RNvXsb_NtNtCsa86sUp9HUqm_19openzeppelin_stylus6access7ownableNtB5_7OwnableNtB5_8IOwnable18renounce_ownership
FNDA:0,_RNvMsd_NtNtCsa86sUp9HUqm_19openzeppelin_stylus6access7ownableNtB5_7Ownable23___stylus_allow_override
FNDA:0,_RNvMsd_NtNtCsa86sUp9HUqm_19openzeppelin_stylus6access7ownableNtB5_7Ownable25___stylus_assert_overrides
FNDA:0,_RNvXsc_NtNtCsa86sUp9HUqm_19openzeppelin_stylus6access7ownableNtB5_7OwnableINtNtCs8c3p7fi1c1U_10stylus_sdk3abi6RouterNtCs37bsBREJ4Le_15ownable_example14OwnableExampleE5routeB1S_
FNDA:14,_RNvMs_NtNtCs6vaqcEMrLsG_19openzeppelin_stylus6access7ownableNtB4_7Ownable10only_owner
FNDA:7,_RNvMs_NtNtCs6vaqcEMrLsG_19openzeppelin_stylus6access7ownableNtB4_7Ownable19__transfer_ownership
FNDA:27,_RNvXsa_NtNtCs6vaqcEMrLsG_19openzeppelin_stylus6access7ownableNtB5_7OwnableNtNtNtCs8c3p7fi1c1U_10stylus_sdk7storage6traits11StorageType3new
FNDA:28,_RNvXsb_NtNtCs6vaqcEMrLsG_19openzeppelin_stylus6access7ownableNtB5_7OwnableNtB5_8IOwnable5owner
FNDA:3,_RNvXsb_NtNtCs6vaqcEMrLsG_19openzeppelin_stylus6access7ownableNtB5_7OwnableNtB5_8IOwnable18transfer_ownership
FNDA:2,_RNvXsb_NtNtCs6vaqcEMrLsG_19openzeppelin_stylus6access7ownableNtB5_7OwnableNtB5_8IOwnable18renounce_ownership
FNDA:0,_RNvXs_NvNtNtCs6vaqcEMrLsG_19openzeppelin_stylus6access7ownable1__NtNtCs9yoxqfta9I2_16alloy_primitives3log7LogDataINtNtCshuVUGNokh5j_4core7convert4FromRNtB6_20OwnershipTransferredE4fromBa_
FNDA:0,_RNCNvXs_NvNtNtCs6vaqcEMrLsG_19openzeppelin_stylus6access7ownable1__NtNtCs9yoxqfta9I2_16alloy_primitives3log7LogDataINtNtCshuVUGNokh5j_4core7convert4FromRNtB8_20OwnershipTransferredE4from0Bc_
FNDA:0,_RNvNvNtNtCs6vaqcEMrLsG_19openzeppelin_stylus6access7ownables_1__15__type_assertion
FNDA:0,_RNvNvNtNtCs6vaqcEMrLsG_19openzeppelin_stylus6access7ownables0_1__15__type_assertion
FNDA:0,_RNvXs5_NtNtCs6vaqcEMrLsG_19openzeppelin_stylus6access7ownableNtB5_5ErrorINtNtCshuVUGNokh5j_4core7convert4FromNtB5_26OwnableUnauthorizedAccountE4from
FNDA:0,_RNvXs6_NtNtCs6vaqcEMrLsG_19openzeppelin_stylus6access7ownableNtB5_5ErrorINtNtCshuVUGNokh5j_4core7convert4FromNtB5_19OwnableInvalidOwnerE4from
FNDA:0,_RNvXs7_NtNtCs6vaqcEMrLsG_19openzeppelin_stylus6access7ownableINtNtCsdDMkpvQxPWz_5alloc3vec3VechEINtNtCshuVUGNokh5j_4core7convert4FromNtB5_5ErrorE4from
FNDA:0,_RNvXNtNtCs6vaqcEMrLsG_19openzeppelin_stylus6access7ownableNtB2_5ErrorNtNtNtCs8c3p7fi1c1U_10stylus_sdk4call5error11MethodError6encode
FNDA:0,_RNvMs9_NtNtCs6vaqcEMrLsG_19openzeppelin_stylus6access7ownableNtB5_7Ownable14required_slots
FNDA:0,_RNvXsa_NtNtCs6vaqcEMrLsG_19openzeppelin_stylus6access7ownableNtB5_7OwnableNtNtNtCs8c3p7fi1c1U_10stylus_sdk7storage6traits11StorageType4load
FNDA:0,_RNvXsa_NtNtCs6vaqcEMrLsG_19openzeppelin_stylus6access7ownableNtB5_7OwnableNtNtNtCs8c3p7fi1c1U_10stylus_sdk7storage6traits11StorageType8load_mut
FNDA:0,_RNvXININtNtCs6vaqcEMrLsG_19openzeppelin_stylus6access7ownablesc_0pENtB5_7OwnableINtNtCs8c3p7fi1c1U_10stylus_sdk3abi6RouterpE5routeB9_
FNDA:0,_RNvMsd_NtNtCs6vaqcEMrLsG_19openzeppelin_stylus6access7ownableNtB5_7Ownable23___stylus_allow_override
FNDA:0,_RNvMsd_NtNtCs6vaqcEMrLsG_19openzeppelin_stylus6access7ownableNtB5_7Ownable25___stylus_assert_overrides
FNDA:1,_RNvNtNtNtCs6vaqcEMrLsG_19openzeppelin_stylus6access7ownable5testss_11reads_owner
FNDA:1,_RNvNtNtNtCs6vaqcEMrLsG_19openzeppelin_stylus6access7ownable5testss_19transfers_ownership
FNDA:1,_RNvNtNtNtCs6vaqcEMrLsG_19openzeppelin_stylus6access7ownable5testss_37prevents_non_onwers_from_transferring
FNDA:1,_RNvNtNtNtCs6vaqcEMrLsG_19openzeppelin_stylus6access7ownable5testss_29prevents_reaching_stuck_state
FNDA:1,_RNvNtNtNtCs6vaqcEMrLsG_19openzeppelin_stylus6access7ownable5testss_32loses_ownership_after_renouncing
FNDA:1,_RNvNtNtNtCs6vaqcEMrLsG_19openzeppelin_stylus6access7ownable5testss_35prevents_non_owners_from_renouncing
FNDA:1,_RNvNtNtNtCs6vaqcEMrLsG_19openzeppelin_stylus6access7ownable5testss_39recovers_access_using_internal_transfer
FNDA:0,_RNvXsc_NtNtCsa86sUp9HUqm_19openzeppelin_stylus6access7ownableNtB5_7OwnableINtNtCs8c3p7fi1c1U_10stylus_sdk3abi6RouterNtCskkDasFjYffQ_15ownable_example14OwnableExampleE5routeB1S_
FNF:20
FNH:13
DA:20,0
DA:21,0
DA:22,0
DA:23,0
DA:24,0
DA:25,0
DA:26,0
DA:27,0
DA:29,0
DA:30,0
DA:31,0
DA:32,0
DA:33,0
DA:34,0
DA:35,0
DA:36,0
DA:37,0
DA:38,0
DA:39,0
DA:40,0
DA:41,0
DA:42,0
DA:45,0
DA:54,0
DA:55,0
DA:56,0
DA:59,0
DA:60,0
DA:61,0
DA:62,0
DA:63,0
DA:64,0
DA:65,27
DA:123,0
DA:127,28
DA:128,28
DA:129,28
DA:131,3
DA:132,3
DA:133,3
DA:134,3
DA:135,3
DA:137,2
DA:138,1
DA:139,1
DA:140,1
DA:141,1
DA:142,1
DA:143,1
DA:144,1
DA:145,1
DA:146,3
DA:148,2
DA:149,2
DA:150,1
DA:151,1
DA:152,2
DA:166,14
DA:167,14
DA:168,14
DA:169,4
DA:170,4
DA:171,4
DA:172,10
DA:173,10
DA:174,10
DA:175,14
DA:188,7
DA:189,7
DA:190,7
DA:191,7
DA:192,7
DA:204,1
DA:211,1
DA:220,1
DA:231,1
DA:239,1
DA:248,1
DA:258,1
BRF:0
BRH:0
LF:81
LH:46
end_of_record
SF:/home/nenad/repos/rust-contracts-stylus/contracts/src/access/ownable_two_step.rs
FN:45,_RNvXs1_NtNtCsa86sUp9HUqm_19openzeppelin_stylus6access16ownable_two_stepINtNtCsdDMkpvQxPWz_5alloc3vec3VechEINtNtCshuVUGNokh5j_4core7convert4FromNtB5_5ErrorE4from
FN:206,_RNvMNtNtCsa86sUp9HUqm_19openzeppelin_stylus6access16ownable_two_stepNtB2_12Ownable2Step19__transfer_ownership
FN:45,_RNvXs0_NtNtCsa86sUp9HUqm_19openzeppelin_stylus6access16ownable_two_stepNtB5_5ErrorINtNtCshuVUGNokh5j_4core7convert4FromNtNtB7_7ownable5ErrorE4from
FN:59,_RNvMs3_NtNtCsa86sUp9HUqm_19openzeppelin_stylus6access16ownable_two_stepNtB5_12Ownable2Step14required_slots
FN:59,_RNvXs4_NtNtCsa86sUp9HUqm_19openzeppelin_stylus6access16ownable_two_stepNtB5_12Ownable2StepNtNtNtCs8c3p7fi1c1U_10stylus_sdk7storage6traits11StorageType3new
FN:51,_RNvXs4_NtNtCsa86sUp9HUqm_19openzeppelin_stylus6access16ownable_two_stepNtB5_12Ownable2StepNtNtNtCs8c3p7fi1c1U_10stylus_sdk7storage6traits11StorageType4load
FN:51,_RNvXs4_NtNtCsa86sUp9HUqm_19openzeppelin_stylus6access16ownable_two_stepNtB5_12Ownable2StepNtNtNtCs8c3p7fi1c1U_10stylus_sdk7storage6traits11StorageType8load_mut
FN:147,_RNvXs5_NtNtCsa86sUp9HUqm_19openzeppelin_stylus6access16ownable_two_stepNtB5_12Ownable2StepNtB5_13IOwnable2Step5owner
FN:151,_RNvXs5_NtNtCsa86sUp9HUqm_19openzeppelin_stylus6access16ownable_two_stepNtB5_12Ownable2StepNtB5_13IOwnable2Step13pending_owner
FN:155,_RNvXs5_NtNtCsa86sUp9HUqm_19openzeppelin_stylus6access16ownable_two_stepNtB5_12Ownable2StepNtB5_13IOwnable2Step18transfer_ownership
FN:170,_RNvXs5_NtNtCsa86sUp9HUqm_19openzeppelin_stylus6access16ownable_two_stepNtB5_12Ownable2StepNtB5_13IOwnable2Step16accept_ownership
FN:183,_RNvXs5_NtNtCsa86sUp9HUqm_19openzeppelin_stylus6access16ownable_two_stepNtB5_12Ownable2StepNtB5_13IOwnable2Step18renounce_ownership
FN:143,_RNvMs7_NtNtCsa86sUp9HUqm_19openzeppelin_stylus6access16ownable_two_stepNtB5_12Ownable2Step23___stylus_allow_override
FN:143,_RNvMs7_NtNtCsa86sUp9HUqm_19openzeppelin_stylus6access16ownable_two_stepNtB5_12Ownable2Step25___stylus_assert_overrides
FN:41,_RNvXs_NvNtNtCsa86sUp9HUqm_19openzeppelin_stylus6access16ownable_two_step1__NtNtCs9yoxqfta9I2_16alloy_primitives3log7LogDataINtNtCshuVUGNokh5j_4core7convert4FromRNtB6_24OwnershipTransferStartedE4fromBa_
FN:30,_RNCNvXs_NvNtNtCsa86sUp9HUqm_19openzeppelin_stylus6access16ownable_two_step1__NtNtCs9yoxqfta9I2_16alloy_primitives3log7LogDataINtNtCshuVUGNokh5j_4core7convert4FromRNtB8_24OwnershipTransferStartedE4from0Bc_
FN:143,_RNvXININtNtCsa86sUp9HUqm_19openzeppelin_stylus6access16ownable_two_steps6_0pENtB5_12Ownable2StepINtNtCs8c3p7fi1c1U_10stylus_sdk3abi6RouterpE5routeB9_
FN:143,_RNvXs6_NtNtCsa86sUp9HUqm_19openzeppelin_stylus6access16ownable_two_stepNtB5_12Ownable2StepINtNtCs8c3p7fi1c1U_10stylus_sdk3abi6RouterNtCsjHHT2ck5caV_16ownable_two_step19Ownable2StepExampleE5routeB28_
FN:206,_RNvMNtNtCs6vaqcEMrLsG_19openzeppelin_stylus6access16ownable_two_stepNtB2_12Ownable2Step19__transfer_ownership
FN:45,_RNvXs0_NtNtCs6vaqcEMrLsG_19openzeppelin_stylus6access16ownable_two_stepNtB5_5ErrorINtNtCshuVUGNokh5j_4core7convert4FromNtNtB7_7ownable5ErrorE4from
FN:59,_RNvXs4_NtNtCs6vaqcEMrLsG_19openzeppelin_stylus6access16ownable_two_stepNtB5_12Ownable2StepNtNtNtCs8c3p7fi1c1U_10stylus_sdk7storage6traits11StorageType3new
FN:147,_RNvXs5_NtNtCs6vaqcEMrLsG_19openzeppelin_stylus6access16ownable_two_stepNtB5_12Ownable2StepNtB5_13IOwnable2Step5owner
FN:151,_RNvXs5_NtNtCs6vaqcEMrLsG_19openzeppelin_stylus6access16ownable_two_stepNtB5_12Ownable2StepNtB5_13IOwnable2Step13pending_owner
FN:155,_RNvXs5_NtNtCs6vaqcEMrLsG_19openzeppelin_stylus6access16ownable_two_stepNtB5_12Ownable2StepNtB5_13IOwnable2Step18transfer_ownership
FN:170,_RNvXs5_NtNtCs6vaqcEMrLsG_19openzeppelin_stylus6access16ownable_two_stepNtB5_12Ownable2StepNtB5_13IOwnable2Step16accept_ownership
FN:183,_RNvXs5_NtNtCs6vaqcEMrLsG_19openzeppelin_stylus6access16ownable_two_stepNtB5_12Ownable2StepNtB5_13IOwnable2Step18renounce_ownership
FN:41,_RNvXs_NvNtNtCs6vaqcEMrLsG_19openzeppelin_stylus6access16ownable_two_step1__NtNtCs9yoxqfta9I2_16alloy_primitives3log7LogDataINtNtCshuVUGNokh5j_4core7convert4FromRNtB6_24OwnershipTransferStartedE4fromBa_
FN:30,_RNCNvXs_NvNtNtCs6vaqcEMrLsG_19openzeppelin_stylus6access16ownable_two_step1__NtNtCs9yoxqfta9I2_16alloy_primitives3log7LogDataINtNtCshuVUGNokh5j_4core7convert4FromRNtB8_24OwnershipTransferStartedE4from0Bc_
FN:45,_RNvXs1_NtNtCs6vaqcEMrLsG_19openzeppelin_stylus6access16ownable_two_stepINtNtCsdDMkpvQxPWz_5alloc3vec3VechEINtNtCshuVUGNokh5j_4core7convert4FromNtB5_5ErrorE4from
FN:59,_RNvMs3_NtNtCs6vaqcEMrLsG_19openzeppelin_stylus6access16ownable_two_stepNtB5_12Ownable2Step14required_slots
FN:51,_RNvXs4_NtNtCs6vaqcEMrLsG_19openzeppelin_stylus6access16ownable_two_stepNtB5_12Ownable2StepNtNtNtCs8c3p7fi1c1U_10stylus_sdk7storage6traits11StorageType4load
FN:51,_RNvXs4_NtNtCs6vaqcEMrLsG_19openzeppelin_stylus6access16ownable_two_stepNtB5_12Ownable2StepNtNtNtCs8c3p7fi1c1U_10stylus_sdk7storage6traits11StorageType8load_mut
FN:143,_RNvXININtNtCs6vaqcEMrLsG_19openzeppelin_stylus6access16ownable_two_steps6_0pENtB5_12Ownable2StepINtNtCs8c3p7fi1c1U_10stylus_sdk3abi6RouterpE5routeB9_
FN:143,_RNvMs7_NtNtCs6vaqcEMrLsG_19openzeppelin_stylus6access16ownable_two_stepNtB5_12Ownable2Step23___stylus_allow_override
FN:143,_RNvMs7_NtNtCs6vaqcEMrLsG_19openzeppelin_stylus6access16ownable_two_stepNtB5_12Ownable2Step25___stylus_assert_overrides
FN:222,_RNvNtNtNtCs6vaqcEMrLsG_19openzeppelin_stylus6access16ownable_two_step5testss_11reads_owner
FN:229,_RNvNtNtNtCs6vaqcEMrLsG_19openzeppelin_stylus6access16ownable_two_step5testss_19reads_pending_owner
FN:236,_RNvNtNtNtCs6vaqcEMrLsG_19openzeppelin_stylus6access16ownable_two_step5testss_28initiates_ownership_transfer
FN:248,_RNvNtNtNtCs6vaqcEMrLsG_19openzeppelin_stylus6access16ownable_two_step5testss_44prevents_non_owners_from_initiating_transfer
FN:259,_RNvNtNtNtCs6vaqcEMrLsG_19openzeppelin_stylus6access16ownable_two_step5testss_17accepts_ownership
FN:269,_RNvNtNtNtCs6vaqcEMrLsG_19openzeppelin_stylus6access16ownable_two_step5testss_41prevents_non_pending_owner_from_accepting
FN:281,_RNvNtNtNtCs6vaqcEMrLsG_19openzeppelin_stylus6access16ownable_two_step5testss_37completes_two_step_ownership_transfer
FN:299,_RNvNtNtNtCs6vaqcEMrLsG_19openzeppelin_stylus6access16ownable_two_step5testss_19renounces_ownership
FN:307,_RNvNtNtNtCs6vaqcEMrLsG_19openzeppelin_stylus6access16ownable_two_step5testss_35prevents_non_owners_from_renouncing
FN:318,_RNvNtNtNtCs6vaqcEMrLsG_19openzeppelin_stylus6access16ownable_two_step5testss_28cancels_transfer_on_renounce
FN:328,_RNvNtNtNtCs6vaqcEMrLsG_19openzeppelin_stylus6access16ownable_two_step5testss_31allows_owner_to_cancel_transfer
FN:340,_RNvNtNtNtCs6vaqcEMrLsG_19openzeppelin_stylus6access16ownable_two_step5testss_34allows_owner_to_overwrite_transfer
FN:143,_RNvXs6_NtNtCsa86sUp9HUqm_19openzeppelin_stylus6access16ownable_two_stepNtB5_12Ownable2StepINtNtCs8c3p7fi1c1U_10stylus_sdk3abi6RouterNtCs2ub2KtBtvDF_16ownable_two_step19Ownable2StepExampleE5routeB28_
FNDA:0,_RNvXs1_NtNtCsa86sUp9HUqm_19openzeppelin_stylus6access16ownable_two_stepINtNtCsdDMkpvQxPWz_5alloc3vec3VechEINtNtCshuVUGNokh5j_4core7convert4FromNtB5_5ErrorE4from
FNDA:0,_RNvMNtNtCsa86sUp9HUqm_19openzeppelin_stylus6access16ownable_two_stepNtB2_12Ownable2Step19__transfer_ownership
FNDA:0,_RNvXs0_NtNtCsa86sUp9HUqm_19openzeppelin_stylus6access16ownable_two_stepNtB5_5ErrorINtNtCshuVUGNokh5j_4core7convert4FromNtNtB7_7ownable5ErrorE4from
FNDA:0,_RNvMs3_NtNtCsa86sUp9HUqm_19openzeppelin_stylus6access16ownable_two_stepNtB5_12Ownable2Step14required_slots
FNDA:0,_RNvXs4_NtNtCsa86sUp9HUqm_19openzeppelin_stylus6access16ownable_two_stepNtB5_12Ownable2StepNtNtNtCs8c3p7fi1c1U_10stylus_sdk7storage6traits11StorageType3new
FNDA:0,_RNvXs4_NtNtCsa86sUp9HUqm_19openzeppelin_stylus6access16ownable_two_stepNtB5_12Ownable2StepNtNtNtCs8c3p7fi1c1U_10stylus_sdk7storage6traits11StorageType4load
FNDA:0,_RNvXs4_NtNtCsa86sUp9HUqm_19openzeppelin_stylus6access16ownable_two_stepNtB5_12Ownable2StepNtNtNtCs8c3p7fi1c1U_10stylus_sdk7storage6traits11StorageType8load_mut
FNDA:0,_RNvXs5_NtNtCsa86sUp9HUqm_19openzeppelin_stylus6access16ownable_two_stepNtB5_12Ownable2StepNtB5_13IOwnable2Step5owner
FNDA:0,_RNvXs5_NtNtCsa86sUp9HUqm_19openzeppelin_stylus6access16ownable_two_stepNtB5_12Ownable2StepNtB5_13IOwnable2Step13pending_owner
FNDA:0,_RNvXs5_NtNtCsa86sUp9HUqm_19openzeppelin_stylus6access16ownable_two_stepNtB5_12Ownable2StepNtB5_13IOwnable2Step18transfer_ownership
FNDA:0,_RNvXs5_NtNtCsa86sUp9HUqm_19openzeppelin_stylus6access16ownable_two_stepNtB5_12Ownable2StepNtB5_13IOwnable2Step16accept_ownership
FNDA:0,_RNvXs5_NtNtCsa86sUp9HUqm_19openzeppelin_stylus6access16ownable_two_stepNtB5_12Ownable2StepNtB5_13IOwnable2Step18renounce_ownership
FNDA:0,_RNvMs7_NtNtCsa86sUp9HUqm_19openzeppelin_stylus6access16ownable_two_stepNtB5_12Ownable2Step23___stylus_allow_override
FNDA:0,_RNvMs7_NtNtCsa86sUp9HUqm_19openzeppelin_stylus6access16ownable_two_stepNtB5_12Ownable2Step25___stylus_assert_overrides
FNDA:0,_RNvXs_NvNtNtCsa86sUp9HUqm_19openzeppelin_stylus6access16ownable_two_step1__NtNtCs9yoxqfta9I2_16alloy_primitives3log7LogDataINtNtCshuVUGNokh5j_4core7convert4FromRNtB6_24OwnershipTransferStartedE4fromBa_
FNDA:0,_RNCNvXs_NvNtNtCsa86sUp9HUqm_19openzeppelin_stylus6access16ownable_two_step1__NtNtCs9yoxqfta9I2_16alloy_primitives3log7LogDataINtNtCshuVUGNokh5j_4core7convert4FromRNtB8_24OwnershipTransferStartedE4from0Bc_
FNDA:0,_RNvXININtNtCsa86sUp9HUqm_19openzeppelin_stylus6access16ownable_two_steps6_0pENtB5_12Ownable2StepINtNtCs8c3p7fi1c1U_10stylus_sdk3abi6RouterpE5routeB9_
FNDA:0,_RNvXs6_NtNtCsa86sUp9HUqm_19openzeppelin_stylus6access16ownable_two_stepNtB5_12Ownable2StepINtNtCs8c3p7fi1c1U_10stylus_sdk3abi6RouterNtCsjHHT2ck5caV_16ownable_two_step19Ownable2StepExampleE5routeB28_
FNDA:4,_RNvMNtNtCs6vaqcEMrLsG_19openzeppelin_stylus6access16ownable_two_stepNtB2_12Ownable2Step19__transfer_ownership
FNDA:3,_RNvXs0_NtNtCs6vaqcEMrLsG_19openzeppelin_stylus6access16ownable_two_stepNtB5_5ErrorINtNtCshuVUGNokh5j_4core7convert4FromNtNtB7_7ownable5ErrorE4from
FNDA:12,_RNvXs4_NtNtCs6vaqcEMrLsG_19openzeppelin_stylus6access16ownable_two_stepNtB5_12Ownable2StepNtNtNtCs8c3p7fi1c1U_10stylus_sdk7storage6traits11StorageType3new
FNDA:13,_RNvXs5_NtNtCs6vaqcEMrLsG_19openzeppelin_stylus6access16ownable_two_stepNtB5_12Ownable2StepNtB5_13IOwnable2Step5owner
FNDA:11,_RNvXs5_NtNtCs6vaqcEMrLsG_19openzeppelin_stylus6access16ownable_two_stepNtB5_12Ownable2StepNtB5_13IOwnable2Step13pending_owner
FNDA:6,_RNvXs5_NtNtCs6vaqcEMrLsG_19openzeppelin_stylus6access16ownable_two_stepNtB5_12Ownable2StepNtB5_13IOwnable2Step18transfer_ownership
FNDA:3,_RNvXs5_NtNtCs6vaqcEMrLsG_19openzeppelin_stylus6access16ownable_two_stepNtB5_12Ownable2StepNtB5_13IOwnable2Step16accept_ownership
FNDA:3,_RNvXs5_NtNtCs6vaqcEMrLsG_19openzeppelin_stylus6access16ownable_two_stepNtB5_12Ownable2StepNtB5_13IOwnable2Step18renounce_ownership
FNDA:0,_RNvXs_NvNtNtCs6vaqcEMrLsG_19openzeppelin_stylus6access16ownable_two_step1__NtNtCs9yoxqfta9I2_16alloy_primitives3log7LogDataINtNtCshuVUGNokh5j_4core7convert4FromRNtB6_24OwnershipTransferStartedE4fromBa_
FNDA:0,_RNCNvXs_NvNtNtCs6vaqcEMrLsG_19openzeppelin_stylus6access16ownable_two_step1__NtNtCs9yoxqfta9I2_16alloy_primitives3log7LogDataINtNtCshuVUGNokh5j_4core7convert4FromRNtB8_24OwnershipTransferStartedE4from0Bc_
FNDA:0,_RNvXs1_NtNtCs6vaqcEMrLsG_19openzeppelin_stylus6access16ownable_two_stepINtNtCsdDMkpvQxPWz_5alloc3vec3VechEINtNtCshuVUGNokh5j_4core7convert4FromNtB5_5ErrorE4from
FNDA:0,_RNvMs3_NtNtCs6vaqcEMrLsG_19openzeppelin_stylus6access16ownable_two_stepNtB5_12Ownable2Step14required_slots
FNDA:0,_RNvXs4_NtNtCs6vaqcEMrLsG_19openzeppelin_stylus6access16ownable_two_stepNtB5_12Ownable2StepNtNtNtCs8c3p7fi1c1U_10stylus_sdk7storage6traits11StorageType4load
FNDA:0,_RNvXs4_NtNtCs6vaqcEMrLsG_19openzeppelin_stylus6access16ownable_two_stepNtB5_12Ownable2StepNtNtNtCs8c3p7fi1c1U_10stylus_sdk7storage6traits11StorageType8load_mut
FNDA:0,_RNvXININtNtCs6vaqcEMrLsG_19openzeppelin_stylus6access16ownable_two_steps6_0pENtB5_12Ownable2StepINtNtCs8c3p7fi1c1U_10stylus_sdk3abi6RouterpE5routeB9_
FNDA:0,_RNvMs7_NtNtCs6vaqcEMrLsG_19openzeppelin_stylus6access16ownable_two_stepNtB5_12Ownable2Step23___stylus_allow_override
FNDA:0,_RNvMs7_NtNtCs6vaqcEMrLsG_19openzeppelin_stylus6access16ownable_two_stepNtB5_12Ownable2Step25___stylus_assert_overrides
FNDA:1,_RNvNtNtNtCs6vaqcEMrLsG_19openzeppelin_stylus6access16ownable_two_step5testss_11reads_owner
FNDA:1,_RNvNtNtNtCs6vaqcEMrLsG_19openzeppelin_stylus6access16ownable_two_step5testss_19reads_pending_owner
FNDA:1,_RNvNtNtNtCs6vaqcEMrLsG_19openzeppelin_stylus6access16ownable_two_step5testss_28initiates_ownership_transfer
FNDA:1,_RNvNtNtNtCs6vaqcEMrLsG_19openzeppelin_stylus6access16ownable_two_step5testss_44prevents_non_owners_from_initiating_transfer
FNDA:1,_RNvNtNtNtCs6vaqcEMrLsG_19openzeppelin_stylus6access16ownable_two_step5testss_17accepts_ownership
FNDA:1,_RNvNtNtNtCs6vaqcEMrLsG_19openzeppelin_stylus6access16ownable_two_step5testss_41prevents_non_pending_owner_from_accepting
FNDA:1,_RNvNtNtNtCs6vaqcEMrLsG_19openzeppelin_stylus6access16ownable_two_step5testss_37completes_two_step_ownership_transfer
FNDA:1,_RNvNtNtNtCs6vaqcEMrLsG_19openzeppelin_stylus6access16ownable_two_step5testss_19renounces_ownership
FNDA:1,_RNvNtNtNtCs6vaqcEMrLsG_19openzeppelin_stylus6access16ownable_two_step5testss_35prevents_non_owners_from_renouncing
FNDA:1,_RNvNtNtNtCs6vaqcEMrLsG_19openzeppelin_stylus6access16ownable_two_step5testss_28cancels_transfer_on_renounce
FNDA:1,_RNvNtNtNtCs6vaqcEMrLsG_19openzeppelin_stylus6access16ownable_two_step5testss_31allows_owner_to_cancel_transfer
FNDA:1,_RNvNtNtNtCs6vaqcEMrLsG_19openzeppelin_stylus6access16ownable_two_step5testss_34allows_owner_to_overwrite_transfer
FNDA:0,_RNvXs6_NtNtCsa86sUp9HUqm_19openzeppelin_stylus6access16ownable_two_stepNtB5_12Ownable2StepINtNtCs8c3p7fi1c1U_10stylus_sdk3abi6RouterNtCs2ub2KtBtvDF_16ownable_two_step19Ownable2StepExampleE5routeB28_
FNF:24
FNH:20
DA:30,0
DA:31,0
DA:32,0
DA:33,0
DA:34,0
DA:35,0
DA:36,0
DA:37,0
DA:38,0
DA:39,0
DA:40,0
DA:41,0
DA:45,3
DA:51,0
DA:52,0
DA:53,0
DA:54,0
DA:55,0
DA:56,0
DA:57,0
DA:58,0
DA:59,12
DA:143,0
DA:147,13
DA:148,13
DA:149,13
DA:151,11
DA:152,11
DA:153,11
DA:155,6
DA:156,6
DA:157,6
DA:158,6
DA:159,6
DA:160,5
DA:161,5
DA:162,5
DA:163,5
DA:164,5
DA:165,5
DA:166,5
DA:167,5
DA:168,6
DA:170,3
DA:171,3
DA:172,3
DA:173,3
DA:174,1
DA:175,1
DA:176,1
DA:177,1
DA:178,2
DA:179,2
DA:180,2
DA:181,3
DA:183,3
DA:184,3
DA:185,2
DA:186,2
DA:187,3
DA:206,4
DA:207,4
DA:208,4
DA:209,4
DA:222,1
DA:229,1
DA:236,1
DA:248,1
DA:259,1
DA:269,1
DA:281,1
DA:299,1
DA:307,1
DA:318,1
DA:328,1
DA:340,1
BRF:0
BRH:0
LF:78
LH:55
end_of_record
SF:/home/nenad/repos/rust-contracts-stylus/contracts/src/finance/vesting_wallet.rs
FN:123,_RNvXs1_NtNtNtCsa86sUp9HUqm_19openzeppelin_stylus7finance14vesting_wallet5tokenNtB5_6IErc20INtNtCslo5yAywcNl4_15alloy_sol_types7private12SolTypeValueB1e_E13stv_to_tokensBb_
FN:123,_RNvXs1_NtNtNtCsa86sUp9HUqm_19openzeppelin_stylus7finance14vesting_wallet5tokenNtB5_6IErc20INtNtCslo5yAywcNl4_15alloy_sol_types7private12SolTypeValueB1e_E20stv_abi_encoded_sizeBb_
FN:123,_RNvXs1_NtNtNtCsa86sUp9HUqm_19openzeppelin_stylus7finance14vesting_wallet5tokenNtB5_6IErc20INtNtCslo5yAywcNl4_15alloy_sol_types7private12SolTypeValueB1e_E20stv_eip712_data_wordBb_
FN:123,_RNvXs1_NtNtNtCsa86sUp9HUqm_19openzeppelin_stylus7finance14vesting_wallet5tokenNtB5_6IErc20INtNtCslo5yAywcNl4_15alloy_sol_types7private12SolTypeValueB1e_E24stv_abi_encode_packed_toBb_
FN:365,_RNvXININtNtCsa86sUp9HUqm_19openzeppelin_stylus7finance14vesting_wallets1_0pENtNtB5_8sol_defs13VestingWalletINtNtCs8c3p7fi1c1U_10stylus_sdk3abi6RouterpE5routeB9_
FN:507,_RNvMs_NtNtCsa86sUp9HUqm_19openzeppelin_stylus7finance14vesting_walletNtNtB4_8sol_defs13VestingWallet16vesting_schedule
FN:369,_RNvXs0_NtNtCsa86sUp9HUqm_19openzeppelin_stylus7finance14vesting_walletNtNtB5_8sol_defs13VestingWalletNtB5_14IVestingWallet5owner
FN:373,_RNvXs0_NtNtCsa86sUp9HUqm_19openzeppelin_stylus7finance14vesting_walletNtNtB5_8sol_defs13VestingWalletNtB5_14IVestingWallet18transfer_ownership
FN:380,_RNvXs0_NtNtCsa86sUp9HUqm_19openzeppelin_stylus7finance14vesting_walletNtNtB5_8sol_defs13VestingWalletNtB5_14IVestingWallet18renounce_ownership
FN:385,_RNvXs0_NtNtCsa86sUp9HUqm_19openzeppelin_stylus7finance14vesting_walletNtNtB5_8sol_defs13VestingWalletNtB5_14IVestingWallet13receive_ether
FN:387,_RNvXs0_NtNtCsa86sUp9HUqm_19openzeppelin_stylus7finance14vesting_walletNtNtB5_8sol_defs13VestingWalletNtB5_14IVestingWallet5start
FN:391,_RNvXs0_NtNtCsa86sUp9HUqm_19openzeppelin_stylus7finance14vesting_walletNtNtB5_8sol_defs13VestingWalletNtB5_14IVestingWallet8duration
FN:395,_RNvXs0_NtNtCsa86sUp9HUqm_19openzeppelin_stylus7finance14vesting_walletNtNtB5_8sol_defs13VestingWalletNtB5_14IVestingWallet3end
FN:402,_RNvXs0_NtNtCsa86sUp9HUqm_19openzeppelin_stylus7finance14vesting_walletNtNtB5_8sol_defs13VestingWalletNtB5_14IVestingWallet12released_eth
FN:407,_RNvXs0_NtNtCsa86sUp9HUqm_19openzeppelin_stylus7finance14vesting_walletNtNtB5_8sol_defs13VestingWalletNtB5_14IVestingWallet14released_erc20
FN:412,_RNvXs0_NtNtCsa86sUp9HUqm_19openzeppelin_stylus7finance14vesting_walletNtNtB5_8sol_defs13VestingWalletNtB5_14IVestingWallet14releasable_eth
FN:419,_RNvXs0_NtNtCsa86sUp9HUqm_19openzeppelin_stylus7finance14vesting_walletNtNtB5_8sol_defs13VestingWalletNtB5_14IVestingWallet16releasable_erc20
FN:427,_RNvXs0_NtNtCsa86sUp9HUqm_19openzeppelin_stylus7finance14vesting_walletNtNtB5_8sol_defs13VestingWalletNtB5_14IVestingWallet11release_eth
FN:447,_RNvXs0_NtNtCsa86sUp9HUqm_19openzeppelin_stylus7finance14vesting_walletNtNtB5_8sol_defs13VestingWalletNtB5_14IVestingWallet13release_erc20
FN:466,_RNvXs0_NtNtCsa86sUp9HUqm_19openzeppelin_stylus7finance14vesting_walletNtNtB5_8sol_defs13VestingWalletNtB5_14IVestingWallet17vested_amount_eth
FN:475,_RNvXs0_NtNtCsa86sUp9HUqm_19openzeppelin_stylus7finance14vesting_walletNtNtB5_8sol_defs13VestingWalletNtB5_14IVestingWallet19vested_amount_erc20
FN:365,_RNvMs2_NtNtCsa86sUp9HUqm_19openzeppelin_stylus7finance14vesting_walletNtNtB5_8sol_defs13VestingWallet23___stylus_allow_override
FN:365,_RNvMs2_NtNtCsa86sUp9HUqm_19openzeppelin_stylus7finance14vesting_walletNtNtB5_8sol_defs13VestingWallet25___stylus_assert_overrides
FN:123,_RNvMNtNtNtCsa86sUp9HUqm_19openzeppelin_stylus7finance14vesting_wallet5tokenNtB2_6IErc203new
FN:123,_RNvXs_NtNtNtCsa86sUp9HUqm_19openzeppelin_stylus7finance14vesting_wallet5tokenNtB4_6IErc20NtNtNtCshuVUGNokh5j_4core3ops5deref5Deref5deref
FN:123,_RNvXs2_NtNtNtCsa86sUp9HUqm_19openzeppelin_stylus7finance14vesting_wallet5tokenNtB5_6IErc20NtNtNtCslo5yAywcNl4_15alloy_sol_types5types2ty7SolType11valid_token
FN:123,_RNvXs2_NtNtNtCsa86sUp9HUqm_19openzeppelin_stylus7finance14vesting_wallet5tokenNtB5_6IErc20NtNtNtCslo5yAywcNl4_15alloy_sol_types5types2ty7SolType10detokenize
FN:128,_RINvMNtNtNtCsa86sUp9HUqm_19openzeppelin_stylus7finance14vesting_wallet5tokenNtB3_6IErc2010balance_ofINtNtNtCs8c3p7fi1c1U_10stylus_sdk4call7context4CalluEEB9_
FN:483,_RNCNvXs0_NtNtCsa86sUp9HUqm_19openzeppelin_stylus7finance14vesting_walletNtNtB7_8sol_defs13VestingWalletNtB7_14IVestingWallet19vested_amount_erc200Bb_
FN:365,_RNvXs1_NtNtCsa86sUp9HUqm_19openzeppelin_stylus7finance14vesting_walletNtNtB5_8sol_defs13VestingWalletINtNtCs8c3p7fi1c1U_10stylus_sdk3abi6RouterNtCs6L1atajhRRH_22vesting_wallet_example20VestingWalletExampleE5routeB2j_
FN:541,_RNvNtNtNtCs6vaqcEMrLsG_19openzeppelin_stylus7finance14vesting_wallet5tests5start
FN:545,_RNvNtNtNtCs6vaqcEMrLsG_19openzeppelin_stylus7finance14vesting_wallet5tests4init
FN:557,_RNvNtNtNtCs6vaqcEMrLsG_19openzeppelin_stylus7finance14vesting_wallet5testss_11reads_start
FN:563,_RNvNtNtNtCs6vaqcEMrLsG_19openzeppelin_stylus7finance14vesting_wallet5testss_14reads_duration
FN:569,_RNvNtNtNtCs6vaqcEMrLsG_19openzeppelin_stylus7finance14vesting_wallet5testss_9reads_end
FN:575,_RNvNtNtNtCs6vaqcEMrLsG_19openzeppelin_stylus7finance14vesting_wallet5testss_13reads_max_end
FN:581,_RNvNtNtNtCs6vaqcEMrLsG_19openzeppelin_stylus7finance14vesting_wallet5testss_18reads_released_eth
FN:588,_RNvNtNtNtCs6vaqcEMrLsG_19openzeppelin_stylus7finance14vesting_wallet5testss_20reads_released_erc20
FN:595,_RNvNtNtNtCs6vaqcEMrLsG_19openzeppelin_stylus7finance14vesting_wallet5testss_21gets_vesting_schedule
FN:617,_RNvNtNtNtCs6vaqcEMrLsG_19openzeppelin_stylus7finance14vesting_wallet5testss_35gets_vesting_schedule_zero_duration
FN:507,_RNvMs_NtNtCs6vaqcEMrLsG_19openzeppelin_stylus7finance14vesting_walletNtNtB4_8sol_defs13VestingWallet16vesting_schedule
FN:387,_RNvXs0_NtNtCs6vaqcEMrLsG_19openzeppelin_stylus7finance14vesting_walletNtNtB5_8sol_defs13VestingWalletNtB5_14IVestingWallet5start
FN:391,_RNvXs0_NtNtCs6vaqcEMrLsG_19openzeppelin_stylus7finance14vesting_walletNtNtB5_8sol_defs13VestingWalletNtB5_14IVestingWallet8duration
FN:395,_RNvXs0_NtNtCs6vaqcEMrLsG_19openzeppelin_stylus7finance14vesting_walletNtNtB5_8sol_defs13VestingWalletNtB5_14IVestingWallet3end
FN:402,_RNvXs0_NtNtCs6vaqcEMrLsG_19openzeppelin_stylus7finance14vesting_walletNtNtB5_8sol_defs13VestingWalletNtB5_14IVestingWallet12released_eth
FN:407,_RNvXs0_NtNtCs6vaqcEMrLsG_19openzeppelin_stylus7finance14vesting_walletNtNtB5_8sol_defs13VestingWalletNtB5_14IVestingWallet14released_erc20
FN:123,_RNvMNtNtNtCs6vaqcEMrLsG_19openzeppelin_stylus7finance14vesting_wallet5tokenNtB2_6IErc203new
FN:128,_RINvMNtNtNtCs6vaqcEMrLsG_19openzeppelin_stylus7finance14vesting_wallet5tokenNtB3_6IErc2010balance_ofpEB9_
FN:123,_RNvXs_NtNtNtCs6vaqcEMrLsG_19openzeppelin_stylus7finance14vesting_wallet5tokenNtB4_6IErc20NtNtNtCshuVUGNokh5j_4core3ops5deref5Deref5deref
FN:123,_RNvXs1_NtNtNtCs6vaqcEMrLsG_19openzeppelin_stylus7finance14vesting_wallet5tokenNtB5_6IErc20INtNtCslo5yAywcNl4_15alloy_sol_types7private12SolTypeValueB1e_E13stv_to_tokensBb_
FN:123,_RNvXs1_NtNtNtCs6vaqcEMrLsG_19openzeppelin_stylus7finance14vesting_wallet5tokenNtB5_6IErc20INtNtCslo5yAywcNl4_15alloy_sol_types7private12SolTypeValueB1e_E20stv_abi_encoded_sizeBb_
FN:123,_RNvXs1_NtNtNtCs6vaqcEMrLsG_19openzeppelin_stylus7finance14vesting_wallet5tokenNtB5_6IErc20INtNtCslo5yAywcNl4_15alloy_sol_types7private12SolTypeValueB1e_E20stv_eip712_data_wordBb_
FN:123,_RNvXs1_NtNtNtCs6vaqcEMrLsG_19openzeppelin_stylus7finance14vesting_wallet5tokenNtB5_6IErc20INtNtCslo5yAywcNl4_15alloy_sol_types7private12SolTypeValueB1e_E24stv_abi_encode_packed_toBb_
FN:123,_RNvXs2_NtNtNtCs6vaqcEMrLsG_19openzeppelin_stylus7finance14vesting_wallet5tokenNtB5_6IErc20NtNtNtCslo5yAywcNl4_15alloy_sol_types5types2ty7SolType11valid_token
FN:123,_RNvXs2_NtNtNtCs6vaqcEMrLsG_19openzeppelin_stylus7finance14vesting_wallet5tokenNtB5_6IErc20NtNtNtCslo5yAywcNl4_15alloy_sol_types5types2ty7SolType10detokenize
FN:369,_RNvXs0_NtNtCs6vaqcEMrLsG_19openzeppelin_stylus7finance14vesting_walletNtNtB5_8sol_defs13VestingWalletNtB5_14IVestingWallet5owner
FN:373,_RNvXs0_NtNtCs6vaqcEMrLsG_19openzeppelin_stylus7finance14vesting_walletNtNtB5_8sol_defs13VestingWalletNtB5_14IVestingWallet18transfer_ownership
FN:380,_RNvXs0_NtNtCs6vaqcEMrLsG_19openzeppelin_stylus7finance14vesting_walletNtNtB5_8sol_defs13VestingWalletNtB5_14IVestingWallet18renounce_ownership
FN:385,_RNvXs0_NtNtCs6vaqcEMrLsG_19openzeppelin_stylus7finance14vesting_walletNtNtB5_8sol_defs13VestingWalletNtB5_14IVestingWallet13receive_ether
FN:412,_RNvXs0_NtNtCs6vaqcEMrLsG_19openzeppelin_stylus7finance14vesting_walletNtNtB5_8sol_defs13VestingWalletNtB5_14IVestingWallet14releasable_eth
FN:419,_RNvXs0_NtNtCs6vaqcEMrLsG_19openzeppelin_stylus7finance14vesting_walletNtNtB5_8sol_defs13VestingWalletNtB5_14IVestingWallet16releasable_erc20
FN:427,_RNvXs0_NtNtCs6vaqcEMrLsG_19openzeppelin_stylus7finance14vesting_walletNtNtB5_8sol_defs13VestingWalletNtB5_14IVestingWallet11release_eth
FN:447,_RNvXs0_NtNtCs6vaqcEMrLsG_19openzeppelin_stylus7finance14vesting_walletNtNtB5_8sol_defs13VestingWalletNtB5_14IVestingWallet13release_erc20
FN:466,_RNvXs0_NtNtCs6vaqcEMrLsG_19openzeppelin_stylus7finance14vesting_walletNtNtB5_8sol_defs13VestingWalletNtB5_14IVestingWallet17vested_amount_eth
FN:475,_RNvXs0_NtNtCs6vaqcEMrLsG_19openzeppelin_stylus7finance14vesting_walletNtNtB5_8sol_defs13VestingWalletNtB5_14IVestingWallet19vested_amount_erc20
FN:483,_RNCNvXs0_NtNtCs6vaqcEMrLsG_19openzeppelin_stylus7finance14vesting_walletNtNtB7_8sol_defs13VestingWalletNtB7_14IVestingWallet19vested_amount_erc200Bb_
FN:365,_RNvXININtNtCs6vaqcEMrLsG_19openzeppelin_stylus7finance14vesting_wallets1_0pENtNtB5_8sol_defs13VestingWalletINtNtCs8c3p7fi1c1U_10stylus_sdk3abi6RouterpE5routeB9_
FN:365,_RNvMs2_NtNtCs6vaqcEMrLsG_19openzeppelin_stylus7finance14vesting_walletNtNtB5_8sol_defs13VestingWallet23___stylus_allow_override
FN:365,_RNvMs2_NtNtCs6vaqcEMrLsG_19openzeppelin_stylus7finance14vesting_walletNtNtB5_8sol_defs13VestingWallet25___stylus_assert_overrides
FN:365,_RNvXs1_NtNtCsa86sUp9HUqm_19openzeppelin_stylus7finance14vesting_walletNtNtB5_8sol_defs13VestingWalletINtNtCs8c3p7fi1c1U_10stylus_sdk3abi6RouterNtCse3mhV74reBx_22vesting_wallet_example20VestingWalletExampleE5routeB2j_
FNDA:0,_RNvXs1_NtNtNtCsa86sUp9HUqm_19openzeppelin_stylus7finance14vesting_wallet5tokenNtB5_6IErc20INtNtCslo5yAywcNl4_15alloy_sol_types7private12SolTypeValueB1e_E13stv_to_tokensBb_
FNDA:0,_RNvXs1_NtNtNtCsa86sUp9HUqm_19openzeppelin_stylus7finance14vesting_wallet5tokenNtB5_6IErc20INtNtCslo5yAywcNl4_15alloy_sol_types7private12SolTypeValueB1e_E20stv_abi_encoded_sizeBb_
FNDA:0,_RNvXs1_NtNtNtCsa86sUp9HUqm_19openzeppelin_stylus7finance14vesting_wallet5tokenNtB5_6IErc20INtNtCslo5yAywcNl4_15alloy_sol_types7private12SolTypeValueB1e_E20stv_eip712_data_wordBb_
FNDA:0,_RNvXs1_NtNtNtCsa86sUp9HUqm_19openzeppelin_stylus7finance14vesting_wallet5tokenNtB5_6IErc20INtNtCslo5yAywcNl4_15alloy_sol_types7private12SolTypeValueB1e_E24stv_abi_encode_packed_toBb_
FNDA:0,_RNvXININtNtCsa86sUp9HUqm_19openzeppelin_stylus7finance14vesting_wallets1_0pENtNtB5_8sol_defs13VestingWalletINtNtCs8c3p7fi1c1U_10stylus_sdk3abi6RouterpE5routeB9_
FNDA:0,_RNvMs_NtNtCsa86sUp9HUqm_19openzeppelin_stylus7finance14vesting_walletNtNtB4_8sol_defs13VestingWallet16vesting_schedule
FNDA:0,_RNvXs0_NtNtCsa86sUp9HUqm_19openzeppelin_stylus7finance14vesting_walletNtNtB5_8sol_defs13VestingWalletNtB5_14IVestingWallet5owner
FNDA:0,_RNvXs0_NtNtCsa86sUp9HUqm_19openzeppelin_stylus7finance14vesting_walletNtNtB5_8sol_defs13VestingWalletNtB5_14IVestingWallet18transfer_ownership
FNDA:0,_RNvXs0_NtNtCsa86sUp9HUqm_19openzeppelin_stylus7finance14vesting_walletNtNtB5_8sol_defs13VestingWalletNtB5_14IVestingWallet18renounce_ownership
FNDA:0,_RNvXs0_NtNtCsa86sUp9HUqm_19openzeppelin_stylus7finance14vesting_walletNtNtB5_8sol_defs13VestingWalletNtB5_14IVestingWallet13receive_ether
FNDA:0,_RNvXs0_NtNtCsa86sUp9HUqm_19openzeppelin_stylus7finance14vesting_walletNtNtB5_8sol_defs13VestingWalletNtB5_14IVestingWallet5start
FNDA:0,_RNvXs0_NtNtCsa86sUp9HUqm_19openzeppelin_stylus7finance14vesting_walletNtNtB5_8sol_defs13VestingWalletNtB5_14IVestingWallet8duration
FNDA:0,_RNvXs0_NtNtCsa86sUp9HUqm_19openzeppelin_stylus7finance14vesting_walletNtNtB5_8sol_defs13VestingWalletNtB5_14IVestingWallet3end
FNDA:0,_RNvXs0_NtNtCsa86sUp9HUqm_19openzeppelin_stylus7finance14vesting_walletNtNtB5_8sol_defs13VestingWalletNtB5_14IVestingWallet12released_eth
FNDA:0,_RNvXs0_NtNtCsa86sUp9HUqm_19openzeppelin_stylus7finance14vesting_walletNtNtB5_8sol_defs13VestingWalletNtB5_14IVestingWallet14released_erc20
FNDA:0,_RNvXs0_NtNtCsa86sUp9HUqm_19openzeppelin_stylus7finance14vesting_walletNtNtB5_8sol_defs13VestingWalletNtB5_14IVestingWallet14releasable_eth
FNDA:0,_RNvXs0_NtNtCsa86sUp9HUqm_19openzeppelin_stylus7finance14vesting_walletNtNtB5_8sol_defs13VestingWalletNtB5_14IVestingWallet16releasable_erc20
FNDA:0,_RNvXs0_NtNtCsa86sUp9HUqm_19openzeppelin_stylus7finance14vesting_walletNtNtB5_8sol_defs13VestingWalletNtB5_14IVestingWallet11release_eth
FNDA:0,_RNvXs0_NtNtCsa86sUp9HUqm_19openzeppelin_stylus7finance14vesting_walletNtNtB5_8sol_defs13VestingWalletNtB5_14IVestingWallet13release_erc20
FNDA:0,_RNvXs0_NtNtCsa86sUp9HUqm_19openzeppelin_stylus7finance14vesting_walletNtNtB5_8sol_defs13VestingWalletNtB5_14IVestingWallet17vested_amount_eth
FNDA:0,_RNvXs0_NtNtCsa86sUp9HUqm_19openzeppelin_stylus7finance14vesting_walletNtNtB5_8sol_defs13VestingWalletNtB5_14IVestingWallet19vested_amount_erc20
FNDA:0,_RNvMs2_NtNtCsa86sUp9HUqm_19openzeppelin_stylus7finance14vesting_walletNtNtB5_8sol_defs13VestingWallet23___stylus_allow_override
FNDA:0,_RNvMs2_NtNtCsa86sUp9HUqm_19openzeppelin_stylus7finance14vesting_walletNtNtB5_8sol_defs13VestingWallet25___stylus_assert_overrides
FNDA:0,_RNvMNtNtNtCsa86sUp9HUqm_19openzeppelin_stylus7finance14vesting_wallet5tokenNtB2_6IErc203new
FNDA:0,_RNvXs_NtNtNtCsa86sUp9HUqm_19openzeppelin_stylus7finance14vesting_wallet5tokenNtB4_6IErc20NtNtNtCshuVUGNokh5j_4core3ops5deref5Deref5deref
FNDA:0,_RNvXs2_NtNtNtCsa86sUp9HUqm_19openzeppelin_stylus7finance14vesting_wallet5tokenNtB5_6IErc20NtNtNtCslo5yAywcNl4_15alloy_sol_types5types2ty7SolType11valid_token
FNDA:0,_RNvXs2_NtNtNtCsa86sUp9HUqm_19openzeppelin_stylus7finance14vesting_wallet5tokenNtB5_6IErc20NtNtNtCslo5yAywcNl4_15alloy_sol_types5types2ty7SolType10detokenize
FNDA:0,_RINvMNtNtNtCsa86sUp9HUqm_19openzeppelin_stylus7finance14vesting_wallet5tokenNtB3_6IErc2010balance_ofINtNtNtCs8c3p7fi1c1U_10stylus_sdk4call7context4CalluEEB9_
FNDA:0,_RNCNvXs0_NtNtCsa86sUp9HUqm_19openzeppelin_stylus7finance14vesting_walletNtNtB7_8sol_defs13VestingWalletNtB7_14IVestingWallet19vested_amount_erc200Bb_
FNDA:0,_RNvXs1_NtNtCsa86sUp9HUqm_19openzeppelin_stylus7finance14vesting_walletNtNtB5_8sol_defs13VestingWalletINtNtCs8c3p7fi1c1U_10stylus_sdk3abi6RouterNtCs6L1atajhRRH_22vesting_wallet_example20VestingWalletExampleE5routeB2j_
FNDA:4,_RNvNtNtNtCs6vaqcEMrLsG_19openzeppelin_stylus7finance14vesting_wallet5tests5start
FNDA:6,_RNvNtNtNtCs6vaqcEMrLsG_19openzeppelin_stylus7finance14vesting_wallet5tests4init
FNDA:1,_RNvNtNtNtCs6vaqcEMrLsG_19openzeppelin_stylus7finance14vesting_wallet5testss_11reads_start
FNDA:1,_RNvNtNtNtCs6vaqcEMrLsG_19openzeppelin_stylus7finance14vesting_wallet5testss_14reads_duration
FNDA:1,_RNvNtNtNtCs6vaqcEMrLsG_19openzeppelin_stylus7finance14vesting_wallet5testss_9reads_end
FNDA:1,_RNvNtNtNtCs6vaqcEMrLsG_19openzeppelin_stylus7finance14vesting_wallet5testss_13reads_max_end
FNDA:1,_RNvNtNtNtCs6vaqcEMrLsG_19openzeppelin_stylus7finance14vesting_wallet5testss_18reads_released_eth
FNDA:1,_RNvNtNtNtCs6vaqcEMrLsG_19openzeppelin_stylus7finance14vesting_wallet5testss_20reads_released_erc20
FNDA:1,_RNvNtNtNtCs6vaqcEMrLsG_19openzeppelin_stylus7finance14vesting_wallet5testss_21gets_vesting_schedule
FNDA:1,_RNvNtNtNtCs6vaqcEMrLsG_19openzeppelin_stylus7finance14vesting_wallet5testss_35gets_vesting_schedule_zero_duration
FNDA:7,_RNvMs_NtNtCs6vaqcEMrLsG_19openzeppelin_stylus7finance14vesting_walletNtNtB4_8sol_defs13VestingWallet16vesting_schedule
FNDA:16,_RNvXs0_NtNtCs6vaqcEMrLsG_19openzeppelin_stylus7finance14vesting_walletNtNtB5_8sol_defs13VestingWalletNtB5_14IVestingWallet5start
FNDA:9,_RNvXs0_NtNtCs6vaqcEMrLsG_19openzeppelin_stylus7finance14vesting_walletNtNtB5_8sol_defs13VestingWalletNtB5_14IVestingWallet8duration
FNDA:7,_RNvXs0_NtNtCs6vaqcEMrLsG_19openzeppelin_stylus7finance14vesting_walletNtNtB5_8sol_defs13VestingWalletNtB5_14IVestingWallet3end
FNDA:1,_RNvXs0_NtNtCs6vaqcEMrLsG_19openzeppelin_stylus7finance14vesting_walletNtNtB5_8sol_defs13VestingWalletNtB5_14IVestingWallet12released_eth
FNDA:1,_RNvXs0_NtNtCs6vaqcEMrLsG_19openzeppelin_stylus7finance14vesting_walletNtNtB5_8sol_defs13VestingWalletNtB5_14IVestingWallet14released_erc20
FNDA:0,_RNvMNtNtNtCs6vaqcEMrLsG_19openzeppelin_stylus7finance14vesting_wallet5tokenNtB2_6IErc203new
FNDA:0,_RINvMNtNtNtCs6vaqcEMrLsG_19openzeppelin_stylus7finance14vesting_wallet5tokenNtB3_6IErc2010balance_ofpEB9_
FNDA:0,_RNvXs_NtNtNtCs6vaqcEMrLsG_19openzeppelin_stylus7finance14vesting_wallet5tokenNtB4_6IErc20NtNtNtCshuVUGNokh5j_4core3ops5deref5Deref5deref
FNDA:0,_RNvXs1_NtNtNtCs6vaqcEMrLsG_19openzeppelin_stylus7finance14vesting_wallet5tokenNtB5_6IErc20INtNtCslo5yAywcNl4_15alloy_sol_types7private12SolTypeValueB1e_E13stv_to_tokensBb_
FNDA:0,_RNvXs1_NtNtNtCs6vaqcEMrLsG_19openzeppelin_stylus7finance14vesting_wallet5tokenNtB5_6IErc20INtNtCslo5yAywcNl4_15alloy_sol_types7private12SolTypeValueB1e_E20stv_abi_encoded_sizeBb_
FNDA:0,_RNvXs1_NtNtNtCs6vaqcEMrLsG_19openzeppelin_stylus7finance14vesting_wallet5tokenNtB5_6IErc20INtNtCslo5yAywcNl4_15alloy_sol_types7private12SolTypeValueB1e_E20stv_eip712_data_wordBb_
FNDA:0,_RNvXs1_NtNtNtCs6vaqcEMrLsG_19openzeppelin_stylus7finance14vesting_wallet5tokenNtB5_6IErc20INtNtCslo5yAywcNl4_15alloy_sol_types7private12SolTypeValueB1e_E24stv_abi_encode_packed_toBb_
FNDA:0,_RNvXs2_NtNtNtCs6vaqcEMrLsG_19openzeppelin_stylus7finance14vesting_wallet5tokenNtB5_6IErc20NtNtNtCslo5yAywcNl4_15alloy_sol_types5types2ty7SolType11valid_token
FNDA:0,_RNvXs2_NtNtNtCs6vaqcEMrLsG_19openzeppelin_stylus7finance14vesting_wallet5tokenNtB5_6IErc20NtNtNtCslo5yAywcNl4_15alloy_sol_types5types2ty7SolType10detokenize
FNDA:0,_RNvXs0_NtNtCs6vaqcEMrLsG_19openzeppelin_stylus7finance14vesting_walletNtNtB5_8sol_defs13VestingWalletNtB5_14IVestingWallet5owner
FNDA:0,_RNvXs0_NtNtCs6vaqcEMrLsG_19openzeppelin_stylus7finance14vesting_walletNtNtB5_8sol_defs13VestingWalletNtB5_14IVestingWallet18transfer_ownership
FNDA:0,_RNvXs0_NtNtCs6vaqcEMrLsG_19openzeppelin_stylus7finance14vesting_walletNtNtB5_8sol_defs13VestingWalletNtB5_14IVestingWallet18renounce_ownership
FNDA:0,_RNvXs0_NtNtCs6vaqcEMrLsG_19openzeppelin_stylus7finance14vesting_walletNtNtB5_8sol_defs13VestingWalletNtB5_14IVestingWallet13receive_ether
FNDA:0,_RNvXs0_NtNtCs6vaqcEMrLsG_19openzeppelin_stylus7finance14vesting_walletNtNtB5_8sol_defs13VestingWalletNtB5_14IVestingWallet14releasable_eth
FNDA:0,_RNvXs0_NtNtCs6vaqcEMrLsG_19openzeppelin_stylus7finance14vesting_walletNtNtB5_8sol_defs13VestingWalletNtB5_14IVestingWallet16releasable_erc20
FNDA:0,_RNvXs0_NtNtCs6vaqcEMrLsG_19openzeppelin_stylus7finance14vesting_walletNtNtB5_8sol_defs13VestingWalletNtB5_14IVestingWallet11release_eth
FNDA:0,_RNvXs0_NtNtCs6vaqcEMrLsG_19openzeppelin_stylus7finance14vesting_walletNtNtB5_8sol_defs13VestingWalletNtB5_14IVestingWallet13release_erc20
FNDA:0,_RNvXs0_NtNtCs6vaqcEMrLsG_19openzeppelin_stylus7finance14vesting_walletNtNtB5_8sol_defs13VestingWalletNtB5_14IVestingWallet17vested_amount_eth
FNDA:0,_RNvXs0_NtNtCs6vaqcEMrLsG_19openzeppelin_stylus7finance14vesting_walletNtNtB5_8sol_defs13VestingWalletNtB5_14IVestingWallet19vested_amount_erc20
FNDA:0,_RNCNvXs0_NtNtCs6vaqcEMrLsG_19openzeppelin_stylus7finance14vesting_walletNtNtB7_8sol_defs13VestingWalletNtB7_14IVestingWallet19vested_amount_erc200Bb_
FNDA:0,_RNvXININtNtCs6vaqcEMrLsG_19openzeppelin_stylus7finance14vesting_wallets1_0pENtNtB5_8sol_defs13VestingWalletINtNtCs8c3p7fi1c1U_10stylus_sdk3abi6RouterpE5routeB9_
FNDA:0,_RNvMs2_NtNtCs6vaqcEMrLsG_19openzeppelin_stylus7finance14vesting_walletNtNtB5_8sol_defs13VestingWallet23___stylus_allow_override
FNDA:0,_RNvMs2_NtNtCs6vaqcEMrLsG_19openzeppelin_stylus7finance14vesting_walletNtNtB5_8sol_defs13VestingWallet25___stylus_assert_overrides
FNDA:0,_RNvXs1_NtNtCsa86sUp9HUqm_19openzeppelin_stylus7finance14vesting_walletNtNtB5_8sol_defs13VestingWalletINtNtCs8c3p7fi1c1U_10stylus_sdk3abi6RouterNtCse3mhV74reBx_22vesting_wallet_example20VestingWalletExampleE5routeB2j_
FNF:30
FNH:16
DA:123,0
DA:124,0
DA:125,0
DA:126,0
DA:127,0
DA:128,0
DA:365,0
DA:369,0
DA:370,0
DA:371,0
DA:373,0
DA:374,0
DA:375,0
DA:376,0
DA:377,0
DA:378,0
DA:380,0
DA:381,0
DA:382,0
DA:385,0
DA:387,16
DA:388,16
DA:389,16
DA:391,9
DA:392,9
DA:393,9
DA:395,7
DA:396,7
DA:397,7
DA:398,7
DA:399,7
DA:402,1
DA:403,1
DA:404,1
DA:407,1
DA:408,1
DA:409,1
DA:412,0
DA:413,0
DA:414,0
DA:415,0
DA:416,0
DA:419,0
DA:420,0
DA:423,0
DA:424,0
DA:427,0
DA:428,0
DA:429,0
DA:430,0
DA:431,0
DA:432,0
DA:433,0
DA:434,0
DA:435,0
DA:436,0
DA:437,0
DA:438,0
DA:439,0
DA:441,0
DA:442,0
DA:443,0
DA:444,0
DA:447,0
DA:448,0
DA:449,0
DA:450,0
DA:451,0
DA:452,0
DA:453,0
DA:454,0
DA:455,0
DA:456,0
DA:457,0
DA:458,0
DA:460,0
DA:461,0
DA:462,0
DA:463,0
DA:466,0
DA:467,0
DA:468,0
DA:469,0
DA:470,0
DA:471,0
DA:472,0
DA:475,0
DA:476,0
DA:477,0
DA:478,0
DA:479,0
DA:480,0
DA:481,0
DA:482,0
DA:483,0
DA:485,0
DA:486,0
DA:487,0
DA:488,0
DA:489,0
DA:490,0
DA:507,7
DA:508,7
DA:509,7
DA:510,7
DA:511,2
DA:512,5
DA:513,4
DA:517,1
DA:518,1
DA:519,1
DA:520,1
DA:521,1
DA:522,1
DA:523,1
DA:524,1
DA:525,1
DA:526,1
DA:528,7
DA:541,4
DA:542,4
DA:543,4
DA:545,6
DA:546,6
DA:547,6
DA:548,6
DA:549,6
DA:550,6
DA:551,6
DA:552,6
DA:553,6
DA:554,6
DA:555,6
DA:557,1
DA:563,1
DA:569,1
DA:575,1
DA:581,1
DA:588,1
DA:595,1
DA:617,1
BRF:0
BRH:0
LF:143
LH:57
end_of_record
SF:/home/nenad/repos/rust-contracts-stylus/contracts/src/token/erc1155/extensions/burnable.rs
FN:75,_RNvXNtNtNtNtCsa86sUp9HUqm_19openzeppelin_stylus5token7erc115510extensions8burnableNtB6_7Erc1155NtB2_16IErc1155Burnable4burn
FN:85,_RNvXNtNtNtNtCsa86sUp9HUqm_19openzeppelin_stylus5token7erc115510extensions8burnableNtB6_7Erc1155NtB2_16IErc1155Burnable10burn_batch
FN:97,_RNvMs_NtNtNtNtCsa86sUp9HUqm_19openzeppelin_stylus5token7erc115510extensions8burnableNtB8_7Erc115524ensure_approved_or_owner
FN:335,_RNCNvNtNtNtNtNtCs6vaqcEMrLsG_19openzeppelin_stylus5token7erc115510extensions8burnable5testss_42error_when_insufficient_balance_burn_batch0Bd_
FN:125,_RNvNtNtNtNtNtCs6vaqcEMrLsG_19openzeppelin_stylus5token7erc115510extensions8burnable5tests4init
FN:144,_RNvNtNtNtNtNtCs6vaqcEMrLsG_19openzeppelin_stylus5token7erc115510extensions8burnable5testss_5burns
FN:160,_RNvNtNtNtNtNtCs6vaqcEMrLsG_19openzeppelin_stylus5token7erc115510extensions8burnable5testss_19burns_with_approval
FN:178,_RNvNtNtNtNtNtCs6vaqcEMrLsG_19openzeppelin_stylus5token7erc115510extensions8burnable5testss_33error_when_missing_approval_burns
FN:196,_RNvNtNtNtNtNtCs6vaqcEMrLsG_19openzeppelin_stylus5token7erc115510extensions8burnable5testss_31error_when_invalid_sender_burns
FN:220,_RNvNtNtNtNtNtCs6vaqcEMrLsG_19openzeppelin_stylus5token7erc115510extensions8burnable5testss_36error_when_insufficient_balance_burn
FN:244,_RNvNtNtNtNtNtCs6vaqcEMrLsG_19openzeppelin_stylus5token7erc115510extensions8burnable5testss_11burns_batch
FN:264,_RNvNtNtNtNtNtCs6vaqcEMrLsG_19openzeppelin_stylus5token7erc115510extensions8burnable5testss_25burns_batch_with_approval
FN:286,_RNvNtNtNtNtNtCs6vaqcEMrLsG_19openzeppelin_stylus5token7erc115510extensions8burnable5testss_38error_when_missing_approval_burn_batch
FN:304,_RNvNtNtNtNtNtCs6vaqcEMrLsG_19openzeppelin_stylus5token7erc115510extensions8burnable5testss_36error_when_invalid_sender_burn_batch
FN:330,_RNvNtNtNtNtNtCs6vaqcEMrLsG_19openzeppelin_stylus5token7erc115510extensions8burnable5testss_42error_when_insufficient_balance_burn_batch
FN:75,_RNvXNtNtNtNtCs6vaqcEMrLsG_19openzeppelin_stylus5token7erc115510extensions8burnableNtB6_7Erc1155NtB2_16IErc1155Burnable4burn
FN:85,_RNvXNtNtNtNtCs6vaqcEMrLsG_19openzeppelin_stylus5token7erc115510extensions8burnableNtB6_7Erc1155NtB2_16IErc1155Burnable10burn_batch
FN:97,_RNvMs_NtNtNtNtCs6vaqcEMrLsG_19openzeppelin_stylus5token7erc115510extensions8burnableNtB8_7Erc115524ensure_approved_or_owner
FNDA:0,_RNvXNtNtNtNtCsa86sUp9HUqm_19openzeppelin_stylus5token7erc115510extensions8burnableNtB6_7Erc1155NtB2_16IErc1155Burnable4burn
FNDA:0,_RNvXNtNtNtNtCsa86sUp9HUqm_19openzeppelin_stylus5token7erc115510extensions8burnableNtB6_7Erc1155NtB2_16IErc1155Burnable10burn_batch
FNDA:0,_RNvMs_NtNtNtNtCsa86sUp9HUqm_19openzeppelin_stylus5token7erc115510extensions8burnableNtB8_7Erc115524ensure_approved_or_owner
FNDA:5,_RNCNvNtNtNtNtNtCs6vaqcEMrLsG_19openzeppelin_stylus5token7erc115510extensions8burnable5testss_42error_when_insufficient_balance_burn_batch0Bd_
FNDA:10,_RNvNtNtNtNtNtCs6vaqcEMrLsG_19openzeppelin_stylus5token7erc115510extensions8burnable5tests4init
FNDA:1,_RNvNtNtNtNtNtCs6vaqcEMrLsG_19openzeppelin_stylus5token7erc115510extensions8burnable5testss_5burns
FNDA:1,_RNvNtNtNtNtNtCs6vaqcEMrLsG_19openzeppelin_stylus5token7erc115510extensions8burnable5testss_19burns_with_approval
FNDA:1,_RNvNtNtNtNtNtCs6vaqcEMrLsG_19openzeppelin_stylus5token7erc115510extensions8burnable5testss_33error_when_missing_approval_burns
FNDA:1,_RNvNtNtNtNtNtCs6vaqcEMrLsG_19openzeppelin_stylus5token7erc115510extensions8burnable5testss_31error_when_invalid_sender_burns
FNDA:1,_RNvNtNtNtNtNtCs6vaqcEMrLsG_19openzeppelin_stylus5token7erc115510extensions8burnable5testss_36error_when_insufficient_balance_burn
FNDA:1,_RNvNtNtNtNtNtCs6vaqcEMrLsG_19openzeppelin_stylus5token7erc115510extensions8burnable5testss_11burns_batch
FNDA:1,_RNvNtNtNtNtNtCs6vaqcEMrLsG_19openzeppelin_stylus5token7erc115510extensions8burnable5testss_25burns_batch_with_approval
FNDA:1,_RNvNtNtNtNtNtCs6vaqcEMrLsG_19openzeppelin_stylus5token7erc115510extensions8burnable5testss_38error_when_missing_approval_burn_batch
FNDA:1,_RNvNtNtNtNtNtCs6vaqcEMrLsG_19openzeppelin_stylus5token7erc115510extensions8burnable5testss_36error_when_invalid_sender_burn_batch
FNDA:1,_RNvNtNtNtNtNtCs6vaqcEMrLsG_19openzeppelin_stylus5token7erc115510extensions8burnable5testss_42error_when_insufficient_balance_burn_batch
FNDA:5,_RNvXNtNtNtNtCs6vaqcEMrLsG_19openzeppelin_stylus5token7erc115510extensions8burnableNtB6_7Erc1155NtB2_16IErc1155Burnable4burn
FNDA:5,_RNvXNtNtNtNtCs6vaqcEMrLsG_19openzeppelin_stylus5token7erc115510extensions8burnableNtB6_7Erc1155NtB2_16IErc1155Burnable10burn_batch
FNDA:10,_RNvMs_NtNtNtNtCs6vaqcEMrLsG_19openzeppelin_stylus5token7erc115510extensions8burnableNtB8_7Erc115524ensure_approved_or_owner
FNF:15
FNH:15
DA:75,5
DA:76,5
DA:77,5
DA:78,5
DA:79,5
DA:80,5
DA:81,5
DA:82,4
DA:83,5
DA:85,5
DA:86,5
DA:87,5
DA:88,5
DA:89,5
DA:90,5
DA:91,5
DA:92,4
DA:93,5
DA:97,10
DA:98,10
DA:99,10
DA:100,2
DA:101,2
DA:102,2
DA:103,2
DA:104,2
DA:105,2
DA:106,8
DA:107,8
DA:108,10
DA:125,10
DA:126,10
DA:127,10
DA:128,10
DA:129,10
DA:130,10
DA:131,10
DA:132,10
DA:133,10
DA:134,10
DA:135,10
DA:136,10
DA:137,10
DA:138,10
DA:139,10
DA:140,10
DA:141,10
DA:142,10
DA:144,1
DA:160,1
DA:178,1
DA:196,1
DA:220,1
DA:244,1
DA:264,1
DA:286,1
DA:304,1
DA:330,1
DA:335,5
BRF:0
BRH:0
LF:59
LH:59
end_of_record
SF:/home/nenad/repos/rust-contracts-stylus/contracts/src/token/erc1155/mod.rs
FN:150,_RNvXst_NtNtCsa86sUp9HUqm_19openzeppelin_stylus5token7erc1155INtNtCsdDMkpvQxPWz_5alloc3vec3VechEINtNtCshuVUGNokh5j_4core7convert4FromNtB5_5ErrorE4from
FN:1064,_RINvMs2_NtNtCsa86sUp9HUqm_19openzeppelin_stylus5token7erc1155NtB6_7Erc115527require_equal_arrays_lengthINtCs1K7JgRVbVtq_5ruint4UintKj100_Kj4_EB1D_EBa_
FN:1064,_RINvMs2_NtNtCsa86sUp9HUqm_19openzeppelin_stylus5token7erc1155NtB6_7Erc115527require_equal_arrays_lengthINtCs1K7JgRVbVtq_5ruint4UintKj100_Kj4_ENtNtNtCs9yoxqfta9I2_16alloy_primitives4bits7address7AddressEBa_
FN:405,_RNCNvXsx_NtNtCsa86sUp9HUqm_19openzeppelin_stylus5token7erc1155NtB7_7Erc1155NtB7_8IErc115516balance_of_batch0Bb_
FN:74,_RNvXs_NvNtNtCsa86sUp9HUqm_19openzeppelin_stylus5token7erc11551__NtNtCs9yoxqfta9I2_16alloy_primitives3log7LogDataINtNtCshuVUGNokh5j_4core7convert4FromRNtB6_14TransferSingleE4fromBa_
FN:43,_RNCNvXs_NvNtNtCsa86sUp9HUqm_19openzeppelin_stylus5token7erc11551__NtNtCs9yoxqfta9I2_16alloy_primitives3log7LogDataINtNtCshuVUGNokh5j_4core7convert4FromRNtB8_14TransferSingleE4from0Bc_
FN:74,_RNvXs_NvNtNtCsa86sUp9HUqm_19openzeppelin_stylus5token7erc1155s_1__NtNtCs9yoxqfta9I2_16alloy_primitives3log7LogDataINtNtCshuVUGNokh5j_4core7convert4FromRNtB6_13TransferBatchE4fromBa_
FN:43,_RNCNvXs_NvNtNtCsa86sUp9HUqm_19openzeppelin_stylus5token7erc1155s_1__NtNtCs9yoxqfta9I2_16alloy_primitives3log7LogDataINtNtCshuVUGNokh5j_4core7convert4FromRNtB8_13TransferBatchE4from0Bc_
FN:74,_RNvXs_NvNtNtCsa86sUp9HUqm_19openzeppelin_stylus5token7erc1155s0_1__NtNtCs9yoxqfta9I2_16alloy_primitives3log7LogDataINtNtCshuVUGNokh5j_4core7convert4FromRNtB6_14ApprovalForAllE4fromBa_
FN:43,_RNCNvXs_NvNtNtCsa86sUp9HUqm_19openzeppelin_stylus5token7erc1155s0_1__NtNtCs9yoxqfta9I2_16alloy_primitives3log7LogDataINtNtCshuVUGNokh5j_4core7convert4FromRNtB8_14ApprovalForAllE4from0Bc_
FN:387,_RNvXININtNtCsa86sUp9HUqm_19openzeppelin_stylus5token7erc1155sy_0pENtB5_7Erc1155INtNtCs8c3p7fi1c1U_10stylus_sdk3abi6RouterpE5routeB9_
FN:177,_RNvXNtNtCsa86sUp9HUqm_19openzeppelin_stylus5token7erc1155NtB2_5ErrorNtNtNtCs8c3p7fi1c1U_10stylus_sdk4call5error11MethodError6encode
FN:449,_RNvXs0_NtNtCsa86sUp9HUqm_19openzeppelin_stylus5token7erc1155NtB5_7Erc1155NtNtNtNtB9_5utils13introspection6erc1657IErc16518supports_interface
FN:486,_RNvMs1_NtNtCsa86sUp9HUqm_19openzeppelin_stylus5token7erc1155NtB5_7Erc11557__update
FN:549,_RNvMs1_NtNtCsa86sUp9HUqm_19openzeppelin_stylus5token7erc1155NtB5_7Erc115529__update_with_acceptance_check
FN:599,_RNvMs1_NtNtCsa86sUp9HUqm_19openzeppelin_stylus5token7erc1155NtB5_7Erc11555__mint
FN:641,_RNvMs1_NtNtCsa86sUp9HUqm_19openzeppelin_stylus5token7erc1155NtB5_7Erc115511__mint_batch
FN:674,_RNvMs1_NtNtCsa86sUp9HUqm_19openzeppelin_stylus5token7erc1155NtB5_7Erc11555__burn
FN:710,_RNvMs1_NtNtCsa86sUp9HUqm_19openzeppelin_stylus5token7erc1155NtB5_7Erc115511__burn_batch
FN:738,_RNvMs1_NtNtCsa86sUp9HUqm_19openzeppelin_stylus5token7erc1155NtB5_7Erc115521__set_approval_for_all
FN:788,_RNvMs2_NtNtCsa86sUp9HUqm_19openzeppelin_stylus5token7erc1155NtB5_7Erc115526__check_on_erc1155_received
FN:870,_RNvMs2_NtNtCsa86sUp9HUqm_19openzeppelin_stylus5token7erc1155NtB5_7Erc11558__do_mint
FN:919,_RNvMs2_NtNtCsa86sUp9HUqm_19openzeppelin_stylus5token7erc1155NtB5_7Erc11558__do_burn
FN:977,_RNvMs2_NtNtCsa86sUp9HUqm_19openzeppelin_stylus5token7erc1155NtB5_7Erc115521do_safe_transfer_from
FN:1017,_RNvMs2_NtNtCsa86sUp9HUqm_19openzeppelin_stylus5token7erc1155NtB5_7Erc11559do_update
FN:1089,_RNvMs2_NtNtCsa86sUp9HUqm_19openzeppelin_stylus5token7erc1155NtB5_7Erc115518authorize_transfer
FN:1125,_RNvMs3_NtNtCsa86sUp9HUqm_19openzeppelin_stylus5token7erc1155NtB5_19Erc1155ReceiverData3new
FN:1140,_RNvMs3_NtNtCsa86sUp9HUqm_19openzeppelin_stylus5token7erc1155NtB5_19Erc1155ReceiverData6single
FN:1154,_RNvMs3_NtNtCsa86sUp9HUqm_19openzeppelin_stylus5token7erc1155NtB5_19Erc1155ReceiverData5batch
FN:150,_RNvXsl_NtNtCsa86sUp9HUqm_19openzeppelin_stylus5token7erc1155NtB5_5ErrorINtNtCshuVUGNokh5j_4core7convert4FromNtB5_26ERC1155InsufficientBalanceE4from
FN:150,_RNvXsm_NtNtCsa86sUp9HUqm_19openzeppelin_stylus5token7erc1155NtB5_5ErrorINtNtCshuVUGNokh5j_4core7convert4FromNtB5_20ERC1155InvalidSenderE4from
FN:150,_RNvXsn_NtNtCsa86sUp9HUqm_19openzeppelin_stylus5token7erc1155NtB5_5ErrorINtNtCshuVUGNokh5j_4core7convert4FromNtB5_22ERC1155InvalidReceiverE4from
FN:150,_RNvXso_NtNtCsa86sUp9HUqm_19openzeppelin_stylus5token7erc1155NtB5_5ErrorINtNtCshuVUGNokh5j_4core7convert4FromNtNtNtCs8c3p7fi1c1U_10stylus_sdk4call5error5ErrorE4from
FN:150,_RNvXsp_NtNtCsa86sUp9HUqm_19openzeppelin_stylus5token7erc1155NtB5_5ErrorINtNtCshuVUGNokh5j_4core7convert4FromNtB5_28ERC1155MissingApprovalForAllE4from
FN:150,_RNvXsq_NtNtCsa86sUp9HUqm_19openzeppelin_stylus5token7erc1155NtB5_5ErrorINtNtCshuVUGNokh5j_4core7convert4FromNtB5_22ERC1155InvalidApproverE4from
FN:150,_RNvXsr_NtNtCsa86sUp9HUqm_19openzeppelin_stylus5token7erc1155NtB5_5ErrorINtNtCshuVUGNokh5j_4core7convert4FromNtB5_22ERC1155InvalidOperatorE4from
FN:150,_RNvXss_NtNtCsa86sUp9HUqm_19openzeppelin_stylus5token7erc1155NtB5_5ErrorINtNtCshuVUGNokh5j_4core7convert4FromNtB5_25ERC1155InvalidArrayLengthE4from
FN:190,_RNvMsv_NtNtCsa86sUp9HUqm_19openzeppelin_stylus5token7erc1155NtB5_7Erc115514required_slots
FN:190,_RNvXsw_NtNtCsa86sUp9HUqm_19openzeppelin_stylus5token7erc1155NtB5_7Erc1155NtNtNtCs8c3p7fi1c1U_10stylus_sdk7storage6traits11StorageType3new
FN:182,_RNvXsw_NtNtCsa86sUp9HUqm_19openzeppelin_stylus5token7erc1155NtB5_7Erc1155NtNtNtCs8c3p7fi1c1U_10stylus_sdk7storage6traits11StorageType4load
FN:182,_RNvXsw_NtNtCsa86sUp9HUqm_19openzeppelin_stylus5token7erc1155NtB5_7Erc1155NtNtNtCs8c3p7fi1c1U_10stylus_sdk7storage6traits11StorageType8load_mut
FN:391,_RNvXsx_NtNtCsa86sUp9HUqm_19openzeppelin_stylus5token7erc1155NtB5_7Erc1155NtB5_8IErc115510balance_of
FN:395,_RNvXsx_NtNtCsa86sUp9HUqm_19openzeppelin_stylus5token7erc1155NtB5_7Erc1155NtB5_8IErc115516balance_of_batch
FN:411,_RNvXsx_NtNtCsa86sUp9HUqm_19openzeppelin_stylus5token7erc1155NtB5_7Erc1155NtB5_8IErc115520set_approval_for_all
FN:419,_RNvXsx_NtNtCsa86sUp9HUqm_19openzeppelin_stylus5token7erc1155NtB5_7Erc1155NtB5_8IErc115519is_approved_for_all
FN:423,_RNvXsx_NtNtCsa86sUp9HUqm_19openzeppelin_stylus5token7erc1155NtB5_7Erc1155NtB5_8IErc115518safe_transfer_from
FN:435,_RNvXsx_NtNtCsa86sUp9HUqm_19openzeppelin_stylus5token7erc1155NtB5_7Erc1155NtB5_8IErc115524safe_batch_transfer_from
FN:387,_RNvMsz_NtNtCsa86sUp9HUqm_19openzeppelin_stylus5token7erc1155NtB5_7Erc115523___stylus_allow_override
FN:387,_RNvMsz_NtNtCsa86sUp9HUqm_19openzeppelin_stylus5token7erc1155NtB5_7Erc115525___stylus_assert_overrides
FN:387,_RNvXsy_NtNtCsa86sUp9HUqm_19openzeppelin_stylus5token7erc1155NtB5_7Erc1155INtNtCs8c3p7fi1c1U_10stylus_sdk3abi6RouterNtCsjXwB3iNudGh_15erc1155_example14Erc1155ExampleE5routeB1R_
FN:387,_RNvXsy_NtNtCsa86sUp9HUqm_19openzeppelin_stylus5token7erc1155NtB5_7Erc1155INtNtCs8c3p7fi1c1U_10stylus_sdk3abi6RouterNtCsbkWQg3gVxSP_15erc1155_example14Erc1155ExampleE5routeB1R_
FN:74,_RNvXs_NvNtNtCs6vaqcEMrLsG_19openzeppelin_stylus5token7erc11551__NtNtCs9yoxqfta9I2_16alloy_primitives3log7LogDataINtNtCshuVUGNokh5j_4core7convert4FromRNtB6_14TransferSingleE4fromBa_
FN:43,_RNCNvXs_NvNtNtCs6vaqcEMrLsG_19openzeppelin_stylus5token7erc11551__NtNtCs9yoxqfta9I2_16alloy_primitives3log7LogDataINtNtCshuVUGNokh5j_4core7convert4FromRNtB8_14TransferSingleE4from0Bc_
FN:74,_RNvXs_NvNtNtCs6vaqcEMrLsG_19openzeppelin_stylus5token7erc1155s_1__NtNtCs9yoxqfta9I2_16alloy_primitives3log7LogDataINtNtCshuVUGNokh5j_4core7convert4FromRNtB6_13TransferBatchE4fromBa_
FN:43,_RNCNvXs_NvNtNtCs6vaqcEMrLsG_19openzeppelin_stylus5token7erc1155s_1__NtNtCs9yoxqfta9I2_16alloy_primitives3log7LogDataINtNtCshuVUGNokh5j_4core7convert4FromRNtB8_13TransferBatchE4from0Bc_
FN:74,_RNvXs_NvNtNtCs6vaqcEMrLsG_19openzeppelin_stylus5token7erc1155s0_1__NtNtCs9yoxqfta9I2_16alloy_primitives3log7LogDataINtNtCshuVUGNokh5j_4core7convert4FromRNtB6_14ApprovalForAllE4fromBa_
FN:43,_RNCNvXs_NvNtNtCs6vaqcEMrLsG_19openzeppelin_stylus5token7erc1155s0_1__NtNtCs9yoxqfta9I2_16alloy_primitives3log7LogDataINtNtCshuVUGNokh5j_4core7convert4FromRNtB8_14ApprovalForAllE4from0Bc_
FN:76,_RNvNvNtNtCs6vaqcEMrLsG_19openzeppelin_stylus5token7erc1155s1_1__15__type_assertion
FN:76,_RNvNvNtNtCs6vaqcEMrLsG_19openzeppelin_stylus5token7erc1155s2_1__15__type_assertion
FN:76,_RNvNvNtNtCs6vaqcEMrLsG_19openzeppelin_stylus5token7erc1155s3_1__15__type_assertion
FN:76,_RNvNvNtNtCs6vaqcEMrLsG_19openzeppelin_stylus5token7erc1155s4_1__15__type_assertion
FN:76,_RNvNvNtNtCs6vaqcEMrLsG_19openzeppelin_stylus5token7erc1155s5_1__15__type_assertion
FN:76,_RNvNvNtNtCs6vaqcEMrLsG_19openzeppelin_stylus5token7erc1155s6_1__15__type_assertion
FN:76,_RNvNvNtNtCs6vaqcEMrLsG_19openzeppelin_stylus5token7erc1155s7_1__15__type_assertion
FN:150,_RNvXsl_NtNtCs6vaqcEMrLsG_19openzeppelin_stylus5token7erc1155NtB5_5ErrorINtNtCshuVUGNokh5j_4core7convert4FromNtB5_26ERC1155InsufficientBalanceE4from
FN:150,_RNvXsm_NtNtCs6vaqcEMrLsG_19openzeppelin_stylus5token7erc1155NtB5_5ErrorINtNtCshuVUGNokh5j_4core7convert4FromNtB5_20ERC1155InvalidSenderE4from
FN:150,_RNvXso_NtNtCs6vaqcEMrLsG_19openzeppelin_stylus5token7erc1155NtB5_5ErrorINtNtCshuVUGNokh5j_4core7convert4FromNtNtNtCs8c3p7fi1c1U_10stylus_sdk4call5error5ErrorE4from
FN:150,_RNvXsp_NtNtCs6vaqcEMrLsG_19openzeppelin_stylus5token7erc1155NtB5_5ErrorINtNtCshuVUGNokh5j_4core7convert4FromNtB5_28ERC1155MissingApprovalForAllE4from
FN:150,_RNvXsq_NtNtCs6vaqcEMrLsG_19openzeppelin_stylus5token7erc1155NtB5_5ErrorINtNtCshuVUGNokh5j_4core7convert4FromNtB5_22ERC1155InvalidApproverE4from
FN:150,_RNvXsr_NtNtCs6vaqcEMrLsG_19openzeppelin_stylus5token7erc1155NtB5_5ErrorINtNtCshuVUGNokh5j_4core7convert4FromNtB5_22ERC1155InvalidOperatorE4from
FN:150,_RNvXss_NtNtCs6vaqcEMrLsG_19openzeppelin_stylus5token7erc1155NtB5_5ErrorINtNtCshuVUGNokh5j_4core7convert4FromNtB5_25ERC1155InvalidArrayLengthE4from
FN:150,_RNvXst_NtNtCs6vaqcEMrLsG_19openzeppelin_stylus5token7erc1155INtNtCsdDMkpvQxPWz_5alloc3vec3VechEINtNtCshuVUGNokh5j_4core7convert4FromNtB5_5ErrorE4from
FN:177,_RNvXNtNtCs6vaqcEMrLsG_19openzeppelin_stylus5token7erc1155NtB2_5ErrorNtNtNtCs8c3p7fi1c1U_10stylus_sdk4call5error11MethodError6encode
FN:190,_RNvMsv_NtNtCs6vaqcEMrLsG_19openzeppelin_stylus5token7erc1155NtB5_7Erc115514required_slots
FN:182,_RNvXsw_NtNtCs6vaqcEMrLsG_19openzeppelin_stylus5token7erc1155NtB5_7Erc1155NtNtNtCs8c3p7fi1c1U_10stylus_sdk7storage6traits11StorageType4load
FN:182,_RNvXsw_NtNtCs6vaqcEMrLsG_19openzeppelin_stylus5token7erc1155NtB5_7Erc1155NtNtNtCs8c3p7fi1c1U_10stylus_sdk7storage6traits11StorageType8load_mut
FN:387,_RNvXININtNtCs6vaqcEMrLsG_19openzeppelin_stylus5token7erc1155sy_0pENtB5_7Erc1155INtNtCs8c3p7fi1c1U_10stylus_sdk3abi6RouterpE5routeB9_
FN:387,_RNvMsz_NtNtCs6vaqcEMrLsG_19openzeppelin_stylus5token7erc1155NtB5_7Erc115523___stylus_allow_override
FN:387,_RNvMsz_NtNtCs6vaqcEMrLsG_19openzeppelin_stylus5token7erc1155NtB5_7Erc115525___stylus_assert_overrides
FN:449,_RNvXs0_NtNtCs6vaqcEMrLsG_19openzeppelin_stylus5token7erc1155NtB5_7Erc1155NtNtNtNtB9_5utils13introspection6erc1657IErc16518supports_interface
FN:1369,_RNCNvNtNtNtCs6vaqcEMrLsG_19openzeppelin_stylus5token7erc11555testss_11mints_batch0B9_
FN:1560,_RNCNvNtNtNtCs6vaqcEMrLsG_19openzeppelin_stylus5token7erc11555testss_48error_when_batch_burns_with_insufficient_balance0B9_
FN:1064,_RINvMs2_NtNtCs6vaqcEMrLsG_19openzeppelin_stylus5token7erc1155NtB6_7Erc115527require_equal_arrays_lengthINtCs1K7JgRVbVtq_5ruint4UintKj100_Kj4_EB1D_EBa_
FN:1064,_RINvMs2_NtNtCs6vaqcEMrLsG_19openzeppelin_stylus5token7erc1155NtB6_7Erc115527require_equal_arrays_lengthINtCs1K7JgRVbVtq_5ruint4UintKj100_Kj4_ENtNtNtCs9yoxqfta9I2_16alloy_primitives4bits7address7AddressEBa_
FN:405,_RNCNvXsx_NtNtCs6vaqcEMrLsG_19openzeppelin_stylus5token7erc1155NtB7_7Erc1155NtB7_8IErc115516balance_of_batch0Bb_
FN:1201,_RNvNtNtNtCs6vaqcEMrLsG_19openzeppelin_stylus5token7erc11555tests16random_token_ids
FN:1205,_RNvNtNtNtCs6vaqcEMrLsG_19openzeppelin_stylus5token7erc11555tests13random_values
FN:1209,_RNvNtNtNtCs6vaqcEMrLsG_19openzeppelin_stylus5token7erc11555tests4init
FN:1228,_RNvNtNtNtCs6vaqcEMrLsG_19openzeppelin_stylus5token7erc11555tests6append
FN:1233,_RNvNtNtNtCs6vaqcEMrLsG_19openzeppelin_stylus5token7erc11555testss_29should_create_transfer_single
FN:1242,_RNvNtNtNtCs6vaqcEMrLsG_19openzeppelin_stylus5token7erc11555testss_28should_create_transfer_batch
FN:1250,_RNvNtNtNtCs6vaqcEMrLsG_19openzeppelin_stylus5token7erc11555testss_23balance_of_zero_balance
FN:1258,_RNvNtNtNtCs6vaqcEMrLsG_19openzeppelin_stylus5token7erc11555testss_32error_when_array_length_mismatch
FN:1278,_RNvNtNtNtCs6vaqcEMrLsG_19openzeppelin_stylus5token7erc11555testss_29balance_of_batch_zero_balance
FN:1290,_RNvNtNtNtCs6vaqcEMrLsG_19openzeppelin_stylus5token7erc11555testss_20set_approval_for_all
FN:1306,_RNvNtNtNtCs6vaqcEMrLsG_19openzeppelin_stylus5token7erc11555testss_48error_when_invalid_operator_set_approval_for_all
FN:1322,_RNvNtNtNtCs6vaqcEMrLsG_19openzeppelin_stylus5token7erc11555testss_5mints
FN:1337,_RNvNtNtNtCs6vaqcEMrLsG_19openzeppelin_stylus5token7erc11555testss_36error_when_mints_to_invalid_receiver
FN:1355,_RNvNtNtNtCs6vaqcEMrLsG_19openzeppelin_stylus5token7erc11555testss_11mints_batch
FN:1380,_RNvNtNtNtCs6vaqcEMrLsG_19openzeppelin_stylus5token7erc11555testss_22mints_batch_same_token
FN:1404,_RNvNtNtNtCs6vaqcEMrLsG_19openzeppelin_stylus5token7erc11555testss_42error_when_batch_mints_to_invalid_receiver
FN:1427,_RNvNtNtNtCs6vaqcEMrLsG_19openzeppelin_stylus5token7erc11555testss_39error_when_batch_mints_not_equal_arrays
FN:1446,_RNvNtNtNtCs6vaqcEMrLsG_19openzeppelin_stylus5token7erc11555testss_5burns
FN:1459,_RNvNtNtNtCs6vaqcEMrLsG_19openzeppelin_stylus5token7erc11555testss_36error_when_burns_from_invalid_sender
FN:1476,_RNvNtNtNtCs6vaqcEMrLsG_19openzeppelin_stylus5token7erc11555testss_42error_when_burns_with_insufficient_balance
FN:1495,_RNvNtNtNtCs6vaqcEMrLsG_19openzeppelin_stylus5token7erc11555testss_11burns_batch
FN:1510,_RNvNtNtNtCs6vaqcEMrLsG_19openzeppelin_stylus5token7erc11555testss_22burns_batch_same_token
FN:1535,_RNvNtNtNtCs6vaqcEMrLsG_19openzeppelin_stylus5token7erc11555testss_42error_when_batch_burns_from_invalid_sender
FN:1552,_RNvNtNtNtCs6vaqcEMrLsG_19openzeppelin_stylus5token7erc11555testss_48error_when_batch_burns_with_insufficient_balance
FN:1577,_RNvNtNtNtCs6vaqcEMrLsG_19openzeppelin_stylus5token7erc11555testss_39error_when_batch_burns_not_equal_arrays
FN:1595,_RNvNtNtNtCs6vaqcEMrLsG_19openzeppelin_stylus5token7erc11555testss_18safe_transfer_from
FN:1630,_RNvNtNtNtCs6vaqcEMrLsG_19openzeppelin_stylus5token7erc11555testss_46error_when_invalid_receiver_safe_transfer_from
FN:1654,_RNvNtNtNtCs6vaqcEMrLsG_19openzeppelin_stylus5token7erc11555testss_44error_when_invalid_sender_safe_transfer_from
FN:1684,_RNvNtNtNtCs6vaqcEMrLsG_19openzeppelin_stylus5token7erc11555testss_46error_when_missing_approval_safe_transfer_from
FN:1707,_RNvNtNtNtCs6vaqcEMrLsG_19openzeppelin_stylus5token7erc11555testss_50error_when_insufficient_balance_safe_transfer_from
FN:1735,_RNvNtNtNtCs6vaqcEMrLsG_19openzeppelin_stylus5token7erc11555testss_28safe_transfer_from_with_data
FN:1757,_RNvNtNtNtCs6vaqcEMrLsG_19openzeppelin_stylus5token7erc11555testss_56error_when_invalid_receiver_safe_transfer_from_with_data
FN:1782,_RNvNtNtNtCs6vaqcEMrLsG_19openzeppelin_stylus5token7erc11555testss_54error_when_invalid_sender_safe_transfer_from_with_data
FN:1814,_RNvNtNtNtCs6vaqcEMrLsG_19openzeppelin_stylus5token7erc11555testss_56error_when_missing_approval_safe_transfer_from_with_data
FN:1839,_RNvNtNtNtCs6vaqcEMrLsG_19openzeppelin_stylus5token7erc11555testss_60error_when_insufficient_balance_safe_transfer_from_with_data
FN:1869,_RNvNtNtNtCs6vaqcEMrLsG_19openzeppelin_stylus5token7erc11555testss_24safe_batch_transfer_from
FN:1895,_RNvNtNtNtCs6vaqcEMrLsG_19openzeppelin_stylus5token7erc11555testss_52error_when_invalid_receiver_safe_batch_transfer_from
FN:1919,_RNvNtNtNtCs6vaqcEMrLsG_19openzeppelin_stylus5token7erc11555testss_50error_when_invalid_sender_safe_batch_transfer_from
FN:1949,_RNvNtNtNtCs6vaqcEMrLsG_19openzeppelin_stylus5token7erc11555testss_52error_when_missing_approval_safe_batch_transfer_from
FN:1972,_RNvNtNtNtCs6vaqcEMrLsG_19openzeppelin_stylus5token7erc11555testss_56error_when_insufficient_balance_safe_batch_transfer_from
FN:2002,_RNvNtNtNtCs6vaqcEMrLsG_19openzeppelin_stylus5token7erc11555testss_52error_when_not_equal_arrays_safe_batch_transfer_from
FN:2029,_RNvNtNtNtCs6vaqcEMrLsG_19openzeppelin_stylus5token7erc11555testss_34safe_batch_transfer_from_with_data
FN:2053,_RNvNtNtNtCs6vaqcEMrLsG_19openzeppelin_stylus5token7erc11555testss_62error_when_invalid_receiver_safe_batch_transfer_from_with_data
FN:2079,_RNvNtNtNtCs6vaqcEMrLsG_19openzeppelin_stylus5token7erc11555testss_60error_when_invalid_sender_safe_batch_transfer_from_with_data
FN:2111,_RNvNtNtNtCs6vaqcEMrLsG_19openzeppelin_stylus5token7erc11555testss_62error_when_missing_approval_safe_batch_transfer_from_with_data
FN:2136,_RNvNtNtNtCs6vaqcEMrLsG_19openzeppelin_stylus5token7erc11555testss_66error_when_insufficient_balance_safe_batch_transfer_from_with_data
FN:2166,_RNvNtNtNtCs6vaqcEMrLsG_19openzeppelin_stylus5token7erc11555testss_62error_when_not_equal_arrays_safe_batch_transfer_from_with_data
FN:2195,_RNvNtNtNtCs6vaqcEMrLsG_19openzeppelin_stylus5token7erc11555testss_12interface_id
FN:486,_RNvMs1_NtNtCs6vaqcEMrLsG_19openzeppelin_stylus5token7erc1155NtB5_7Erc11557__update
FN:549,_RNvMs1_NtNtCs6vaqcEMrLsG_19openzeppelin_stylus5token7erc1155NtB5_7Erc115529__update_with_acceptance_check
FN:599,_RNvMs1_NtNtCs6vaqcEMrLsG_19openzeppelin_stylus5token7erc1155NtB5_7Erc11555__mint
FN:641,_RNvMs1_NtNtCs6vaqcEMrLsG_19openzeppelin_stylus5token7erc1155NtB5_7Erc115511__mint_batch
FN:674,_RNvMs1_NtNtCs6vaqcEMrLsG_19openzeppelin_stylus5token7erc1155NtB5_7Erc11555__burn
FN:710,_RNvMs1_NtNtCs6vaqcEMrLsG_19openzeppelin_stylus5token7erc1155NtB5_7Erc115511__burn_batch
FN:738,_RNvMs1_NtNtCs6vaqcEMrLsG_19openzeppelin_stylus5token7erc1155NtB5_7Erc115521__set_approval_for_all
FN:788,_RNvMs2_NtNtCs6vaqcEMrLsG_19openzeppelin_stylus5token7erc1155NtB5_7Erc115526__check_on_erc1155_received
FN:870,_RNvMs2_NtNtCs6vaqcEMrLsG_19openzeppelin_stylus5token7erc1155NtB5_7Erc11558__do_mint
FN:919,_RNvMs2_NtNtCs6vaqcEMrLsG_19openzeppelin_stylus5token7erc1155NtB5_7Erc11558__do_burn
FN:977,_RNvMs2_NtNtCs6vaqcEMrLsG_19openzeppelin_stylus5token7erc1155NtB5_7Erc115521do_safe_transfer_from
FN:1017,_RNvMs2_NtNtCs6vaqcEMrLsG_19openzeppelin_stylus5token7erc1155NtB5_7Erc11559do_update
FN:1089,_RNvMs2_NtNtCs6vaqcEMrLsG_19openzeppelin_stylus5token7erc1155NtB5_7Erc115518authorize_transfer
FN:1125,_RNvMs3_NtNtCs6vaqcEMrLsG_19openzeppelin_stylus5token7erc1155NtB5_19Erc1155ReceiverData3new
FN:1140,_RNvMs3_NtNtCs6vaqcEMrLsG_19openzeppelin_stylus5token7erc1155NtB5_19Erc1155ReceiverData6single
FN:1154,_RNvMs3_NtNtCs6vaqcEMrLsG_19openzeppelin_stylus5token7erc1155NtB5_19Erc1155ReceiverData5batch
FN:150,_RNvXsn_NtNtCs6vaqcEMrLsG_19openzeppelin_stylus5token7erc1155NtB5_5ErrorINtNtCshuVUGNokh5j_4core7convert4FromNtB5_22ERC1155InvalidReceiverE4from
FN:190,_RNvXsw_NtNtCs6vaqcEMrLsG_19openzeppelin_stylus5token7erc1155NtB5_7Erc1155NtNtNtCs8c3p7fi1c1U_10stylus_sdk7storage6traits11StorageType3new
FN:391,_RNvXsx_NtNtCs6vaqcEMrLsG_19openzeppelin_stylus5token7erc1155NtB5_7Erc1155NtB5_8IErc115510balance_of
FN:395,_RNvXsx_NtNtCs6vaqcEMrLsG_19openzeppelin_stylus5token7erc1155NtB5_7Erc1155NtB5_8IErc115516balance_of_batch
FN:411,_RNvXsx_NtNtCs6vaqcEMrLsG_19openzeppelin_stylus5token7erc1155NtB5_7Erc1155NtB5_8IErc115520set_approval_for_all
FN:419,_RNvXsx_NtNtCs6vaqcEMrLsG_19openzeppelin_stylus5token7erc1155NtB5_7Erc1155NtB5_8IErc115519is_approved_for_all
FN:423,_RNvXsx_NtNtCs6vaqcEMrLsG_19openzeppelin_stylus5token7erc1155NtB5_7Erc1155NtB5_8IErc115518safe_transfer_from
FN:435,_RNvXsx_NtNtCs6vaqcEMrLsG_19openzeppelin_stylus5token7erc1155NtB5_7Erc1155NtB5_8IErc115524safe_batch_transfer_from
FNDA:0,_RNvXst_NtNtCsa86sUp9HUqm_19openzeppelin_stylus5token7erc1155INtNtCsdDMkpvQxPWz_5alloc3vec3VechEINtNtCshuVUGNokh5j_4core7convert4FromNtB5_5ErrorE4from
FNDA:0,_RINvMs2_NtNtCsa86sUp9HUqm_19openzeppelin_stylus5token7erc1155NtB6_7Erc115527require_equal_arrays_lengthINtCs1K7JgRVbVtq_5ruint4UintKj100_Kj4_EB1D_EBa_
FNDA:0,_RINvMs2_NtNtCsa86sUp9HUqm_19openzeppelin_stylus5token7erc1155NtB6_7Erc115527require_equal_arrays_lengthINtCs1K7JgRVbVtq_5ruint4UintKj100_Kj4_ENtNtNtCs9yoxqfta9I2_16alloy_primitives4bits7address7AddressEBa_
FNDA:0,_RNCNvXsx_NtNtCsa86sUp9HUqm_19openzeppelin_stylus5token7erc1155NtB7_7Erc1155NtB7_8IErc115516balance_of_batch0Bb_
FNDA:0,_RNvXs_NvNtNtCsa86sUp9HUqm_19openzeppelin_stylus5token7erc11551__NtNtCs9yoxqfta9I2_16alloy_primitives3log7LogDataINtNtCshuVUGNokh5j_4core7convert4FromRNtB6_14TransferSingleE4fromBa_
FNDA:0,_RNCNvXs_NvNtNtCsa86sUp9HUqm_19openzeppelin_stylus5token7erc11551__NtNtCs9yoxqfta9I2_16alloy_primitives3log7LogDataINtNtCshuVUGNokh5j_4core7convert4FromRNtB8_14TransferSingleE4from0Bc_
FNDA:0,_RNvXs_NvNtNtCsa86sUp9HUqm_19openzeppelin_stylus5token7erc1155s_1__NtNtCs9yoxqfta9I2_16alloy_primitives3log7LogDataINtNtCshuVUGNokh5j_4core7convert4FromRNtB6_13TransferBatchE4fromBa_
FNDA:0,_RNCNvXs_NvNtNtCsa86sUp9HUqm_19openzeppelin_stylus5token7erc1155s_1__NtNtCs9yoxqfta9I2_16alloy_primitives3log7LogDataINtNtCshuVUGNokh5j_4core7convert4FromRNtB8_13TransferBatchE4from0Bc_
FNDA:0,_RNvXs_NvNtNtCsa86sUp9HUqm_19openzeppelin_stylus5token7erc1155s0_1__NtNtCs9yoxqfta9I2_16alloy_primitives3log7LogDataINtNtCshuVUGNokh5j_4core7convert4FromRNtB6_14ApprovalForAllE4fromBa_
FNDA:0,_RNCNvXs_NvNtNtCsa86sUp9HUqm_19openzeppelin_stylus5token7erc1155s0_1__NtNtCs9yoxqfta9I2_16alloy_primitives3log7LogDataINtNtCshuVUGNokh5j_4core7convert4FromRNtB8_14ApprovalForAllE4from0Bc_
FNDA:0,_RNvXININtNtCsa86sUp9HUqm_19openzeppelin_stylus5token7erc1155sy_0pENtB5_7Erc1155INtNtCs8c3p7fi1c1U_10stylus_sdk3abi6RouterpE5routeB9_
FNDA:0,_RNvXNtNtCsa86sUp9HUqm_19openzeppelin_stylus5token7erc1155NtB2_5ErrorNtNtNtCs8c3p7fi1c1U_10stylus_sdk4call5error11MethodError6encode
FNDA:0,_RNvXs0_NtNtCsa86sUp9HUqm_19openzeppelin_stylus5token7erc1155NtB5_7Erc1155NtNtNtNtB9_5utils13introspection6erc1657IErc16518supports_interface
FNDA:0,_RNvMs1_NtNtCsa86sUp9HUqm_19openzeppelin_stylus5token7erc1155NtB5_7Erc11557__update
FNDA:0,_RNvMs1_NtNtCsa86sUp9HUqm_19openzeppelin_stylus5token7erc1155NtB5_7Erc115529__update_with_acceptance_check
FNDA:0,_RNvMs1_NtNtCsa86sUp9HUqm_19openzeppelin_stylus5token7erc1155NtB5_7Erc11555__mint
FNDA:0,_RNvMs1_NtNtCsa86sUp9HUqm_19openzeppelin_stylus5token7erc1155NtB5_7Erc115511__mint_batch
FNDA:0,_RNvMs1_NtNtCsa86sUp9HUqm_19openzeppelin_stylus5token7erc1155NtB5_7Erc11555__burn
FNDA:0,_RNvMs1_NtNtCsa86sUp9HUqm_19openzeppelin_stylus5token7erc1155NtB5_7Erc115511__burn_batch
FNDA:0,_RNvMs1_NtNtCsa86sUp9HUqm_19openzeppelin_stylus5token7erc1155NtB5_7Erc115521__set_approval_for_all
FNDA:0,_RNvMs2_NtNtCsa86sUp9HUqm_19openzeppelin_stylus5token7erc1155NtB5_7Erc115526__check_on_erc1155_received
FNDA:0,_RNvMs2_NtNtCsa86sUp9HUqm_19openzeppelin_stylus5token7erc1155NtB5_7Erc11558__do_mint
FNDA:0,_RNvMs2_NtNtCsa86sUp9HUqm_19openzeppelin_stylus5token7erc1155NtB5_7Erc11558__do_burn
FNDA:0,_RNvMs2_NtNtCsa86sUp9HUqm_19openzeppelin_stylus5token7erc1155NtB5_7Erc115521do_safe_transfer_from
FNDA:0,_RNvMs2_NtNtCsa86sUp9HUqm_19openzeppelin_stylus5token7erc1155NtB5_7Erc11559do_update
FNDA:0,_RNvMs2_NtNtCsa86sUp9HUqm_19openzeppelin_stylus5token7erc1155NtB5_7Erc115518authorize_transfer
FNDA:0,_RNvMs3_NtNtCsa86sUp9HUqm_19openzeppelin_stylus5token7erc1155NtB5_19Erc1155ReceiverData3new
FNDA:0,_RNvMs3_NtNtCsa86sUp9HUqm_19openzeppelin_stylus5token7erc1155NtB5_19Erc1155ReceiverData6single
FNDA:0,_RNvMs3_NtNtCsa86sUp9HUqm_19openzeppelin_stylus5token7erc1155NtB5_19Erc1155ReceiverData5batch
FNDA:0,_RNvXsl_NtNtCsa86sUp9HUqm_19openzeppelin_stylus5token7erc1155NtB5_5ErrorINtNtCshuVUGNokh5j_4core7convert4FromNtB5_26ERC1155InsufficientBalanceE4from
FNDA:0,_RNvXsm_NtNtCsa86sUp9HUqm_19openzeppelin_stylus5token7erc1155NtB5_5ErrorINtNtCshuVUGNokh5j_4core7convert4FromNtB5_20ERC1155InvalidSenderE4from
FNDA:0,_RNvXsn_NtNtCsa86sUp9HUqm_19openzeppelin_stylus5token7erc1155NtB5_5ErrorINtNtCshuVUGNokh5j_4core7convert4FromNtB5_22ERC1155InvalidReceiverE4from
FNDA:0,_RNvXso_NtNtCsa86sUp9HUqm_19openzeppelin_stylus5token7erc1155NtB5_5ErrorINtNtCshuVUGNokh5j_4core7convert4FromNtNtNtCs8c3p7fi1c1U_10stylus_sdk4call5error5ErrorE4from
FNDA:0,_RNvXsp_NtNtCsa86sUp9HUqm_19openzeppelin_stylus5token7erc1155NtB5_5ErrorINtNtCshuVUGNokh5j_4core7convert4FromNtB5_28ERC1155MissingApprovalForAllE4from
FNDA:0,_RNvXsq_NtNtCsa86sUp9HUqm_19openzeppelin_stylus5token7erc1155NtB5_5ErrorINtNtCshuVUGNokh5j_4core7convert4FromNtB5_22ERC1155InvalidApproverE4from
FNDA:0,_RNvXsr_NtNtCsa86sUp9HUqm_19openzeppelin_stylus5token7erc1155NtB5_5ErrorINtNtCshuVUGNokh5j_4core7convert4FromNtB5_22ERC1155InvalidOperatorE4from
FNDA:0,_RNvXss_NtNtCsa86sUp9HUqm_19openzeppelin_stylus5token7erc1155NtB5_5ErrorINtNtCshuVUGNokh5j_4core7convert4FromNtB5_25ERC1155InvalidArrayLengthE4from
FNDA:0,_RNvMsv_NtNtCsa86sUp9HUqm_19openzeppelin_stylus5token7erc1155NtB5_7Erc115514required_slots
FNDA:0,_RNvXsw_NtNtCsa86sUp9HUqm_19openzeppelin_stylus5token7erc1155NtB5_7Erc1155NtNtNtCs8c3p7fi1c1U_10stylus_sdk7storage6traits11StorageType3new
FNDA:0,_RNvXsw_NtNtCsa86sUp9HUqm_19openzeppelin_stylus5token7erc1155NtB5_7Erc1155NtNtNtCs8c3p7fi1c1U_10stylus_sdk7storage6traits11StorageType4load
FNDA:0,_RNvXsw_NtNtCsa86sUp9HUqm_19openzeppelin_stylus5token7erc1155NtB5_7Erc1155NtNtNtCs8c3p7fi1c1U_10stylus_sdk7storage6traits11StorageType8load_mut
FNDA:0,_RNvXsx_NtNtCsa86sUp9HUqm_19openzeppelin_stylus5token7erc1155NtB5_7Erc1155NtB5_8IErc115510balance_of
FNDA:0,_RNvXsx_NtNtCsa86sUp9HUqm_19openzeppelin_stylus5token7erc1155NtB5_7Erc1155NtB5_8IErc115516balance_of_batch
FNDA:0,_RNvXsx_NtNtCsa86sUp9HUqm_19openzeppelin_stylus5token7erc1155NtB5_7Erc1155NtB5_8IErc115520set_approval_for_all
FNDA:0,_RNvXsx_NtNtCsa86sUp9HUqm_19openzeppelin_stylus5token7erc1155NtB5_7Erc1155NtB5_8IErc115519is_approved_for_all
FNDA:0,_RNvXsx_NtNtCsa86sUp9HUqm_19openzeppelin_stylus5token7erc1155NtB5_7Erc1155NtB5_8IErc115518safe_transfer_from
FNDA:0,_RNvXsx_NtNtCsa86sUp9HUqm_19openzeppelin_stylus5token7erc1155NtB5_7Erc1155NtB5_8IErc115524safe_batch_transfer_from
FNDA:0,_RNvMsz_NtNtCsa86sUp9HUqm_19openzeppelin_stylus5token7erc1155NtB5_7Erc115523___stylus_allow_override
FNDA:0,_RNvMsz_NtNtCsa86sUp9HUqm_19openzeppelin_stylus5token7erc1155NtB5_7Erc115525___stylus_assert_overrides
FNDA:0,_RNvXsy_NtNtCsa86sUp9HUqm_19openzeppelin_stylus5token7erc1155NtB5_7Erc1155INtNtCs8c3p7fi1c1U_10stylus_sdk3abi6RouterNtCsjXwB3iNudGh_15erc1155_example14Erc1155ExampleE5routeB1R_
FNDA:0,_RNvXsy_NtNtCsa86sUp9HUqm_19openzeppelin_stylus5token7erc1155NtB5_7Erc1155INtNtCs8c3p7fi1c1U_10stylus_sdk3abi6RouterNtCsbkWQg3gVxSP_15erc1155_example14Erc1155ExampleE5routeB1R_
FNDA:0,_RNvXs_NvNtNtCs6vaqcEMrLsG_19openzeppelin_stylus5token7erc11551__NtNtCs9yoxqfta9I2_16alloy_primitives3log7LogDataINtNtCshuVUGNokh5j_4core7convert4FromRNtB6_14TransferSingleE4fromBa_
FNDA:0,_RNCNvXs_NvNtNtCs6vaqcEMrLsG_19openzeppelin_stylus5token7erc11551__NtNtCs9yoxqfta9I2_16alloy_primitives3log7LogDataINtNtCshuVUGNokh5j_4core7convert4FromRNtB8_14TransferSingleE4from0Bc_
FNDA:0,_RNvXs_NvNtNtCs6vaqcEMrLsG_19openzeppelin_stylus5token7erc1155s_1__NtNtCs9yoxqfta9I2_16alloy_primitives3log7LogDataINtNtCshuVUGNokh5j_4core7convert4FromRNtB6_13TransferBatchE4fromBa_
FNDA:0,_RNCNvXs_NvNtNtCs6vaqcEMrLsG_19openzeppelin_stylus5token7erc1155s_1__NtNtCs9yoxqfta9I2_16alloy_primitives3log7LogDataINtNtCshuVUGNokh5j_4core7convert4FromRNtB8_13TransferBatchE4from0Bc_
FNDA:0,_RNvXs_NvNtNtCs6vaqcEMrLsG_19openzeppelin_stylus5token7erc1155s0_1__NtNtCs9yoxqfta9I2_16alloy_primitives3log7LogDataINtNtCshuVUGNokh5j_4core7convert4FromRNtB6_14ApprovalForAllE4fromBa_
FNDA:0,_RNCNvXs_NvNtNtCs6vaqcEMrLsG_19openzeppelin_stylus5token7erc1155s0_1__NtNtCs9yoxqfta9I2_16alloy_primitives3log7LogDataINtNtCshuVUGNokh5j_4core7convert4FromRNtB8_14ApprovalForAllE4from0Bc_
FNDA:0,_RNvNvNtNtCs6vaqcEMrLsG_19openzeppelin_stylus5token7erc1155s1_1__15__type_assertion
FNDA:0,_RNvNvNtNtCs6vaqcEMrLsG_19openzeppelin_stylus5token7erc1155s2_1__15__type_assertion
FNDA:0,_RNvNvNtNtCs6vaqcEMrLsG_19openzeppelin_stylus5token7erc1155s3_1__15__type_assertion
FNDA:0,_RNvNvNtNtCs6vaqcEMrLsG_19openzeppelin_stylus5token7erc1155s4_1__15__type_assertion
FNDA:0,_RNvNvNtNtCs6vaqcEMrLsG_19openzeppelin_stylus5token7erc1155s5_1__15__type_assertion
FNDA:0,_RNvNvNtNtCs6vaqcEMrLsG_19openzeppelin_stylus5token7erc1155s6_1__15__type_assertion
FNDA:0,_RNvNvNtNtCs6vaqcEMrLsG_19openzeppelin_stylus5token7erc1155s7_1__15__type_assertion
FNDA:0,_RNvXsl_NtNtCs6vaqcEMrLsG_19openzeppelin_stylus5token7erc1155NtB5_5ErrorINtNtCshuVUGNokh5j_4core7convert4FromNtB5_26ERC1155InsufficientBalanceE4from
FNDA:0,_RNvXsm_NtNtCs6vaqcEMrLsG_19openzeppelin_stylus5token7erc1155NtB5_5ErrorINtNtCshuVUGNokh5j_4core7convert4FromNtB5_20ERC1155InvalidSenderE4from
FNDA:0,_RNvXso_NtNtCs6vaqcEMrLsG_19openzeppelin_stylus5token7erc1155NtB5_5ErrorINtNtCshuVUGNokh5j_4core7convert4FromNtNtNtCs8c3p7fi1c1U_10stylus_sdk4call5error5ErrorE4from
FNDA:0,_RNvXsp_NtNtCs6vaqcEMrLsG_19openzeppelin_stylus5token7erc1155NtB5_5ErrorINtNtCshuVUGNokh5j_4core7convert4FromNtB5_28ERC1155MissingApprovalForAllE4from
FNDA:0,_RNvXsq_NtNtCs6vaqcEMrLsG_19openzeppelin_stylus5token7erc1155NtB5_5ErrorINtNtCshuVUGNokh5j_4core7convert4FromNtB5_22ERC1155InvalidApproverE4from
FNDA:0,_RNvXsr_NtNtCs6vaqcEMrLsG_19openzeppelin_stylus5token7erc1155NtB5_5ErrorINtNtCshuVUGNokh5j_4core7convert4FromNtB5_22ERC1155InvalidOperatorE4from
FNDA:0,_RNvXss_NtNtCs6vaqcEMrLsG_19openzeppelin_stylus5token7erc1155NtB5_5ErrorINtNtCshuVUGNokh5j_4core7convert4FromNtB5_25ERC1155InvalidArrayLengthE4from
FNDA:0,_RNvXst_NtNtCs6vaqcEMrLsG_19openzeppelin_stylus5token7erc1155INtNtCsdDMkpvQxPWz_5alloc3vec3VechEINtNtCshuVUGNokh5j_4core7convert4FromNtB5_5ErrorE4from
FNDA:0,_RNvXNtNtCs6vaqcEMrLsG_19openzeppelin_stylus5token7erc1155NtB2_5ErrorNtNtNtCs8c3p7fi1c1U_10stylus_sdk4call5error11MethodError6encode
FNDA:0,_RNvMsv_NtNtCs6vaqcEMrLsG_19openzeppelin_stylus5token7erc1155NtB5_7Erc115514required_slots
FNDA:0,_RNvXsw_NtNtCs6vaqcEMrLsG_19openzeppelin_stylus5token7erc1155NtB5_7Erc1155NtNtNtCs8c3p7fi1c1U_10stylus_sdk7storage6traits11StorageType4load
FNDA:0,_RNvXsw_NtNtCs6vaqcEMrLsG_19openzeppelin_stylus5token7erc1155NtB5_7Erc1155NtNtNtCs8c3p7fi1c1U_10stylus_sdk7storage6traits11StorageType8load_mut
FNDA:0,_RNvXININtNtCs6vaqcEMrLsG_19openzeppelin_stylus5token7erc1155sy_0pENtB5_7Erc1155INtNtCs8c3p7fi1c1U_10stylus_sdk3abi6RouterpE5routeB9_
FNDA:0,_RNvMsz_NtNtCs6vaqcEMrLsG_19openzeppelin_stylus5token7erc1155NtB5_7Erc115523___stylus_allow_override
FNDA:0,_RNvMsz_NtNtCs6vaqcEMrLsG_19openzeppelin_stylus5token7erc1155NtB5_7Erc115525___stylus_assert_overrides
FNDA:0,_RNvXs0_NtNtCs6vaqcEMrLsG_19openzeppelin_stylus5token7erc1155NtB5_7Erc1155NtNtNtNtB9_5utils13introspection6erc1657IErc16518supports_interface
FNDA:4,_RNCNvNtNtNtCs6vaqcEMrLsG_19openzeppelin_stylus5token7erc11555testss_11mints_batch0B9_
FNDA:4,_RNCNvNtNtNtCs6vaqcEMrLsG_19openzeppelin_stylus5token7erc11555testss_48error_when_batch_burns_with_insufficient_balance0B9_
FNDA:67,_RINvMs2_NtNtCs6vaqcEMrLsG_19openzeppelin_stylus5token7erc1155NtB6_7Erc115527require_equal_arrays_lengthINtCs1K7JgRVbVtq_5ruint4UintKj100_Kj4_EB1D_EBa_
FNDA:5,_RINvMs2_NtNtCs6vaqcEMrLsG_19openzeppelin_stylus5token7erc1155NtB6_7Erc115527require_equal_arrays_lengthINtCs1K7JgRVbVtq_5ruint4UintKj100_Kj4_ENtNtNtCs9yoxqfta9I2_16alloy_primitives4bits7address7AddressEBa_
FNDA:16,_RNCNvXsx_NtNtCs6vaqcEMrLsG_19openzeppelin_stylus5token7erc1155NtB7_7Erc1155NtB7_8IErc115516balance_of_batch0Bb_
FNDA:48,_RNvNtNtNtCs6vaqcEMrLsG_19openzeppelin_stylus5token7erc11555tests16random_token_ids
FNDA:46,_RNvNtNtNtCs6vaqcEMrLsG_19openzeppelin_stylus5token7erc11555tests13random_values
FNDA:29,_RNvNtNtNtCs6vaqcEMrLsG_19openzeppelin_stylus5token7erc11555tests4init
FNDA:3,_RNvNtNtNtCs6vaqcEMrLsG_19openzeppelin_stylus5token7erc11555tests6append
FNDA:1,_RNvNtNtNtCs6vaqcEMrLsG_19openzeppelin_stylus5token7erc11555testss_29should_create_transfer_single
FNDA:1,_RNvNtNtNtCs6vaqcEMrLsG_19openzeppelin_stylus5token7erc11555testss_28should_create_transfer_batch
FNDA:1,_RNvNtNtNtCs6vaqcEMrLsG_19openzeppelin_stylus5token7erc11555testss_23balance_of_zero_balance
FNDA:1,_RNvNtNtNtCs6vaqcEMrLsG_19openzeppelin_stylus5token7erc11555testss_32error_when_array_length_mismatch
FNDA:1,_RNvNtNtNtCs6vaqcEMrLsG_19openzeppelin_stylus5token7erc11555testss_29balance_of_batch_zero_balance
FNDA:1,_RNvNtNtNtCs6vaqcEMrLsG_19openzeppelin_stylus5token7erc11555testss_20set_approval_for_all
FNDA:1,_RNvNtNtNtCs6vaqcEMrLsG_19openzeppelin_stylus5token7erc11555testss_48error_when_invalid_operator_set_approval_for_all
FNDA:1,_RNvNtNtNtCs6vaqcEMrLsG_19openzeppelin_stylus5token7erc11555testss_5mints
FNDA:1,_RNvNtNtNtCs6vaqcEMrLsG_19openzeppelin_stylus5token7erc11555testss_36error_when_mints_to_invalid_receiver
FNDA:1,_RNvNtNtNtCs6vaqcEMrLsG_19openzeppelin_stylus5token7erc11555testss_11mints_batch
FNDA:1,_RNvNtNtNtCs6vaqcEMrLsG_19openzeppelin_stylus5token7erc11555testss_22mints_batch_same_token
FNDA:1,_RNvNtNtNtCs6vaqcEMrLsG_19openzeppelin_stylus5token7erc11555testss_42error_when_batch_mints_to_invalid_receiver
FNDA:1,_RNvNtNtNtCs6vaqcEMrLsG_19openzeppelin_stylus5token7erc11555testss_39error_when_batch_mints_not_equal_arrays
FNDA:1,_RNvNtNtNtCs6vaqcEMrLsG_19openzeppelin_stylus5token7erc11555testss_5burns
FNDA:1,_RNvNtNtNtCs6vaqcEMrLsG_19openzeppelin_stylus5token7erc11555testss_36error_when_burns_from_invalid_sender
FNDA:1,_RNvNtNtNtCs6vaqcEMrLsG_19openzeppelin_stylus5token7erc11555testss_42error_when_burns_with_insufficient_balance
FNDA:1,_RNvNtNtNtCs6vaqcEMrLsG_19openzeppelin_stylus5token7erc11555testss_11burns_batch
FNDA:1,_RNvNtNtNtCs6vaqcEMrLsG_19openzeppelin_stylus5token7erc11555testss_22burns_batch_same_token
FNDA:1,_RNvNtNtNtCs6vaqcEMrLsG_19openzeppelin_stylus5token7erc11555testss_42error_when_batch_burns_from_invalid_sender
FNDA:1,_RNvNtNtNtCs6vaqcEMrLsG_19openzeppelin_stylus5token7erc11555testss_48error_when_batch_burns_with_insufficient_balance
FNDA:1,_RNvNtNtNtCs6vaqcEMrLsG_19openzeppelin_stylus5token7erc11555testss_39error_when_batch_burns_not_equal_arrays
FNDA:1,_RNvNtNtNtCs6vaqcEMrLsG_19openzeppelin_stylus5token7erc11555testss_18safe_transfer_from
FNDA:1,_RNvNtNtNtCs6vaqcEMrLsG_19openzeppelin_stylus5token7erc11555testss_46error_when_invalid_receiver_safe_transfer_from
FNDA:1,_RNvNtNtNtCs6vaqcEMrLsG_19openzeppelin_stylus5token7erc11555testss_44error_when_invalid_sender_safe_transfer_from
FNDA:1,_RNvNtNtNtCs6vaqcEMrLsG_19openzeppelin_stylus5token7erc11555testss_46error_when_missing_approval_safe_transfer_from
FNDA:1,_RNvNtNtNtCs6vaqcEMrLsG_19openzeppelin_stylus5token7erc11555testss_50error_when_insufficient_balance_safe_transfer_from
FNDA:1,_RNvNtNtNtCs6vaqcEMrLsG_19openzeppelin_stylus5token7erc11555testss_28safe_transfer_from_with_data
FNDA:1,_RNvNtNtNtCs6vaqcEMrLsG_19openzeppelin_stylus5token7erc11555testss_56error_when_invalid_receiver_safe_transfer_from_with_data
FNDA:1,_RNvNtNtNtCs6vaqcEMrLsG_19openzeppelin_stylus5token7erc11555testss_54error_when_invalid_sender_safe_transfer_from_with_data
FNDA:1,_RNvNtNtNtCs6vaqcEMrLsG_19openzeppelin_stylus5token7erc11555testss_56error_when_missing_approval_safe_transfer_from_with_data
FNDA:1,_RNvNtNtNtCs6vaqcEMrLsG_19openzeppelin_stylus5token7erc11555testss_60error_when_insufficient_balance_safe_transfer_from_with_data
FNDA:1,_RNvNtNtNtCs6vaqcEMrLsG_19openzeppelin_stylus5token7erc11555testss_24safe_batch_transfer_from
FNDA:1,_RNvNtNtNtCs6vaqcEMrLsG_19openzeppelin_stylus5token7erc11555testss_52error_when_invalid_receiver_safe_batch_transfer_from
FNDA:1,_RNvNtNtNtCs6vaqcEMrLsG_19openzeppelin_stylus5token7erc11555testss_50error_when_invalid_sender_safe_batch_transfer_from
FNDA:1,_RNvNtNtNtCs6vaqcEMrLsG_19openzeppelin_stylus5token7erc11555testss_52error_when_missing_approval_safe_batch_transfer_from
FNDA:1,_RNvNtNtNtCs6vaqcEMrLsG_19openzeppelin_stylus5token7erc11555testss_56error_when_insufficient_balance_safe_batch_transfer_from
FNDA:1,_RNvNtNtNtCs6vaqcEMrLsG_19openzeppelin_stylus5token7erc11555testss_52error_when_not_equal_arrays_safe_batch_transfer_from
FNDA:1,_RNvNtNtNtCs6vaqcEMrLsG_19openzeppelin_stylus5token7erc11555testss_34safe_batch_transfer_from_with_data
FNDA:1,_RNvNtNtNtCs6vaqcEMrLsG_19openzeppelin_stylus5token7erc11555testss_62error_when_invalid_receiver_safe_batch_transfer_from_with_data
FNDA:1,_RNvNtNtNtCs6vaqcEMrLsG_19openzeppelin_stylus5token7erc11555testss_60error_when_invalid_sender_safe_batch_transfer_from_with_data
FNDA:1,_RNvNtNtNtCs6vaqcEMrLsG_19openzeppelin_stylus5token7erc11555testss_62error_when_missing_approval_safe_batch_transfer_from_with_data
FNDA:1,_RNvNtNtNtCs6vaqcEMrLsG_19openzeppelin_stylus5token7erc11555testss_66error_when_insufficient_balance_safe_batch_transfer_from_with_data
FNDA:1,_RNvNtNtNtCs6vaqcEMrLsG_19openzeppelin_stylus5token7erc11555testss_62error_when_not_equal_arrays_safe_batch_transfer_from_with_data
FNDA:1,_RNvNtNtNtCs6vaqcEMrLsG_19openzeppelin_stylus5token7erc11555testss_12interface_id
FNDA:67,_RNvMs1_NtNtCs6vaqcEMrLsG_19openzeppelin_stylus5token7erc1155NtB5_7Erc11557__update
FNDA:67,_RNvMs1_NtNtCs6vaqcEMrLsG_19openzeppelin_stylus5token7erc1155NtB5_7Erc115529__update_with_acceptance_check
FNDA:3,_RNvMs1_NtNtCs6vaqcEMrLsG_19openzeppelin_stylus5token7erc1155NtB5_7Erc11555__mint
FNDA:43,_RNvMs1_NtNtCs6vaqcEMrLsG_19openzeppelin_stylus5token7erc1155NtB5_7Erc115511__mint_batch
FNDA:7,_RNvMs1_NtNtCs6vaqcEMrLsG_19openzeppelin_stylus5token7erc1155NtB5_7Erc11555__burn
FNDA:9,_RNvMs1_NtNtCs6vaqcEMrLsG_19openzeppelin_stylus5token7erc1155NtB5_7Erc115511__burn_batch
FNDA:3,_RNvMs1_NtNtCs6vaqcEMrLsG_19openzeppelin_stylus5token7erc1155NtB5_7Erc115521__set_approval_for_all
FNDA:48,_RNvMs2_NtNtCs6vaqcEMrLsG_19openzeppelin_stylus5token7erc1155NtB5_7Erc115526__check_on_erc1155_received
FNDA:46,_RNvMs2_NtNtCs6vaqcEMrLsG_19openzeppelin_stylus5token7erc1155NtB5_7Erc11558__do_mint
FNDA:16,_RNvMs2_NtNtCs6vaqcEMrLsG_19openzeppelin_stylus5token7erc1155NtB5_7Erc11558__do_burn
FNDA:19,_RNvMs2_NtNtCs6vaqcEMrLsG_19openzeppelin_stylus5token7erc1155NtB5_7Erc115521do_safe_transfer_from
FNDA:134,_RNvMs2_NtNtCs6vaqcEMrLsG_19openzeppelin_stylus5token7erc1155NtB5_7Erc11559do_update
FNDA:22,_RNvMs2_NtNtCs6vaqcEMrLsG_19openzeppelin_stylus5token7erc1155NtB5_7Erc115518authorize_transfer
FNDA:50,_RNvMs3_NtNtCs6vaqcEMrLsG_19openzeppelin_stylus5token7erc1155NtB5_19Erc1155ReceiverData3new
FNDA:23,_RNvMs3_NtNtCs6vaqcEMrLsG_19openzeppelin_stylus5token7erc1155NtB5_19Erc1155ReceiverData6single
FNDA:27,_RNvMs3_NtNtCs6vaqcEMrLsG_19openzeppelin_stylus5token7erc1155NtB5_19Erc1155ReceiverData5batch
FNDA:0,_RNvXsn_NtNtCs6vaqcEMrLsG_19openzeppelin_stylus5token7erc1155NtB5_5ErrorINtNtCshuVUGNokh5j_4core7convert4FromNtB5_22ERC1155InvalidReceiverE4from
FNDA:51,_RNvXsw_NtNtCs6vaqcEMrLsG_19openzeppelin_stylus5token7erc1155NtB5_7Erc1155NtNtNtCs8c3p7fi1c1U_10stylus_sdk7storage6traits11StorageType3new
FNDA:86,_RNvXsx_NtNtCs6vaqcEMrLsG_19openzeppelin_stylus5token7erc1155NtB5_7Erc1155NtB5_8IErc115510balance_of
FNDA:5,_RNvXsx_NtNtCs6vaqcEMrLsG_19openzeppelin_stylus5token7erc1155NtB5_7Erc1155NtB5_8IErc115516balance_of_batch
FNDA:3,_RNvXsx_NtNtCs6vaqcEMrLsG_19openzeppelin_stylus5token7erc1155NtB5_7Erc1155NtB5_8IErc115520set_approval_for_all
FNDA:27,_RNvXsx_NtNtCs6vaqcEMrLsG_19openzeppelin_stylus5token7erc1155NtB5_7Erc1155NtB5_8IErc115519is_approved_for_all
FNDA:10,_RNvXsx_NtNtCs6vaqcEMrLsG_19openzeppelin_stylus5token7erc1155NtB5_7Erc1155NtB5_8IErc115518safe_transfer_from
FNDA:12,_RNvXsx_NtNtCs6vaqcEMrLsG_19openzeppelin_stylus5token7erc1155NtB5_7Erc1155NtB5_8IErc115524safe_batch_transfer_from
FNF:83
FNH:75
DA:43,0
DA:44,0
DA:45,0
DA:46,0
DA:47,0
DA:48,0
DA:49,0
DA:50,0
DA:51,0
DA:52,0
DA:53,0
DA:54,0
DA:55,0
DA:56,0
DA:57,0
DA:58,0
DA:59,0
DA:60,0
DA:61,0
DA:62,0
DA:63,0
DA:64,0
DA:65,0
DA:66,0
DA:67,0
DA:68,0
DA:69,0
DA:70,0
DA:71,0
DA:72,0
DA:73,0
DA:74,0
DA:76,0
DA:77,0
DA:78,0
DA:79,0
DA:80,0
DA:81,0
DA:82,0
DA:83,0
DA:84,0
DA:85,0
DA:86,0
DA:87,0
DA:88,0
DA:89,0
DA:90,0
DA:91,0
DA:92,0
DA:93,0
DA:94,0
DA:95,0
DA:96,0
DA:97,0
DA:98,0
DA:99,0
DA:100,0
DA:101,0
DA:102,0
DA:103,0
DA:104,0
DA:105,0
DA:106,0
DA:107,0
DA:108,0
DA:109,0
DA:110,0
DA:111,0
DA:112,0
DA:113,0
DA:114,0
DA:115,0
DA:116,0
DA:117,0
DA:118,0
DA:119,0
DA:120,0
DA:121,0
DA:122,0
DA:123,0
DA:124,0
DA:125,0
DA:126,0
DA:127,0
DA:128,0
DA:129,0
DA:130,0
DA:131,0
DA:132,0
DA:133,0
DA:134,0
DA:135,0
DA:136,0
DA:137,0
DA:138,0
DA:139,0
DA:140,0
DA:141,0
DA:142,0
DA:143,0
DA:144,0
DA:145,0
DA:150,0
DA:177,0
DA:178,0
DA:179,0
DA:182,0
DA:183,0
DA:184,0
DA:185,0
DA:186,0
DA:187,0
DA:188,0
DA:189,0
DA:190,51
DA:387,0
DA:391,86
DA:392,86
DA:393,86
DA:395,5
DA:396,5
DA:397,5
DA:398,5
DA:399,5
DA:400,5
DA:402,4
DA:403,4
DA:404,4
DA:405,16
DA:406,4
DA:407,4
DA:408,4
DA:409,5
DA:411,3
DA:412,3
DA:413,3
DA:414,3
DA:415,3
DA:416,3
DA:417,3
DA:419,27
DA:420,27
DA:421,27
DA:423,10
DA:424,10
DA:425,10
DA:426,10
DA:427,10
DA:428,10
DA:429,10
DA:430,10
DA:431,10
DA:432,8
DA:433,10
DA:435,12
DA:436,12
DA:437,12
DA:438,12
DA:439,12
DA:440,12
DA:441,12
DA:442,12
DA:443,12
DA:444,10
DA:445,12
DA:449,0
DA:450,0
DA:451,0
DA:452,0
DA:486,67
DA:487,67
DA:488,67
DA:489,67
DA:490,67
DA:491,67
DA:492,67
DA:493,67
DA:495,63
DA:497,134
DA:498,134
DA:501,55
DA:502,25
DA:503,25
DA:504,25
DA:505,30
DA:506,30
DA:507,30
DA:509,55
DA:510,67
DA:549,67
DA:550,67
DA:551,67
DA:552,67
DA:553,67
DA:554,67
DA:555,67
DA:556,67
DA:557,67
DA:559,55
DA:560,48
DA:561,48
DA:562,48
DA:563,48
DA:564,48
DA:565,48
DA:566,48
DA:567,7
DA:569,55
DA:570,67
DA:599,3
DA:600,3
DA:601,3
DA:602,3
DA:603,3
DA:604,3
DA:605,3
DA:606,3
DA:607,3
DA:641,43
DA:642,43
DA:643,43
DA:644,43
DA:645,43
DA:646,43
DA:647,43
DA:648,43
DA:649,43
DA:674,7
DA:675,7
DA:676,7
DA:677,7
DA:678,7
DA:679,7
DA:680,7
DA:681,7
DA:710,9
DA:711,9
DA:712,9
DA:713,9
DA:714,9
DA:715,9
DA:716,9
DA:717,9
DA:738,3
DA:739,3
DA:740,3
DA:741,3
DA:742,3
DA:743,3
DA:744,3
DA:745,1
DA:746,1
DA:747,1
DA:748,2
DA:749,2
DA:750,2
DA:751,2
DA:752,3
DA:788,48
DA:789,48
DA:790,48
DA:791,48
DA:792,48
DA:793,48
DA:794,48
DA:795,48
DA:796,48
DA:797,48
DA:798,0
DA:799,0
DA:800,0
DA:801,0
DA:802,0
DA:803,0
DA:804,0
DA:806,0
DA:807,0
DA:808,0
DA:809,0
DA:812,0
DA:813,0
DA:814,0
DA:815,0
DA:816,0
DA:818,0
DA:819,0
DA:820,0
DA:822,0
DA:827,0
DA:828,0
DA:829,0
DA:830,0
DA:831,0
DA:832,48
DA:870,46
DA:871,46
DA:872,46
DA:873,46
DA:874,46
DA:875,46
DA:876,46
DA:877,46
DA:878,2
DA:879,2
DA:880,2
DA:881,44
DA:882,44
DA:883,44
DA:884,44
DA:885,44
DA:886,44
DA:887,44
DA:888,44
DA:889,43
DA:890,46
DA:919,16
DA:920,16
DA:921,16
DA:922,16
DA:923,16
DA:924,16
DA:925,16
DA:926,4
DA:927,4
DA:928,4
DA:929,12
DA:930,12
DA:931,12
DA:932,12
DA:933,12
DA:934,12
DA:935,12
DA:936,12
DA:937,7
DA:938,16
DA:977,19
DA:978,19
DA:979,19
DA:980,19
DA:981,19
DA:982,19
DA:983,19
DA:984,19
DA:985,19
DA:986,4
DA:987,4
DA:988,4
DA:989,15
DA:990,15
DA:991,4
DA:992,4
DA:993,4
DA:994,11
DA:995,11
DA:996,19
DA:1017,134
DA:1018,134
DA:1019,134
DA:1020,134
DA:1021,134
DA:1022,134
DA:1023,134
DA:1024,134
DA:1025,34
DA:1026,34
DA:1027,8
DA:1028,8
DA:1029,8
DA:1030,8
DA:1031,8
DA:1032,8
DA:1033,8
DA:1034,8
DA:1035,26
DA:1036,26
DA:1037,26
DA:1038,26
DA:1039,26
DA:1040,100
DA:1042,126
DA:1043,107
DA:1044,107
DA:1045,107
DA:1046,107
DA:1047,107
DA:1048,107
DA:1050,126
DA:1051,134
DA:1064,72
DA:1065,72
DA:1066,72
DA:1067,72
DA:1068,72
DA:1069,5
DA:1070,5
DA:1071,5
DA:1072,5
DA:1073,67
DA:1074,67
DA:1075,72
DA:1089,22
DA:1090,22
DA:1091,22
DA:1092,4
DA:1093,4
DA:1094,4
DA:1095,18
DA:1096,18
DA:1097,18
DA:1098,22
DA:1125,50
DA:1126,50
DA:1127,23
DA:1129,27
DA:1131,50
DA:1140,23
DA:1141,23
DA:1142,23
DA:1143,23
DA:1144,23
DA:1145,23
DA:1154,27
DA:1155,27
DA:1156,27
DA:1157,27
DA:1158,27
DA:1159,27
DA:1201,48
DA:1202,48
DA:1203,48
DA:1205,46
DA:1206,46
DA:1207,46
DA:1209,29
DA:1210,29
DA:1211,29
DA:1212,29
DA:1213,29
DA:1214,29
DA:1215,29
DA:1216,29
DA:1217,29
DA:1218,29
DA:1219,29
DA:1220,29
DA:1221,29
DA:1222,29
DA:1223,29
DA:1224,29
DA:1225,29
DA:1226,29
DA:1228,3
DA:1229,3
DA:1230,3
DA:1233,1
DA:1234,1
DA:1235,1
DA:1236,1
DA:1237,1
DA:1238,1
DA:1239,1
DA:1242,1
DA:1243,1
DA:1244,1
DA:1245,1
DA:1246,1
DA:1247,1
DA:1248,1
DA:1250,1
DA:1258,1
DA:1278,1
DA:1290,1
DA:1306,1
DA:1322,1
DA:1337,1
DA:1355,1
DA:1369,4
DA:1370,4
DA:1371,4
DA:1380,1
DA:1404,1
DA:1427,1
DA:1446,1
DA:1459,1
DA:1476,1
DA:1495,1
DA:1510,1
DA:1535,1
DA:1552,1
DA:1560,4
DA:1577,1
DA:1595,1
DA:1630,1
DA:1654,1
DA:1684,1
DA:1707,1
DA:1735,1
DA:1757,1
DA:1782,1
DA:1814,1
DA:1839,1
DA:1869,1
DA:1895,1
DA:1919,1
DA:1949,1
DA:1972,1
DA:2002,1
DA:2029,1
DA:2053,1
DA:2079,1
DA:2111,1
DA:2136,1
DA:2166,1
DA:2195,1
BRF:0
BRH:0
LF:517
LH:371
end_of_record
SF:/home/nenad/repos/rust-contracts-stylus/contracts/src/token/erc1155/receiver.rs
FN:7,_RNvXs1_NtNtNtCsa86sUp9HUqm_19openzeppelin_stylus5token7erc11558receiverNtB5_16IERC1155ReceiverINtNtCslo5yAywcNl4_15alloy_sol_types7private12SolTypeValueB17_E13stv_to_tokensBb_
FN:7,_RNvXs1_NtNtNtCsa86sUp9HUqm_19openzeppelin_stylus5token7erc11558receiverNtB5_16IERC1155ReceiverINtNtCslo5yAywcNl4_15alloy_sol_types7private12SolTypeValueB17_E20stv_abi_encoded_sizeBb_
FN:7,_RNvXs1_NtNtNtCsa86sUp9HUqm_19openzeppelin_stylus5token7erc11558receiverNtB5_16IERC1155ReceiverINtNtCslo5yAywcNl4_15alloy_sol_types7private12SolTypeValueB17_E20stv_eip712_data_wordBb_
FN:7,_RNvXs1_NtNtNtCsa86sUp9HUqm_19openzeppelin_stylus5token7erc11558receiverNtB5_16IERC1155ReceiverINtNtCslo5yAywcNl4_15alloy_sol_types7private12SolTypeValueB17_E24stv_abi_encode_packed_toBb_
FN:7,_RNvMNtNtNtCsa86sUp9HUqm_19openzeppelin_stylus5token7erc11558receiverNtB2_16IERC1155Receiver3new
FN:7,_RNvXs_NtNtNtCsa86sUp9HUqm_19openzeppelin_stylus5token7erc11558receiverNtB4_16IERC1155ReceiverNtNtNtCshuVUGNokh5j_4core3ops5deref5Deref5deref
FN:7,_RNvXs2_NtNtNtCsa86sUp9HUqm_19openzeppelin_stylus5token7erc11558receiverNtB5_16IERC1155ReceiverNtNtNtCslo5yAywcNl4_15alloy_sol_types5types2ty7SolType11valid_token
FN:7,_RNvXs2_NtNtNtCsa86sUp9HUqm_19openzeppelin_stylus5token7erc11558receiverNtB5_16IERC1155ReceiverNtNtNtCslo5yAywcNl4_15alloy_sol_types5types2ty7SolType10detokenize
FN:59,_RINvMNtNtNtCsa86sUp9HUqm_19openzeppelin_stylus5token7erc11558receiverNtB3_16IERC1155Receiver20on_erc_1155_receivedINtNtNtCs8c3p7fi1c1U_10stylus_sdk4call7context4CallQNtB5_7Erc1155EEB9_
FN:59,_RINvMNtNtNtCsa86sUp9HUqm_19openzeppelin_stylus5token7erc11558receiverNtB3_16IERC1155Receiver26on_erc_1155_batch_receivedINtNtNtCs8c3p7fi1c1U_10stylus_sdk4call7context4CallQNtB5_7Erc1155EEB9_
FN:7,_RNvMNtNtNtCs6vaqcEMrLsG_19openzeppelin_stylus5token7erc11558receiverNtB2_16IERC1155Receiver3new
FN:7,_RNvXs_NtNtNtCs6vaqcEMrLsG_19openzeppelin_stylus5token7erc11558receiverNtB4_16IERC1155ReceiverNtNtNtCshuVUGNokh5j_4core3ops5deref5Deref5deref
FN:7,_RNvXs1_NtNtNtCs6vaqcEMrLsG_19openzeppelin_stylus5token7erc11558receiverNtB5_16IERC1155ReceiverINtNtCslo5yAywcNl4_15alloy_sol_types7private12SolTypeValueB17_E13stv_to_tokensBb_
FN:7,_RNvXs1_NtNtNtCs6vaqcEMrLsG_19openzeppelin_stylus5token7erc11558receiverNtB5_16IERC1155ReceiverINtNtCslo5yAywcNl4_15alloy_sol_types7private12SolTypeValueB17_E20stv_abi_encoded_sizeBb_
FN:7,_RNvXs1_NtNtNtCs6vaqcEMrLsG_19openzeppelin_stylus5token7erc11558receiverNtB5_16IERC1155ReceiverINtNtCslo5yAywcNl4_15alloy_sol_types7private12SolTypeValueB17_E20stv_eip712_data_wordBb_
FN:7,_RNvXs1_NtNtNtCs6vaqcEMrLsG_19openzeppelin_stylus5token7erc11558receiverNtB5_16IERC1155ReceiverINtNtCslo5yAywcNl4_15alloy_sol_types7private12SolTypeValueB17_E24stv_abi_encode_packed_toBb_
FN:7,_RNvXs2_NtNtNtCs6vaqcEMrLsG_19openzeppelin_stylus5token7erc11558receiverNtB5_16IERC1155ReceiverNtNtNtCslo5yAywcNl4_15alloy_sol_types5types2ty7SolType11valid_token
FN:7,_RNvXs2_NtNtNtCs6vaqcEMrLsG_19openzeppelin_stylus5token7erc11558receiverNtB5_16IERC1155ReceiverNtNtNtCslo5yAywcNl4_15alloy_sol_types5types2ty7SolType10detokenize
FN:59,_RINvMNtNtNtCs6vaqcEMrLsG_19openzeppelin_stylus5token7erc11558receiverNtB3_16IERC1155Receiver20on_erc_1155_receivedINtNtNtCs8c3p7fi1c1U_10stylus_sdk4call7context4CallQNtB5_7Erc1155EEB9_
FN:59,_RINvMNtNtNtCs6vaqcEMrLsG_19openzeppelin_stylus5token7erc11558receiverNtB3_16IERC1155Receiver26on_erc_1155_batch_receivedINtNtNtCs8c3p7fi1c1U_10stylus_sdk4call7context4CallQNtB5_7Erc1155EEB9_
FNDA:0,_RNvXs1_NtNtNtCsa86sUp9HUqm_19openzeppelin_stylus5token7erc11558receiverNtB5_16IERC1155ReceiverINtNtCslo5yAywcNl4_15alloy_sol_types7private12SolTypeValueB17_E13stv_to_tokensBb_
FNDA:0,_RNvXs1_NtNtNtCsa86sUp9HUqm_19openzeppelin_stylus5token7erc11558receiverNtB5_16IERC1155ReceiverINtNtCslo5yAywcNl4_15alloy_sol_types7private12SolTypeValueB17_E20stv_abi_encoded_sizeBb_
FNDA:0,_RNvXs1_NtNtNtCsa86sUp9HUqm_19openzeppelin_stylus5token7erc11558receiverNtB5_16IERC1155ReceiverINtNtCslo5yAywcNl4_15alloy_sol_types7private12SolTypeValueB17_E20stv_eip712_data_wordBb_
FNDA:0,_RNvXs1_NtNtNtCsa86sUp9HUqm_19openzeppelin_stylus5token7erc11558receiverNtB5_16IERC1155ReceiverINtNtCslo5yAywcNl4_15alloy_sol_types7private12SolTypeValueB17_E24stv_abi_encode_packed_toBb_
FNDA:0,_RNvMNtNtNtCsa86sUp9HUqm_19openzeppelin_stylus5token7erc11558receiverNtB2_16IERC1155Receiver3new
FNDA:0,_RNvXs_NtNtNtCsa86sUp9HUqm_19openzeppelin_stylus5token7erc11558receiverNtB4_16IERC1155ReceiverNtNtNtCshuVUGNokh5j_4core3ops5deref5Deref5deref
FNDA:0,_RNvXs2_NtNtNtCsa86sUp9HUqm_19openzeppelin_stylus5token7erc11558receiverNtB5_16IERC1155ReceiverNtNtNtCslo5yAywcNl4_15alloy_sol_types5types2ty7SolType11valid_token
FNDA:0,_RNvXs2_NtNtNtCsa86sUp9HUqm_19openzeppelin_stylus5token7erc11558receiverNtB5_16IERC1155ReceiverNtNtNtCslo5yAywcNl4_15alloy_sol_types5types2ty7SolType10detokenize
FNDA:0,_RINvMNtNtNtCsa86sUp9HUqm_19openzeppelin_stylus5token7erc11558receiverNtB3_16IERC1155Receiver20on_erc_1155_receivedINtNtNtCs8c3p7fi1c1U_10stylus_sdk4call7context4CallQNtB5_7Erc1155EEB9_
FNDA:0,_RINvMNtNtNtCsa86sUp9HUqm_19openzeppelin_stylus5token7erc11558receiverNtB3_16IERC1155Receiver26on_erc_1155_batch_receivedINtNtNtCs8c3p7fi1c1U_10stylus_sdk4call7context4CallQNtB5_7Erc1155EEB9_
FNDA:0,_RNvMNtNtNtCs6vaqcEMrLsG_19openzeppelin_stylus5token7erc11558receiverNtB2_16IERC1155Receiver3new
FNDA:0,_RNvXs_NtNtNtCs6vaqcEMrLsG_19openzeppelin_stylus5token7erc11558receiverNtB4_16IERC1155ReceiverNtNtNtCshuVUGNokh5j_4core3ops5deref5Deref5deref
FNDA:0,_RNvXs1_NtNtNtCs6vaqcEMrLsG_19openzeppelin_stylus5token7erc11558receiverNtB5_16IERC1155ReceiverINtNtCslo5yAywcNl4_15alloy_sol_types7private12SolTypeValueB17_E13stv_to_tokensBb_
FNDA:0,_RNvXs1_NtNtNtCs6vaqcEMrLsG_19openzeppelin_stylus5token7erc11558receiverNtB5_16IERC1155ReceiverINtNtCslo5yAywcNl4_15alloy_sol_types7private12SolTypeValueB17_E20stv_abi_encoded_sizeBb_
FNDA:0,_RNvXs1_NtNtNtCs6vaqcEMrLsG_19openzeppelin_stylus5token7erc11558receiverNtB5_16IERC1155ReceiverINtNtCslo5yAywcNl4_15alloy_sol_types7private12SolTypeValueB17_E20stv_eip712_data_wordBb_
FNDA:0,_RNvXs1_NtNtNtCs6vaqcEMrLsG_19openzeppelin_stylus5token7erc11558receiverNtB5_16IERC1155ReceiverINtNtCslo5yAywcNl4_15alloy_sol_types7private12SolTypeValueB17_E24stv_abi_encode_packed_toBb_
FNDA:0,_RNvXs2_NtNtNtCs6vaqcEMrLsG_19openzeppelin_stylus5token7erc11558receiverNtB5_16IERC1155ReceiverNtNtNtCslo5yAywcNl4_15alloy_sol_types5types2ty7SolType11valid_token
FNDA:0,_RNvXs2_NtNtNtCs6vaqcEMrLsG_19openzeppelin_stylus5token7erc11558receiverNtB5_16IERC1155ReceiverNtNtNtCslo5yAywcNl4_15alloy_sol_types5types2ty7SolType10detokenize
FNDA:0,_RINvMNtNtNtCs6vaqcEMrLsG_19openzeppelin_stylus5token7erc11558receiverNtB3_16IERC1155Receiver20on_erc_1155_receivedINtNtNtCs8c3p7fi1c1U_10stylus_sdk4call7context4CallQNtB5_7Erc1155EEB9_
FNDA:0,_RINvMNtNtNtCs6vaqcEMrLsG_19openzeppelin_stylus5token7erc11558receiverNtB3_16IERC1155Receiver26on_erc_1155_batch_receivedINtNtNtCs8c3p7fi1c1U_10stylus_sdk4call7context4CallQNtB5_7Erc1155EEB9_
FNF:2
FNH:0
DA:7,0
DA:8,0
DA:9,0
DA:10,0
DA:11,0
DA:12,0
DA:13,0
DA:14,0
DA:15,0
DA:16,0
DA:17,0
DA:18,0
DA:19,0
DA:20,0
DA:21,0
DA:22,0
DA:23,0
DA:24,0
DA:25,0
DA:26,0
DA:27,0
DA:28,0
DA:29,0
DA:30,0
DA:31,0
DA:32,0
DA:33,0
DA:34,0
DA:35,0
DA:36,0
DA:37,0
DA:38,0
DA:39,0
DA:40,0
DA:41,0
DA:42,0
DA:43,0
DA:44,0
DA:45,0
DA:46,0
DA:47,0
DA:48,0
DA:49,0
DA:50,0
DA:51,0
DA:52,0
DA:53,0
DA:54,0
DA:55,0
DA:56,0
DA:57,0
DA:58,0
DA:59,0
BRF:0
BRH:0
LF:54
LH:0
end_of_record
SF:/home/nenad/repos/rust-contracts-stylus/contracts/src/token/erc20/extensions/burnable.rs
FN:66,_RNvXNtNtNtNtCsa86sUp9HUqm_19openzeppelin_stylus5token5erc2010extensions8burnableNtB6_5Erc20NtB2_14IErc20Burnable4burn
FN:70,_RNvXNtNtNtNtCsa86sUp9HUqm_19openzeppelin_stylus5token5erc2010extensions8burnableNtB6_5Erc20NtB2_14IErc20Burnable9burn_from
FN:66,_RNvXNtNtNtNtCs6vaqcEMrLsG_19openzeppelin_stylus5token5erc2010extensions8burnableNtB6_5Erc20NtB2_14IErc20Burnable4burn
FN:70,_RNvXNtNtNtNtCs6vaqcEMrLsG_19openzeppelin_stylus5token5erc2010extensions8burnableNtB6_5Erc20NtB2_14IErc20Burnable9burn_from
FN:88,_RNvNtNtNtNtNtCs6vaqcEMrLsG_19openzeppelin_stylus5token5erc2010extensions8burnable5testss_5burns
FN:109,_RNvNtNtNtNtNtCs6vaqcEMrLsG_19openzeppelin_stylus5token5erc2010extensions8burnable5testss_38burns_errors_when_insufficient_balance
FN:121,_RNvNtNtNtNtNtCs6vaqcEMrLsG_19openzeppelin_stylus5token5erc2010extensions8burnable5testss_9burn_from
FN:143,_RNvNtNtNtNtNtCs6vaqcEMrLsG_19openzeppelin_stylus5token5erc2010extensions8burnable5testss_43burns_from_errors_when_insufficient_balance
FN:160,_RNvNtNtNtNtNtCs6vaqcEMrLsG_19openzeppelin_stylus5token5erc2010extensions8burnable5testss_39burns_from_errors_when_invalid_approver
FN:174,_RNvNtNtNtNtNtCs6vaqcEMrLsG_19openzeppelin_stylus5token5erc2010extensions8burnable5testss_45burns_from_errors_when_insufficient_allowance
FNDA:0,_RNvXNtNtNtNtCsa86sUp9HUqm_19openzeppelin_stylus5token5erc2010extensions8burnableNtB6_5Erc20NtB2_14IErc20Burnable4burn
FNDA:0,_RNvXNtNtNtNtCsa86sUp9HUqm_19openzeppelin_stylus5token5erc2010extensions8burnableNtB6_5Erc20NtB2_14IErc20Burnable9burn_from
FNDA:2,_RNvXNtNtNtNtCs6vaqcEMrLsG_19openzeppelin_stylus5token5erc2010extensions8burnableNtB6_5Erc20NtB2_14IErc20Burnable4burn
FNDA:4,_RNvXNtNtNtNtCs6vaqcEMrLsG_19openzeppelin_stylus5token5erc2010extensions8burnableNtB6_5Erc20NtB2_14IErc20Burnable9burn_from
FNDA:1,_RNvNtNtNtNtNtCs6vaqcEMrLsG_19openzeppelin_stylus5token5erc2010extensions8burnable5testss_5burns
FNDA:1,_RNvNtNtNtNtNtCs6vaqcEMrLsG_19openzeppelin_stylus5token5erc2010extensions8burnable5testss_38burns_errors_when_insufficient_balance
FNDA:1,_RNvNtNtNtNtNtCs6vaqcEMrLsG_19openzeppelin_stylus5token5erc2010extensions8burnable5testss_9burn_from
FNDA:1,_RNvNtNtNtNtNtCs6vaqcEMrLsG_19openzeppelin_stylus5token5erc2010extensions8burnable5testss_43burns_from_errors_when_insufficient_balance
FNDA:1,_RNvNtNtNtNtNtCs6vaqcEMrLsG_19openzeppelin_stylus5token5erc2010extensions8burnable5testss_39burns_from_errors_when_invalid_approver
FNDA:1,_RNvNtNtNtNtNtCs6vaqcEMrLsG_19openzeppelin_stylus5token5erc2010extensions8burnable5testss_45burns_from_errors_when_insufficient_allowance
FNF:8
FNH:8
DA:66,2
DA:67,2
DA:68,2
DA:70,4
DA:71,4
DA:72,4
DA:73,4
DA:74,4
DA:75,4
DA:76,2
DA:77,4
DA:88,1
DA:109,1
DA:121,1
DA:143,1
DA:160,1
DA:174,1
BRF:0
BRH:0
LF:17
LH:17
end_of_record
SF:/home/nenad/repos/rust-contracts-stylus/contracts/src/token/erc20/extensions/capped.rs
FN:27,_RNvXs4_NtNtNtNtCsa86sUp9HUqm_19openzeppelin_stylus5token5erc2010extensions6cappedINtNtCsdDMkpvQxPWz_5alloc3vec3VechEINtNtCshuVUGNokh5j_4core7convert4FromNtB5_5ErrorE4from
FN:46,_RNvXININtNtNtNtCsa86sUp9HUqm_19openzeppelin_stylus5token5erc2010extensions6cappeds9_0pENtB5_6CappedINtNtCs8c3p7fi1c1U_10stylus_sdk3abi6RouterpE5routeBd_
FN:27,_RNvXs2_NtNtNtNtCsa86sUp9HUqm_19openzeppelin_stylus5token5erc2010extensions6cappedNtB5_5ErrorINtNtCshuVUGNokh5j_4core7convert4FromNtB5_16ERC20ExceededCapE4from
FN:27,_RNvXs3_NtNtNtNtCsa86sUp9HUqm_19openzeppelin_stylus5token5erc2010extensions6cappedNtB5_5ErrorINtNtCshuVUGNokh5j_4core7convert4FromNtB5_15ERC20InvalidCapE4from
FN:44,_RNvMs6_NtNtNtNtCsa86sUp9HUqm_19openzeppelin_stylus5token5erc2010extensions6cappedNtB5_6Capped14required_slots
FN:44,_RNvXs7_NtNtNtNtCsa86sUp9HUqm_19openzeppelin_stylus5token5erc2010extensions6cappedNtB5_6CappedNtNtNtCs8c3p7fi1c1U_10stylus_sdk7storage6traits11StorageType3new
FN:37,_RNvXs7_NtNtNtNtCsa86sUp9HUqm_19openzeppelin_stylus5token5erc2010extensions6cappedNtB5_6CappedNtNtNtCs8c3p7fi1c1U_10stylus_sdk7storage6traits11StorageType4load
FN:37,_RNvXs7_NtNtNtNtCsa86sUp9HUqm_19openzeppelin_stylus5token5erc2010extensions6cappedNtB5_6CappedNtNtNtCs8c3p7fi1c1U_10stylus_sdk7storage6traits11StorageType8load_mut
FN:49,_RNvMs8_NtNtNtNtCsa86sUp9HUqm_19openzeppelin_stylus5token5erc2010extensions6cappedNtB5_6Capped3cap
FN:46,_RNvMsa_NtNtNtNtCsa86sUp9HUqm_19openzeppelin_stylus5token5erc2010extensions6cappedNtB5_6Capped23___stylus_allow_override
FN:46,_RNvMsa_NtNtNtNtCsa86sUp9HUqm_19openzeppelin_stylus5token5erc2010extensions6cappedNtB5_6Capped25___stylus_assert_overrides
FN:46,_RNvXs9_NtNtNtNtCsa86sUp9HUqm_19openzeppelin_stylus5token5erc2010extensions6cappedNtB5_6CappedINtNtCs8c3p7fi1c1U_10stylus_sdk3abi6RouterNtCsjg4xJ1d9oPS_13erc20_example12Erc20ExampleE5routeB2b_
FN:46,_RNvXs9_NtNtNtNtCsa86sUp9HUqm_19openzeppelin_stylus5token5erc2010extensions6cappedNtB5_6CappedINtNtCs8c3p7fi1c1U_10stylus_sdk3abi6RouterNtCsfgI69mdyflo_13erc20_example12Erc20ExampleE5routeB2b_
FN:12,_RNvNvNtNtNtNtCs6vaqcEMrLsG_19openzeppelin_stylus5token5erc2010extensions6capped1__15__type_assertion
FN:12,_RNvNvNtNtNtNtCs6vaqcEMrLsG_19openzeppelin_stylus5token5erc2010extensions6cappeds_1__15__type_assertion
FN:27,_RNvXs2_NtNtNtNtCs6vaqcEMrLsG_19openzeppelin_stylus5token5erc2010extensions6cappedNtB5_5ErrorINtNtCshuVUGNokh5j_4core7convert4FromNtB5_16ERC20ExceededCapE4from
FN:27,_RNvXs3_NtNtNtNtCs6vaqcEMrLsG_19openzeppelin_stylus5token5erc2010extensions6cappedNtB5_5ErrorINtNtCshuVUGNokh5j_4core7convert4FromNtB5_15ERC20InvalidCapE4from
FN:27,_RNvXs4_NtNtNtNtCs6vaqcEMrLsG_19openzeppelin_stylus5token5erc2010extensions6cappedINtNtCsdDMkpvQxPWz_5alloc3vec3VechEINtNtCshuVUGNokh5j_4core7convert4FromNtB5_5ErrorE4from
FN:44,_RNvMs6_NtNtNtNtCs6vaqcEMrLsG_19openzeppelin_stylus5token5erc2010extensions6cappedNtB5_6Capped14required_slots
FN:37,_RNvXs7_NtNtNtNtCs6vaqcEMrLsG_19openzeppelin_stylus5token5erc2010extensions6cappedNtB5_6CappedNtNtNtCs8c3p7fi1c1U_10stylus_sdk7storage6traits11StorageType4load
FN:37,_RNvXs7_NtNtNtNtCs6vaqcEMrLsG_19openzeppelin_stylus5token5erc2010extensions6cappedNtB5_6CappedNtNtNtCs8c3p7fi1c1U_10stylus_sdk7storage6traits11StorageType8load_mut
FN:46,_RNvXININtNtNtNtCs6vaqcEMrLsG_19openzeppelin_stylus5token5erc2010extensions6cappeds9_0pENtB5_6CappedINtNtCs8c3p7fi1c1U_10stylus_sdk3abi6RouterpE5routeBd_
FN:46,_RNvMsa_NtNtNtNtCs6vaqcEMrLsG_19openzeppelin_stylus5token5erc2010extensions6cappedNtB5_6Capped23___stylus_allow_override
FN:46,_RNvMsa_NtNtNtNtCs6vaqcEMrLsG_19openzeppelin_stylus5token5erc2010extensions6cappedNtB5_6Capped25___stylus_assert_overrides
FN:44,_RNvXs7_NtNtNtNtCs6vaqcEMrLsG_19openzeppelin_stylus5token5erc2010extensions6cappedNtB5_6CappedNtNtNtCs8c3p7fi1c1U_10stylus_sdk7storage6traits11StorageType3new
FN:49,_RNvMs8_NtNtNtNtCs6vaqcEMrLsG_19openzeppelin_stylus5token5erc2010extensions6cappedNtB5_6Capped3cap
FN:60,_RNvNtNtNtNtNtCs6vaqcEMrLsG_19openzeppelin_stylus5token5erc2010extensions6capped5testss_9cap_works
FNDA:0,_RNvXs4_NtNtNtNtCsa86sUp9HUqm_19openzeppelin_stylus5token5erc2010extensions6cappedINtNtCsdDMkpvQxPWz_5alloc3vec3VechEINtNtCshuVUGNokh5j_4core7convert4FromNtB5_5ErrorE4from
FNDA:0,_RNvXININtNtNtNtCsa86sUp9HUqm_19openzeppelin_stylus5token5erc2010extensions6cappeds9_0pENtB5_6CappedINtNtCs8c3p7fi1c1U_10stylus_sdk3abi6RouterpE5routeBd_
FNDA:0,_RNvXs2_NtNtNtNtCsa86sUp9HUqm_19openzeppelin_stylus5token5erc2010extensions6cappedNtB5_5ErrorINtNtCshuVUGNokh5j_4core7convert4FromNtB5_16ERC20ExceededCapE4from
FNDA:0,_RNvXs3_NtNtNtNtCsa86sUp9HUqm_19openzeppelin_stylus5token5erc2010extensions6cappedNtB5_5ErrorINtNtCshuVUGNokh5j_4core7convert4FromNtB5_15ERC20InvalidCapE4from
FNDA:0,_RNvMs6_NtNtNtNtCsa86sUp9HUqm_19openzeppelin_stylus5token5erc2010extensions6cappedNtB5_6Capped14required_slots
FNDA:0,_RNvXs7_NtNtNtNtCsa86sUp9HUqm_19openzeppelin_stylus5token5erc2010extensions6cappedNtB5_6CappedNtNtNtCs8c3p7fi1c1U_10stylus_sdk7storage6traits11StorageType3new
FNDA:0,_RNvXs7_NtNtNtNtCsa86sUp9HUqm_19openzeppelin_stylus5token5erc2010extensions6cappedNtB5_6CappedNtNtNtCs8c3p7fi1c1U_10stylus_sdk7storage6traits11StorageType4load
FNDA:0,_RNvXs7_NtNtNtNtCsa86sUp9HUqm_19openzeppelin_stylus5token5erc2010extensions6cappedNtB5_6CappedNtNtNtCs8c3p7fi1c1U_10stylus_sdk7storage6traits11StorageType8load_mut
FNDA:0,_RNvMs8_NtNtNtNtCsa86sUp9HUqm_19openzeppelin_stylus5token5erc2010extensions6cappedNtB5_6Capped3cap
FNDA:0,_RNvMsa_NtNtNtNtCsa86sUp9HUqm_19openzeppelin_stylus5token5erc2010extensions6cappedNtB5_6Capped23___stylus_allow_override
FNDA:0,_RNvMsa_NtNtNtNtCsa86sUp9HUqm_19openzeppelin_stylus5token5erc2010extensions6cappedNtB5_6Capped25___stylus_assert_overrides
FNDA:0,_RNvXs9_NtNtNtNtCsa86sUp9HUqm_19openzeppelin_stylus5token5erc2010extensions6cappedNtB5_6CappedINtNtCs8c3p7fi1c1U_10stylus_sdk3abi6RouterNtCsjg4xJ1d9oPS_13erc20_example12Erc20ExampleE5routeB2b_
FNDA:0,_RNvXs9_NtNtNtNtCsa86sUp9HUqm_19openzeppelin_stylus5token5erc2010extensions6cappedNtB5_6CappedINtNtCs8c3p7fi1c1U_10stylus_sdk3abi6RouterNtCsfgI69mdyflo_13erc20_example12Erc20ExampleE5routeB2b_
FNDA:0,_RNvNvNtNtNtNtCs6vaqcEMrLsG_19openzeppelin_stylus5token5erc2010extensions6capped1__15__type_assertion
FNDA:0,_RNvNvNtNtNtNtCs6vaqcEMrLsG_19openzeppelin_stylus5token5erc2010extensions6cappeds_1__15__type_assertion
FNDA:0,_RNvXs2_NtNtNtNtCs6vaqcEMrLsG_19openzeppelin_stylus5token5erc2010extensions6cappedNtB5_5ErrorINtNtCshuVUGNokh5j_4core7convert4FromNtB5_16ERC20ExceededCapE4from
FNDA:0,_RNvXs3_NtNtNtNtCs6vaqcEMrLsG_19openzeppelin_stylus5token5erc2010extensions6cappedNtB5_5ErrorINtNtCshuVUGNokh5j_4core7convert4FromNtB5_15ERC20InvalidCapE4from
FNDA:0,_RNvXs4_NtNtNtNtCs6vaqcEMrLsG_19openzeppelin_stylus5token5erc2010extensions6cappedINtNtCsdDMkpvQxPWz_5alloc3vec3VechEINtNtCshuVUGNokh5j_4core7convert4FromNtB5_5ErrorE4from
FNDA:0,_RNvMs6_NtNtNtNtCs6vaqcEMrLsG_19openzeppelin_stylus5token5erc2010extensions6cappedNtB5_6Capped14required_slots
FNDA:0,_RNvXs7_NtNtNtNtCs6vaqcEMrLsG_19openzeppelin_stylus5token5erc2010extensions6cappedNtB5_6CappedNtNtNtCs8c3p7fi1c1U_10stylus_sdk7storage6traits11StorageType4load
FNDA:0,_RNvXs7_NtNtNtNtCs6vaqcEMrLsG_19openzeppelin_stylus5token5erc2010extensions6cappedNtB5_6CappedNtNtNtCs8c3p7fi1c1U_10stylus_sdk7storage6traits11StorageType8load_mut
FNDA:0,_RNvXININtNtNtNtCs6vaqcEMrLsG_19openzeppelin_stylus5token5erc2010extensions6cappeds9_0pENtB5_6CappedINtNtCs8c3p7fi1c1U_10stylus_sdk3abi6RouterpE5routeBd_
FNDA:0,_RNvMsa_NtNtNtNtCs6vaqcEMrLsG_19openzeppelin_stylus5token5erc2010extensions6cappedNtB5_6Capped23___stylus_allow_override
FNDA:0,_RNvMsa_NtNtNtNtCs6vaqcEMrLsG_19openzeppelin_stylus5token5erc2010extensions6cappedNtB5_6Capped25___stylus_assert_overrides
FNDA:1,_RNvXs7_NtNtNtNtCs6vaqcEMrLsG_19openzeppelin_stylus5token5erc2010extensions6cappedNtB5_6CappedNtNtNtCs8c3p7fi1c1U_10stylus_sdk7storage6traits11StorageType3new
FNDA:2,_RNvMs8_NtNtNtNtCs6vaqcEMrLsG_19openzeppelin_stylus5token5erc2010extensions6cappedNtB5_6Capped3cap
FNDA:1,_RNvNtNtNtNtNtCs6vaqcEMrLsG_19openzeppelin_stylus5token5erc2010extensions6capped5testss_9cap_works
FNF:7
FNH:3
DA:12,0
DA:13,0
DA:14,0
DA:15,0
DA:16,0
DA:17,0
DA:18,0
DA:19,0
DA:20,0
DA:21,0
DA:22,0
DA:23,0
DA:24,0
DA:27,0
DA:37,0
DA:38,0
DA:39,0
DA:40,0
DA:41,0
DA:42,0
DA:43,0
DA:44,1
DA:46,0
DA:49,2
DA:50,2
DA:51,2
DA:60,1
BRF:0
BRH:0
LF:28
LH:5
end_of_record
SF:/home/nenad/repos/rust-contracts-stylus/contracts/src/token/erc20/extensions/metadata.rs
FN:64,_RNvXININtNtNtNtCsa86sUp9HUqm_19openzeppelin_stylus5token5erc2010extensions8metadatas2_0pENtB5_13Erc20MetadataINtNtCs8c3p7fi1c1U_10stylus_sdk3abi6RouterpE5routeBd_
FN:64,_RNvXs2_NtNtNtNtCsa86sUp9HUqm_19openzeppelin_stylus5token5erc2010extensions8metadataNtB5_13Erc20MetadataINtNtCs8c3p7fi1c1U_10stylus_sdk3abi6RouterNtCs4i0YNmK4zRA_13basic_example12Erc20ExampleE5routeB2l_
FN:80,_RNvXNtNtNtNtCsa86sUp9HUqm_19openzeppelin_stylus5token5erc2010extensions8metadataNtB2_13Erc20MetadataNtNtNtNtBa_5utils13introspection6erc1657IErc16518supports_interface
FN:24,_RNvMs_NtNtNtNtCsa86sUp9HUqm_19openzeppelin_stylus5token5erc2010extensions8metadataNtB4_13Erc20Metadata14required_slots
FN:24,_RNvXs0_NtNtNtNtCsa86sUp9HUqm_19openzeppelin_stylus5token5erc2010extensions8metadataNtB5_13Erc20MetadataNtNtNtCs8c3p7fi1c1U_10stylus_sdk7storage6traits11StorageType3new
FN:16,_RNvXs0_NtNtNtNtCsa86sUp9HUqm_19openzeppelin_stylus5token5erc2010extensions8metadataNtB5_13Erc20MetadataNtNtNtCs8c3p7fi1c1U_10stylus_sdk7storage6traits11StorageType4load
FN:16,_RNvXs0_NtNtNtNtCsa86sUp9HUqm_19openzeppelin_stylus5token5erc2010extensions8metadataNtB5_13Erc20MetadataNtNtNtCs8c3p7fi1c1U_10stylus_sdk7storage6traits11StorageType8load_mut
FN:66,_RNvXs1_NtNtNtNtCsa86sUp9HUqm_19openzeppelin_stylus5token5erc2010extensions8metadataNtB5_13Erc20MetadataNtB5_14IErc20Metadata4name
FN:70,_RNvXs1_NtNtNtNtCsa86sUp9HUqm_19openzeppelin_stylus5token5erc2010extensions8metadataNtB5_13Erc20MetadataNtB5_14IErc20Metadata6symbol
FN:74,_RNvXs1_NtNtNtNtCsa86sUp9HUqm_19openzeppelin_stylus5token5erc2010extensions8metadataNtB5_13Erc20MetadataNtB5_14IErc20Metadata8decimals
FN:64,_RNvMs3_NtNtNtNtCsa86sUp9HUqm_19openzeppelin_stylus5token5erc2010extensions8metadataNtB5_13Erc20Metadata23___stylus_allow_override
FN:64,_RNvMs3_NtNtNtNtCsa86sUp9HUqm_19openzeppelin_stylus5token5erc2010extensions8metadataNtB5_13Erc20Metadata25___stylus_assert_overrides
FN:64,_RNvXs2_NtNtNtNtCsa86sUp9HUqm_19openzeppelin_stylus5token5erc2010extensions8metadataNtB5_13Erc20MetadataINtNtCs8c3p7fi1c1U_10stylus_sdk3abi6RouterNtCsjg4xJ1d9oPS_13erc20_example12Erc20ExampleE5routeB2l_
FN:64,_RNvXs2_NtNtNtNtCsa86sUp9HUqm_19openzeppelin_stylus5token5erc2010extensions8metadataNtB5_13Erc20MetadataINtNtCs8c3p7fi1c1U_10stylus_sdk3abi6RouterNtCsfgI69mdyflo_13erc20_example12Erc20ExampleE5routeB2l_
FN:90,_RNvNtNtNtNtNtCs6vaqcEMrLsG_19openzeppelin_stylus5token5erc2010extensions8metadata5testss_12interface_id
FN:24,_RNvMs_NtNtNtNtCs6vaqcEMrLsG_19openzeppelin_stylus5token5erc2010extensions8metadataNtB4_13Erc20Metadata14required_slots
FN:24,_RNvXs0_NtNtNtNtCs6vaqcEMrLsG_19openzeppelin_stylus5token5erc2010extensions8metadataNtB5_13Erc20MetadataNtNtNtCs8c3p7fi1c1U_10stylus_sdk7storage6traits11StorageType3new
FN:16,_RNvXs0_NtNtNtNtCs6vaqcEMrLsG_19openzeppelin_stylus5token5erc2010extensions8metadataNtB5_13Erc20MetadataNtNtNtCs8c3p7fi1c1U_10stylus_sdk7storage6traits11StorageType4load
FN:16,_RNvXs0_NtNtNtNtCs6vaqcEMrLsG_19openzeppelin_stylus5token5erc2010extensions8metadataNtB5_13Erc20MetadataNtNtNtCs8c3p7fi1c1U_10stylus_sdk7storage6traits11StorageType8load_mut
FN:66,_RNvXs1_NtNtNtNtCs6vaqcEMrLsG_19openzeppelin_stylus5token5erc2010extensions8metadataNtB5_13Erc20MetadataNtB5_14IErc20Metadata4name
FN:70,_RNvXs1_NtNtNtNtCs6vaqcEMrLsG_19openzeppelin_stylus5token5erc2010extensions8metadataNtB5_13Erc20MetadataNtB5_14IErc20Metadata6symbol
FN:74,_RNvXs1_NtNtNtNtCs6vaqcEMrLsG_19openzeppelin_stylus5token5erc2010extensions8metadataNtB5_13Erc20MetadataNtB5_14IErc20Metadata8decimals
FN:64,_RNvXININtNtNtNtCs6vaqcEMrLsG_19openzeppelin_stylus5token5erc2010extensions8metadatas2_0pENtB5_13Erc20MetadataINtNtCs8c3p7fi1c1U_10stylus_sdk3abi6RouterpE5routeBd_
FN:64,_RNvMs3_NtNtNtNtCs6vaqcEMrLsG_19openzeppelin_stylus5token5erc2010extensions8metadataNtB5_13Erc20Metadata23___stylus_allow_override
FN:64,_RNvMs3_NtNtNtNtCs6vaqcEMrLsG_19openzeppelin_stylus5token5erc2010extensions8metadataNtB5_13Erc20Metadata25___stylus_assert_overrides
FN:80,_RNvXNtNtNtNtCs6vaqcEMrLsG_19openzeppelin_stylus5token5erc2010extensions8metadataNtB2_13Erc20MetadataNtNtNtNtBa_5utils13introspection6erc1657IErc16518supports_interface
FNDA:0,_RNvXININtNtNtNtCsa86sUp9HUqm_19openzeppelin_stylus5token5erc2010extensions8metadatas2_0pENtB5_13Erc20MetadataINtNtCs8c3p7fi1c1U_10stylus_sdk3abi6RouterpE5routeBd_
FNDA:0,_RNvXs2_NtNtNtNtCsa86sUp9HUqm_19openzeppelin_stylus5token5erc2010extensions8metadataNtB5_13Erc20MetadataINtNtCs8c3p7fi1c1U_10stylus_sdk3abi6RouterNtCs4i0YNmK4zRA_13basic_example12Erc20ExampleE5routeB2l_
FNDA:0,_RNvXNtNtNtNtCsa86sUp9HUqm_19openzeppelin_stylus5token5erc2010extensions8metadataNtB2_13Erc20MetadataNtNtNtNtBa_5utils13introspection6erc1657IErc16518supports_interface
FNDA:0,_RNvMs_NtNtNtNtCsa86sUp9HUqm_19openzeppelin_stylus5token5erc2010extensions8metadataNtB4_13Erc20Metadata14required_slots
FNDA:0,_RNvXs0_NtNtNtNtCsa86sUp9HUqm_19openzeppelin_stylus5token5erc2010extensions8metadataNtB5_13Erc20MetadataNtNtNtCs8c3p7fi1c1U_10stylus_sdk7storage6traits11StorageType3new
FNDA:0,_RNvXs0_NtNtNtNtCsa86sUp9HUqm_19openzeppelin_stylus5token5erc2010extensions8metadataNtB5_13Erc20MetadataNtNtNtCs8c3p7fi1c1U_10stylus_sdk7storage6traits11StorageType4load
FNDA:0,_RNvXs0_NtNtNtNtCsa86sUp9HUqm_19openzeppelin_stylus5token5erc2010extensions8metadataNtB5_13Erc20MetadataNtNtNtCs8c3p7fi1c1U_10stylus_sdk7storage6traits11StorageType8load_mut
FNDA:0,_RNvXs1_NtNtNtNtCsa86sUp9HUqm_19openzeppelin_stylus5token5erc2010extensions8metadataNtB5_13Erc20MetadataNtB5_14IErc20Metadata4name
FNDA:0,_RNvXs1_NtNtNtNtCsa86sUp9HUqm_19openzeppelin_stylus5token5erc2010extensions8metadataNtB5_13Erc20MetadataNtB5_14IErc20Metadata6symbol
FNDA:0,_RNvXs1_NtNtNtNtCsa86sUp9HUqm_19openzeppelin_stylus5token5erc2010extensions8metadataNtB5_13Erc20MetadataNtB5_14IErc20Metadata8decimals
FNDA:0,_RNvMs3_NtNtNtNtCsa86sUp9HUqm_19openzeppelin_stylus5token5erc2010extensions8metadataNtB5_13Erc20Metadata23___stylus_allow_override
FNDA:0,_RNvMs3_NtNtNtNtCsa86sUp9HUqm_19openzeppelin_stylus5token5erc2010extensions8metadataNtB5_13Erc20Metadata25___stylus_assert_overrides
FNDA:0,_RNvXs2_NtNtNtNtCsa86sUp9HUqm_19openzeppelin_stylus5token5erc2010extensions8metadataNtB5_13Erc20MetadataINtNtCs8c3p7fi1c1U_10stylus_sdk3abi6RouterNtCsjg4xJ1d9oPS_13erc20_example12Erc20ExampleE5routeB2l_
FNDA:0,_RNvXs2_NtNtNtNtCsa86sUp9HUqm_19openzeppelin_stylus5token5erc2010extensions8metadataNtB5_13Erc20MetadataINtNtCs8c3p7fi1c1U_10stylus_sdk3abi6RouterNtCsfgI69mdyflo_13erc20_example12Erc20ExampleE5routeB2l_
FNDA:1,_RNvNtNtNtNtNtCs6vaqcEMrLsG_19openzeppelin_stylus5token5erc2010extensions8metadata5testss_12interface_id
FNDA:0,_RNvMs_NtNtNtNtCs6vaqcEMrLsG_19openzeppelin_stylus5token5erc2010extensions8metadataNtB4_13Erc20Metadata14required_slots
FNDA:0,_RNvXs0_NtNtNtNtCs6vaqcEMrLsG_19openzeppelin_stylus5token5erc2010extensions8metadataNtB5_13Erc20MetadataNtNtNtCs8c3p7fi1c1U_10stylus_sdk7storage6traits11StorageType3new
FNDA:0,_RNvXs0_NtNtNtNtCs6vaqcEMrLsG_19openzeppelin_stylus5token5erc2010extensions8metadataNtB5_13Erc20MetadataNtNtNtCs8c3p7fi1c1U_10stylus_sdk7storage6traits11StorageType4load
FNDA:0,_RNvXs0_NtNtNtNtCs6vaqcEMrLsG_19openzeppelin_stylus5token5erc2010extensions8metadataNtB5_13Erc20MetadataNtNtNtCs8c3p7fi1c1U_10stylus_sdk7storage6traits11StorageType8load_mut
FNDA:0,_RNvXs1_NtNtNtNtCs6vaqcEMrLsG_19openzeppelin_stylus5token5erc2010extensions8metadataNtB5_13Erc20MetadataNtB5_14IErc20Metadata4name
FNDA:0,_RNvXs1_NtNtNtNtCs6vaqcEMrLsG_19openzeppelin_stylus5token5erc2010extensions8metadataNtB5_13Erc20MetadataNtB5_14IErc20Metadata6symbol
FNDA:0,_RNvXs1_NtNtNtNtCs6vaqcEMrLsG_19openzeppelin_stylus5token5erc2010extensions8metadataNtB5_13Erc20MetadataNtB5_14IErc20Metadata8decimals
FNDA:0,_RNvXININtNtNtNtCs6vaqcEMrLsG_19openzeppelin_stylus5token5erc2010extensions8metadatas2_0pENtB5_13Erc20MetadataINtNtCs8c3p7fi1c1U_10stylus_sdk3abi6RouterpE5routeBd_
FNDA:0,_RNvMs3_NtNtNtNtCs6vaqcEMrLsG_19openzeppelin_stylus5token5erc2010extensions8metadataNtB5_13Erc20Metadata23___stylus_allow_override
FNDA:0,_RNvMs3_NtNtNtNtCs6vaqcEMrLsG_19openzeppelin_stylus5token5erc2010extensions8metadataNtB5_13Erc20Metadata25___stylus_assert_overrides
FNDA:0,_RNvXNtNtNtNtCs6vaqcEMrLsG_19openzeppelin_stylus5token5erc2010extensions8metadataNtB2_13Erc20MetadataNtNtNtNtBa_5utils13introspection6erc1657IErc16518supports_interface
FNF:8
FNH:1
DA:16,0
DA:17,0
DA:18,0
DA:19,0
DA:20,0
DA:21,0
DA:22,0
DA:23,0
DA:24,0
DA:64,0
DA:66,0
DA:67,0
DA:68,0
DA:70,0
DA:71,0
DA:72,0
DA:74,0
DA:75,0
DA:76,0
DA:80,0
DA:81,0
DA:82,0
DA:83,0
DA:90,1
BRF:0
BRH:0
LF:25
LH:1
end_of_record
SF:/home/nenad/repos/rust-contracts-stylus/contracts/src/token/erc20/extensions/permit.rs
FN:52,_RNvXs7_NtNtNtNtCsa86sUp9HUqm_19openzeppelin_stylus5token5erc2010extensions6permitINtNtCsdDMkpvQxPWz_5alloc3vec3VechEINtNtCshuVUGNokh5j_4core7convert4FromNtB5_5ErrorE4from
FN:77,_RNvMs9_NtNtNtNtCsa86sUp9HUqm_19openzeppelin_stylus5token5erc2010extensions6permitINtB5_11Erc20PermitpE14required_slotsBd_
FN:77,_RNvXININtNtNtNtCsa86sUp9HUqm_19openzeppelin_stylus5token5erc2010extensions6permitsa_0pEINtB5_11Erc20PermitpENtNtNtCs8c3p7fi1c1U_10stylus_sdk7storage6traits11StorageType3newBd_
FN:65,_RNvXININtNtNtNtCsa86sUp9HUqm_19openzeppelin_stylus5token5erc2010extensions6permitsa_0pEINtB5_11Erc20PermitpENtNtNtCs8c3p7fi1c1U_10stylus_sdk7storage6traits11StorageType4loadBd_
FN:65,_RNvXININtNtNtNtCsa86sUp9HUqm_19openzeppelin_stylus5token5erc2010extensions6permitsa_0pEINtB5_11Erc20PermitpENtNtNtCs8c3p7fi1c1U_10stylus_sdk7storage6traits11StorageType8load_mutBd_
FN:93,_RNvMsb_NtNtNtNtCsa86sUp9HUqm_19openzeppelin_stylus5token5erc2010extensions6permitINtB5_11Erc20PermitpE6noncesBd_
FN:105,_RNvMsb_NtNtNtNtCsa86sUp9HUqm_19openzeppelin_stylus5token5erc2010extensions6permitINtB5_11Erc20PermitpE16domain_separatorBd_
FN:149,_RNvMsb_NtNtNtNtCsa86sUp9HUqm_19openzeppelin_stylus5token5erc2010extensions6permitINtB5_11Erc20PermitpE6permitBd_
FN:190,_RNvMsb_NtNtNtNtCsa86sUp9HUqm_19openzeppelin_stylus5token5erc2010extensions6permitINtB5_11Erc20PermitpE12total_supplyBd_
FN:200,_RNvMsb_NtNtNtNtCsa86sUp9HUqm_19openzeppelin_stylus5token5erc2010extensions6permitINtB5_11Erc20PermitpE10balance_ofBd_
FN:224,_RNvMsb_NtNtNtNtCsa86sUp9HUqm_19openzeppelin_stylus5token5erc2010extensions6permitINtB5_11Erc20PermitpE8transferBd_
FN:243,_RNvMsb_NtNtNtNtCsa86sUp9HUqm_19openzeppelin_stylus5token5erc2010extensions6permitINtB5_11Erc20PermitpE9allowanceBd_
FN:274,_RNvMsb_NtNtNtNtCsa86sUp9HUqm_19openzeppelin_stylus5token5erc2010extensions6permitINtB5_11Erc20PermitpE7approveBd_
FN:311,_RNvMsb_NtNtNtNtCsa86sUp9HUqm_19openzeppelin_stylus5token5erc2010extensions6permitINtB5_11Erc20PermitpE13transfer_fromBd_
FN:84,_RNvXININtNtNtNtCsa86sUp9HUqm_19openzeppelin_stylus5token5erc2010extensions6permitsc_0ppEINtB5_11Erc20PermitpEINtNtCs8c3p7fi1c1U_10stylus_sdk3abi6RouterpE5routeBd_
FN:84,_RNvMsd_NtNtNtNtCsa86sUp9HUqm_19openzeppelin_stylus5token5erc2010extensions6permitINtB5_11Erc20PermitpE23___stylus_allow_overrideBd_
FN:84,_RNvMsd_NtNtNtNtCsa86sUp9HUqm_19openzeppelin_stylus5token5erc2010extensions6permitINtB5_11Erc20PermitpE25___stylus_assert_overridesBd_
FN:52,_RNvXs3_NtNtNtNtCsa86sUp9HUqm_19openzeppelin_stylus5token5erc2010extensions6permitNtB5_5ErrorINtNtCshuVUGNokh5j_4core7convert4FromNtB5_23ERC2612ExpiredSignatureE4from
FN:52,_RNvXs4_NtNtNtNtCsa86sUp9HUqm_19openzeppelin_stylus5token5erc2010extensions6permitNtB5_5ErrorINtNtCshuVUGNokh5j_4core7convert4FromNtB5_20ERC2612InvalidSignerE4from
FN:52,_RNvXs5_NtNtNtNtCsa86sUp9HUqm_19openzeppelin_stylus5token5erc2010extensions6permitNtB5_5ErrorINtNtCshuVUGNokh5j_4core7convert4FromNtB9_5ErrorE4from
FN:52,_RNvXs6_NtNtNtNtCsa86sUp9HUqm_19openzeppelin_stylus5token5erc2010extensions6permitNtB5_5ErrorINtNtCshuVUGNokh5j_4core7convert4FromNtNtNtNtBd_5utils12cryptography5ecdsa5ErrorE4from
FN:200,_RNvMsb_NtNtNtNtCsa86sUp9HUqm_19openzeppelin_stylus5token5erc2010extensions6permitINtB5_11Erc20PermitNtCs2fSegj5ukpe_20erc20_permit_example6Eip712E10balance_ofB1C_
FN:190,_RNvMsb_NtNtNtNtCsa86sUp9HUqm_19openzeppelin_stylus5token5erc2010extensions6permitINtB5_11Erc20PermitNtCs2fSegj5ukpe_20erc20_permit_example6Eip712E12total_supplyB1C_
FN:311,_RNvMsb_NtNtNtNtCsa86sUp9HUqm_19openzeppelin_stylus5token5erc2010extensions6permitINtB5_11Erc20PermitNtCs2fSegj5ukpe_20erc20_permit_example6Eip712E13transfer_fromB1C_
FN:105,_RNvMsb_NtNtNtNtCsa86sUp9HUqm_19openzeppelin_stylus5token5erc2010extensions6permitINtB5_11Erc20PermitNtCs2fSegj5ukpe_20erc20_permit_example6Eip712E16domain_separatorB1C_
FN:93,_RNvMsb_NtNtNtNtCsa86sUp9HUqm_19openzeppelin_stylus5token5erc2010extensions6permitINtB5_11Erc20PermitNtCs2fSegj5ukpe_20erc20_permit_example6Eip712E6noncesB1C_
FN:149,_RNvMsb_NtNtNtNtCsa86sUp9HUqm_19openzeppelin_stylus5token5erc2010extensions6permitINtB5_11Erc20PermitNtCs2fSegj5ukpe_20erc20_permit_example6Eip712E6permitB1C_
FN:274,_RNvMsb_NtNtNtNtCsa86sUp9HUqm_19openzeppelin_stylus5token5erc2010extensions6permitINtB5_11Erc20PermitNtCs2fSegj5ukpe_20erc20_permit_example6Eip712E7approveB1C_
FN:224,_RNvMsb_NtNtNtNtCsa86sUp9HUqm_19openzeppelin_stylus5token5erc2010extensions6permitINtB5_11Erc20PermitNtCs2fSegj5ukpe_20erc20_permit_example6Eip712E8transferB1C_
FN:243,_RNvMsb_NtNtNtNtCsa86sUp9HUqm_19openzeppelin_stylus5token5erc2010extensions6permitINtB5_11Erc20PermitNtCs2fSegj5ukpe_20erc20_permit_example6Eip712E9allowanceB1C_
FN:77,_RNvXsa_NtNtNtNtCsa86sUp9HUqm_19openzeppelin_stylus5token5erc2010extensions6permitINtB5_11Erc20PermitNtCs2fSegj5ukpe_20erc20_permit_example6Eip712ENtNtNtCs8c3p7fi1c1U_10stylus_sdk7storage6traits11StorageType3newB1C_
FN:84,_RNvXsc_NtNtNtNtCsa86sUp9HUqm_19openzeppelin_stylus5token5erc2010extensions6permitINtB5_11Erc20PermitNtCs2fSegj5ukpe_20erc20_permit_example6Eip712EINtNtCs8c3p7fi1c1U_10stylus_sdk3abi6RouterNtB1C_18Erc20PermitExampleE5routeB1C_
FN:84,_RNvXsc_NtNtNtNtCsa86sUp9HUqm_19openzeppelin_stylus5token5erc2010extensions6permitINtB5_11Erc20PermitNtCs4grWTwdL5S6_20erc20_permit_example6Eip712EINtNtCs8c3p7fi1c1U_10stylus_sdk3abi6RouterNtB1C_18Erc20PermitExampleE5routeB1C_
FN:200,_RNvMsb_NtNtNtNtCsa86sUp9HUqm_19openzeppelin_stylus5token5erc2010extensions6permitINtB5_11Erc20PermitNtCs4grWTwdL5S6_20erc20_permit_example6Eip712E10balance_ofB1C_
FN:190,_RNvMsb_NtNtNtNtCsa86sUp9HUqm_19openzeppelin_stylus5token5erc2010extensions6permitINtB5_11Erc20PermitNtCs4grWTwdL5S6_20erc20_permit_example6Eip712E12total_supplyB1C_
FN:311,_RNvMsb_NtNtNtNtCsa86sUp9HUqm_19openzeppelin_stylus5token5erc2010extensions6permitINtB5_11Erc20PermitNtCs4grWTwdL5S6_20erc20_permit_example6Eip712E13transfer_fromB1C_
FN:105,_RNvMsb_NtNtNtNtCsa86sUp9HUqm_19openzeppelin_stylus5token5erc2010extensions6permitINtB5_11Erc20PermitNtCs4grWTwdL5S6_20erc20_permit_example6Eip712E16domain_separatorB1C_
FN:93,_RNvMsb_NtNtNtNtCsa86sUp9HUqm_19openzeppelin_stylus5token5erc2010extensions6permitINtB5_11Erc20PermitNtCs4grWTwdL5S6_20erc20_permit_example6Eip712E6noncesB1C_
FN:149,_RNvMsb_NtNtNtNtCsa86sUp9HUqm_19openzeppelin_stylus5token5erc2010extensions6permitINtB5_11Erc20PermitNtCs4grWTwdL5S6_20erc20_permit_example6Eip712E6permitB1C_
FN:274,_RNvMsb_NtNtNtNtCsa86sUp9HUqm_19openzeppelin_stylus5token5erc2010extensions6permitINtB5_11Erc20PermitNtCs4grWTwdL5S6_20erc20_permit_example6Eip712E7approveB1C_
FN:224,_RNvMsb_NtNtNtNtCsa86sUp9HUqm_19openzeppelin_stylus5token5erc2010extensions6permitINtB5_11Erc20PermitNtCs4grWTwdL5S6_20erc20_permit_example6Eip712E8transferB1C_
FN:243,_RNvMsb_NtNtNtNtCsa86sUp9HUqm_19openzeppelin_stylus5token5erc2010extensions6permitINtB5_11Erc20PermitNtCs4grWTwdL5S6_20erc20_permit_example6Eip712E9allowanceB1C_
FN:77,_RNvXsa_NtNtNtNtCsa86sUp9HUqm_19openzeppelin_stylus5token5erc2010extensions6permitINtB5_11Erc20PermitNtCs4grWTwdL5S6_20erc20_permit_example6Eip712ENtNtNtCs8c3p7fi1c1U_10stylus_sdk7storage6traits11StorageType3newB1C_
FN:38,_RNvNvNtNtNtNtCs6vaqcEMrLsG_19openzeppelin_stylus5token5erc2010extensions6permit1__15__type_assertion
FN:38,_RNvNvNtNtNtNtCs6vaqcEMrLsG_19openzeppelin_stylus5token5erc2010extensions6permits_1__15__type_assertion
FN:52,_RNvXs3_NtNtNtNtCs6vaqcEMrLsG_19openzeppelin_stylus5token5erc2010extensions6permitNtB5_5ErrorINtNtCshuVUGNokh5j_4core7convert4FromNtB5_23ERC2612ExpiredSignatureE4from
FN:52,_RNvXs4_NtNtNtNtCs6vaqcEMrLsG_19openzeppelin_stylus5token5erc2010extensions6permitNtB5_5ErrorINtNtCshuVUGNokh5j_4core7convert4FromNtB5_20ERC2612InvalidSignerE4from
FN:52,_RNvXs5_NtNtNtNtCs6vaqcEMrLsG_19openzeppelin_stylus5token5erc2010extensions6permitNtB5_5ErrorINtNtCshuVUGNokh5j_4core7convert4FromNtB9_5ErrorE4from
FN:52,_RNvXs6_NtNtNtNtCs6vaqcEMrLsG_19openzeppelin_stylus5token5erc2010extensions6permitNtB5_5ErrorINtNtCshuVUGNokh5j_4core7convert4FromNtNtNtNtBd_5utils12cryptography5ecdsa5ErrorE4from
FN:52,_RNvXs7_NtNtNtNtCs6vaqcEMrLsG_19openzeppelin_stylus5token5erc2010extensions6permitINtNtCsdDMkpvQxPWz_5alloc3vec3VechEINtNtCshuVUGNokh5j_4core7convert4FromNtB5_5ErrorE4from
FN:77,_RNvMs9_NtNtNtNtCs6vaqcEMrLsG_19openzeppelin_stylus5token5erc2010extensions6permitINtB5_11Erc20PermitpE14required_slotsBd_
FN:77,_RNvXININtNtNtNtCs6vaqcEMrLsG_19openzeppelin_stylus5token5erc2010extensions6permitsa_0pEINtB5_11Erc20PermitpENtNtNtCs8c3p7fi1c1U_10stylus_sdk7storage6traits11StorageType3newBd_
FN:65,_RNvXININtNtNtNtCs6vaqcEMrLsG_19openzeppelin_stylus5token5erc2010extensions6permitsa_0pEINtB5_11Erc20PermitpENtNtNtCs8c3p7fi1c1U_10stylus_sdk7storage6traits11StorageType4loadBd_
FN:65,_RNvXININtNtNtNtCs6vaqcEMrLsG_19openzeppelin_stylus5token5erc2010extensions6permitsa_0pEINtB5_11Erc20PermitpENtNtNtCs8c3p7fi1c1U_10stylus_sdk7storage6traits11StorageType8load_mutBd_
FN:93,_RNvMsb_NtNtNtNtCs6vaqcEMrLsG_19openzeppelin_stylus5token5erc2010extensions6permitINtB5_11Erc20PermitpE6noncesBd_
FN:105,_RNvMsb_NtNtNtNtCs6vaqcEMrLsG_19openzeppelin_stylus5token5erc2010extensions6permitINtB5_11Erc20PermitpE16domain_separatorBd_
FN:149,_RNvMsb_NtNtNtNtCs6vaqcEMrLsG_19openzeppelin_stylus5token5erc2010extensions6permitINtB5_11Erc20PermitpE6permitBd_
FN:190,_RNvMsb_NtNtNtNtCs6vaqcEMrLsG_19openzeppelin_stylus5token5erc2010extensions6permitINtB5_11Erc20PermitpE12total_supplyBd_
FN:200,_RNvMsb_NtNtNtNtCs6vaqcEMrLsG_19openzeppelin_stylus5token5erc2010extensions6permitINtB5_11Erc20PermitpE10balance_ofBd_
FN:224,_RNvMsb_NtNtNtNtCs6vaqcEMrLsG_19openzeppelin_stylus5token5erc2010extensions6permitINtB5_11Erc20PermitpE8transferBd_
FN:243,_RNvMsb_NtNtNtNtCs6vaqcEMrLsG_19openzeppelin_stylus5token5erc2010extensions6permitINtB5_11Erc20PermitpE9allowanceBd_
FN:274,_RNvMsb_NtNtNtNtCs6vaqcEMrLsG_19openzeppelin_stylus5token5erc2010extensions6permitINtB5_11Erc20PermitpE7approveBd_
FN:311,_RNvMsb_NtNtNtNtCs6vaqcEMrLsG_19openzeppelin_stylus5token5erc2010extensions6permitINtB5_11Erc20PermitpE13transfer_fromBd_
FN:84,_RNvXININtNtNtNtCs6vaqcEMrLsG_19openzeppelin_stylus5token5erc2010extensions6permitsc_0ppEINtB5_11Erc20PermitpEINtNtCs8c3p7fi1c1U_10stylus_sdk3abi6RouterpE5routeBd_
FN:84,_RNvMsd_NtNtNtNtCs6vaqcEMrLsG_19openzeppelin_stylus5token5erc2010extensions6permitINtB5_11Erc20PermitpE23___stylus_allow_overrideBd_
FN:84,_RNvMsd_NtNtNtNtCs6vaqcEMrLsG_19openzeppelin_stylus5token5erc2010extensions6permitINtB5_11Erc20PermitpE25___stylus_assert_overridesBd_
FNDA:0,_RNvXs7_NtNtNtNtCsa86sUp9HUqm_19openzeppelin_stylus5token5erc2010extensions6permitINtNtCsdDMkpvQxPWz_5alloc3vec3VechEINtNtCshuVUGNokh5j_4core7convert4FromNtB5_5ErrorE4from
FNDA:0,_RNvMs9_NtNtNtNtCsa86sUp9HUqm_19openzeppelin_stylus5token5erc2010extensions6permitINtB5_11Erc20PermitpE14required_slotsBd_
FNDA:0,_RNvXININtNtNtNtCsa86sUp9HUqm_19openzeppelin_stylus5token5erc2010extensions6permitsa_0pEINtB5_11Erc20PermitpENtNtNtCs8c3p7fi1c1U_10stylus_sdk7storage6traits11StorageType3newBd_
FNDA:0,_RNvXININtNtNtNtCsa86sUp9HUqm_19openzeppelin_stylus5token5erc2010extensions6permitsa_0pEINtB5_11Erc20PermitpENtNtNtCs8c3p7fi1c1U_10stylus_sdk7storage6traits11StorageType4loadBd_
FNDA:0,_RNvXININtNtNtNtCsa86sUp9HUqm_19openzeppelin_stylus5token5erc2010extensions6permitsa_0pEINtB5_11Erc20PermitpENtNtNtCs8c3p7fi1c1U_10stylus_sdk7storage6traits11StorageType8load_mutBd_
FNDA:0,_RNvMsb_NtNtNtNtCsa86sUp9HUqm_19openzeppelin_stylus5token5erc2010extensions6permitINtB5_11Erc20PermitpE6noncesBd_
FNDA:0,_RNvMsb_NtNtNtNtCsa86sUp9HUqm_19openzeppelin_stylus5token5erc2010extensions6permitINtB5_11Erc20PermitpE16domain_separatorBd_
FNDA:0,_RNvMsb_NtNtNtNtCsa86sUp9HUqm_19openzeppelin_stylus5token5erc2010extensions6permitINtB5_11Erc20PermitpE6permitBd_
FNDA:0,_RNvMsb_NtNtNtNtCsa86sUp9HUqm_19openzeppelin_stylus5token5erc2010extensions6permitINtB5_11Erc20PermitpE12total_supplyBd_
FNDA:0,_RNvMsb_NtNtNtNtCsa86sUp9HUqm_19openzeppelin_stylus5token5erc2010extensions6permitINtB5_11Erc20PermitpE10balance_ofBd_
FNDA:0,_RNvMsb_NtNtNtNtCsa86sUp9HUqm_19openzeppelin_stylus5token5erc2010extensions6permitINtB5_11Erc20PermitpE8transferBd_
FNDA:0,_RNvMsb_NtNtNtNtCsa86sUp9HUqm_19openzeppelin_stylus5token5erc2010extensions6permitINtB5_11Erc20PermitpE9allowanceBd_
FNDA:0,_RNvMsb_NtNtNtNtCsa86sUp9HUqm_19openzeppelin_stylus5token5erc2010extensions6permitINtB5_11Erc20PermitpE7approveBd_
FNDA:0,_RNvMsb_NtNtNtNtCsa86sUp9HUqm_19openzeppelin_stylus5token5erc2010extensions6permitINtB5_11Erc20PermitpE13transfer_fromBd_
FNDA:0,_RNvXININtNtNtNtCsa86sUp9HUqm_19openzeppelin_stylus5token5erc2010extensions6permitsc_0ppEINtB5_11Erc20PermitpEINtNtCs8c3p7fi1c1U_10stylus_sdk3abi6RouterpE5routeBd_
FNDA:0,_RNvMsd_NtNtNtNtCsa86sUp9HUqm_19openzeppelin_stylus5token5erc2010extensions6permitINtB5_11Erc20PermitpE23___stylus_allow_overrideBd_
FNDA:0,_RNvMsd_NtNtNtNtCsa86sUp9HUqm_19openzeppelin_stylus5token5erc2010extensions6permitINtB5_11Erc20PermitpE25___stylus_assert_overridesBd_
FNDA:0,_RNvXs3_NtNtNtNtCsa86sUp9HUqm_19openzeppelin_stylus5token5erc2010extensions6permitNtB5_5ErrorINtNtCshuVUGNokh5j_4core7convert4FromNtB5_23ERC2612ExpiredSignatureE4from
FNDA:0,_RNvXs4_NtNtNtNtCsa86sUp9HUqm_19openzeppelin_stylus5token5erc2010extensions6permitNtB5_5ErrorINtNtCshuVUGNokh5j_4core7convert4FromNtB5_20ERC2612InvalidSignerE4from
FNDA:0,_RNvXs5_NtNtNtNtCsa86sUp9HUqm_19openzeppelin_stylus5token5erc2010extensions6permitNtB5_5ErrorINtNtCshuVUGNokh5j_4core7convert4FromNtB9_5ErrorE4from
FNDA:0,_RNvXs6_NtNtNtNtCsa86sUp9HUqm_19openzeppelin_stylus5token5erc2010extensions6permitNtB5_5ErrorINtNtCshuVUGNokh5j_4core7convert4FromNtNtNtNtBd_5utils12cryptography5ecdsa5ErrorE4from
FNDA:0,_RNvMsb_NtNtNtNtCsa86sUp9HUqm_19openzeppelin_stylus5token5erc2010extensions6permitINtB5_11Erc20PermitNtCs2fSegj5ukpe_20erc20_permit_example6Eip712E10balance_ofB1C_
FNDA:0,_RNvMsb_NtNtNtNtCsa86sUp9HUqm_19openzeppelin_stylus5token5erc2010extensions6permitINtB5_11Erc20PermitNtCs2fSegj5ukpe_20erc20_permit_example6Eip712E12total_supplyB1C_
FNDA:0,_RNvMsb_NtNtNtNtCsa86sUp9HUqm_19openzeppelin_stylus5token5erc2010extensions6permitINtB5_11Erc20PermitNtCs2fSegj5ukpe_20erc20_permit_example6Eip712E13transfer_fromB1C_
FNDA:0,_RNvMsb_NtNtNtNtCsa86sUp9HUqm_19openzeppelin_stylus5token5erc2010extensions6permitINtB5_11Erc20PermitNtCs2fSegj5ukpe_20erc20_permit_example6Eip712E16domain_separatorB1C_
FNDA:0,_RNvMsb_NtNtNtNtCsa86sUp9HUqm_19openzeppelin_stylus5token5erc2010extensions6permitINtB5_11Erc20PermitNtCs2fSegj5ukpe_20erc20_permit_example6Eip712E6noncesB1C_
FNDA:0,_RNvMsb_NtNtNtNtCsa86sUp9HUqm_19openzeppelin_stylus5token5erc2010extensions6permitINtB5_11Erc20PermitNtCs2fSegj5ukpe_20erc20_permit_example6Eip712E6permitB1C_
FNDA:0,_RNvMsb_NtNtNtNtCsa86sUp9HUqm_19openzeppelin_stylus5token5erc2010extensions6permitINtB5_11Erc20PermitNtCs2fSegj5ukpe_20erc20_permit_example6Eip712E7approveB1C_
FNDA:0,_RNvMsb_NtNtNtNtCsa86sUp9HUqm_19openzeppelin_stylus5token5erc2010extensions6permitINtB5_11Erc20PermitNtCs2fSegj5ukpe_20erc20_permit_example6Eip712E8transferB1C_
FNDA:0,_RNvMsb_NtNtNtNtCsa86sUp9HUqm_19openzeppelin_stylus5token5erc2010extensions6permitINtB5_11Erc20PermitNtCs2fSegj5ukpe_20erc20_permit_example6Eip712E9allowanceB1C_
FNDA:0,_RNvXsa_NtNtNtNtCsa86sUp9HUqm_19openzeppelin_stylus5token5erc2010extensions6permitINtB5_11Erc20PermitNtCs2fSegj5ukpe_20erc20_permit_example6Eip712ENtNtNtCs8c3p7fi1c1U_10stylus_sdk7storage6traits11StorageType3newB1C_
FNDA:0,_RNvXsc_NtNtNtNtCsa86sUp9HUqm_19openzeppelin_stylus5token5erc2010extensions6permitINtB5_11Erc20PermitNtCs2fSegj5ukpe_20erc20_permit_example6Eip712EINtNtCs8c3p7fi1c1U_10stylus_sdk3abi6RouterNtB1C_18Erc20PermitExampleE5routeB1C_
FNDA:0,_RNvXsc_NtNtNtNtCsa86sUp9HUqm_19openzeppelin_stylus5token5erc2010extensions6permitINtB5_11Erc20PermitNtCs4grWTwdL5S6_20erc20_permit_example6Eip712EINtNtCs8c3p7fi1c1U_10stylus_sdk3abi6RouterNtB1C_18Erc20PermitExampleE5routeB1C_
FNDA:0,_RNvMsb_NtNtNtNtCsa86sUp9HUqm_19openzeppelin_stylus5token5erc2010extensions6permitINtB5_11Erc20PermitNtCs4grWTwdL5S6_20erc20_permit_example6Eip712E10balance_ofB1C_
FNDA:0,_RNvMsb_NtNtNtNtCsa86sUp9HUqm_19openzeppelin_stylus5token5erc2010extensions6permitINtB5_11Erc20PermitNtCs4grWTwdL5S6_20erc20_permit_example6Eip712E12total_supplyB1C_
FNDA:0,_RNvMsb_NtNtNtNtCsa86sUp9HUqm_19openzeppelin_stylus5token5erc2010extensions6permitINtB5_11Erc20PermitNtCs4grWTwdL5S6_20erc20_permit_example6Eip712E13transfer_fromB1C_
FNDA:0,_RNvMsb_NtNtNtNtCsa86sUp9HUqm_19openzeppelin_stylus5token5erc2010extensions6permitINtB5_11Erc20PermitNtCs4grWTwdL5S6_20erc20_permit_example6Eip712E16domain_separatorB1C_
FNDA:0,_RNvMsb_NtNtNtNtCsa86sUp9HUqm_19openzeppelin_stylus5token5erc2010extensions6permitINtB5_11Erc20PermitNtCs4grWTwdL5S6_20erc20_permit_example6Eip712E6noncesB1C_
FNDA:0,_RNvMsb_NtNtNtNtCsa86sUp9HUqm_19openzeppelin_stylus5token5erc2010extensions6permitINtB5_11Erc20PermitNtCs4grWTwdL5S6_20erc20_permit_example6Eip712E6permitB1C_
FNDA:0,_RNvMsb_NtNtNtNtCsa86sUp9HUqm_19openzeppelin_stylus5token5erc2010extensions6permitINtB5_11Erc20PermitNtCs4grWTwdL5S6_20erc20_permit_example6Eip712E7approveB1C_
FNDA:0,_RNvMsb_NtNtNtNtCsa86sUp9HUqm_19openzeppelin_stylus5token5erc2010extensions6permitINtB5_11Erc20PermitNtCs4grWTwdL5S6_20erc20_permit_example6Eip712E8transferB1C_
FNDA:0,_RNvMsb_NtNtNtNtCsa86sUp9HUqm_19openzeppelin_stylus5token5erc2010extensions6permitINtB5_11Erc20PermitNtCs4grWTwdL5S6_20erc20_permit_example6Eip712E9allowanceB1C_
FNDA:0,_RNvXsa_NtNtNtNtCsa86sUp9HUqm_19openzeppelin_stylus5token5erc2010extensions6permitINtB5_11Erc20PermitNtCs4grWTwdL5S6_20erc20_permit_example6Eip712ENtNtNtCs8c3p7fi1c1U_10stylus_sdk7storage6traits11StorageType3newB1C_
FNDA:0,_RNvNvNtNtNtNtCs6vaqcEMrLsG_19openzeppelin_stylus5token5erc2010extensions6permit1__15__type_assertion
FNDA:0,_RNvNvNtNtNtNtCs6vaqcEMrLsG_19openzeppelin_stylus5token5erc2010extensions6permits_1__15__type_assertion
FNDA:0,_RNvXs3_NtNtNtNtCs6vaqcEMrLsG_19openzeppelin_stylus5token5erc2010extensions6permitNtB5_5ErrorINtNtCshuVUGNokh5j_4core7convert4FromNtB5_23ERC2612ExpiredSignatureE4from
FNDA:0,_RNvXs4_NtNtNtNtCs6vaqcEMrLsG_19openzeppelin_stylus5token5erc2010extensions6permitNtB5_5ErrorINtNtCshuVUGNokh5j_4core7convert4FromNtB5_20ERC2612InvalidSignerE4from
FNDA:0,_RNvXs5_NtNtNtNtCs6vaqcEMrLsG_19openzeppelin_stylus5token5erc2010extensions6permitNtB5_5ErrorINtNtCshuVUGNokh5j_4core7convert4FromNtB9_5ErrorE4from
FNDA:0,_RNvXs6_NtNtNtNtCs6vaqcEMrLsG_19openzeppelin_stylus5token5erc2010extensions6permitNtB5_5ErrorINtNtCshuVUGNokh5j_4core7convert4FromNtNtNtNtBd_5utils12cryptography5ecdsa5ErrorE4from
FNDA:0,_RNvXs7_NtNtNtNtCs6vaqcEMrLsG_19openzeppelin_stylus5token5erc2010extensions6permitINtNtCsdDMkpvQxPWz_5alloc3vec3VechEINtNtCshuVUGNokh5j_4core7convert4FromNtB5_5ErrorE4from
FNDA:0,_RNvMs9_NtNtNtNtCs6vaqcEMrLsG_19openzeppelin_stylus5token5erc2010extensions6permitINtB5_11Erc20PermitpE14required_slotsBd_
FNDA:0,_RNvXININtNtNtNtCs6vaqcEMrLsG_19openzeppelin_stylus5token5erc2010extensions6permitsa_0pEINtB5_11Erc20PermitpENtNtNtCs8c3p7fi1c1U_10stylus_sdk7storage6traits11StorageType3newBd_
FNDA:0,_RNvXININtNtNtNtCs6vaqcEMrLsG_19openzeppelin_stylus5token5erc2010extensions6permitsa_0pEINtB5_11Erc20PermitpENtNtNtCs8c3p7fi1c1U_10stylus_sdk7storage6traits11StorageType4loadBd_
FNDA:0,_RNvXININtNtNtNtCs6vaqcEMrLsG_19openzeppelin_stylus5token5erc2010extensions6permitsa_0pEINtB5_11Erc20PermitpENtNtNtCs8c3p7fi1c1U_10stylus_sdk7storage6traits11StorageType8load_mutBd_
FNDA:0,_RNvMsb_NtNtNtNtCs6vaqcEMrLsG_19openzeppelin_stylus5token5erc2010extensions6permitINtB5_11Erc20PermitpE6noncesBd_
FNDA:0,_RNvMsb_NtNtNtNtCs6vaqcEMrLsG_19openzeppelin_stylus5token5erc2010extensions6permitINtB5_11Erc20PermitpE16domain_separatorBd_
FNDA:0,_RNvMsb_NtNtNtNtCs6vaqcEMrLsG_19openzeppelin_stylus5token5erc2010extensions6permitINtB5_11Erc20PermitpE6permitBd_
FNDA:0,_RNvMsb_NtNtNtNtCs6vaqcEMrLsG_19openzeppelin_stylus5token5erc2010extensions6permitINtB5_11Erc20PermitpE12total_supplyBd_
FNDA:0,_RNvMsb_NtNtNtNtCs6vaqcEMrLsG_19openzeppelin_stylus5token5erc2010extensions6permitINtB5_11Erc20PermitpE10balance_ofBd_
FNDA:0,_RNvMsb_NtNtNtNtCs6vaqcEMrLsG_19openzeppelin_stylus5token5erc2010extensions6permitINtB5_11Erc20PermitpE8transferBd_
FNDA:0,_RNvMsb_NtNtNtNtCs6vaqcEMrLsG_19openzeppelin_stylus5token5erc2010extensions6permitINtB5_11Erc20PermitpE9allowanceBd_
FNDA:0,_RNvMsb_NtNtNtNtCs6vaqcEMrLsG_19openzeppelin_stylus5token5erc2010extensions6permitINtB5_11Erc20PermitpE7approveBd_
FNDA:0,_RNvMsb_NtNtNtNtCs6vaqcEMrLsG_19openzeppelin_stylus5token5erc2010extensions6permitINtB5_11Erc20PermitpE13transfer_fromBd_
FNDA:0,_RNvXININtNtNtNtCs6vaqcEMrLsG_19openzeppelin_stylus5token5erc2010extensions6permitsc_0ppEINtB5_11Erc20PermitpEINtNtCs8c3p7fi1c1U_10stylus_sdk3abi6RouterpE5routeBd_
FNDA:0,_RNvMsd_NtNtNtNtCs6vaqcEMrLsG_19openzeppelin_stylus5token5erc2010extensions6permitINtB5_11Erc20PermitpE23___stylus_allow_overrideBd_
FNDA:0,_RNvMsd_NtNtNtNtCs6vaqcEMrLsG_19openzeppelin_stylus5token5erc2010extensions6permitINtB5_11Erc20PermitpE25___stylus_assert_overridesBd_
FNF:14
FNH:0
DA:38,0
DA:39,0
DA:40,0
DA:41,0
DA:42,0
DA:43,0
DA:44,0
DA:45,0
DA:46,0
DA:47,0
DA:48,0
DA:49,0
DA:52,0
DA:65,0
DA:66,0
DA:67,0
DA:68,0
DA:69,0
DA:70,0
DA:71,0
DA:72,0
DA:73,0
DA:74,0
DA:75,0
DA:76,0
DA:77,0
DA:84,0
DA:93,0
DA:94,0
DA:95,0
DA:105,0
DA:106,0
DA:107,0
DA:149,0
DA:150,0
DA:151,0
DA:152,0
DA:153,0
DA:154,0
DA:155,0
DA:156,0
DA:157,0
DA:158,0
DA:159,0
DA:160,0
DA:161,0
DA:162,0
DA:163,0
DA:164,0
DA:165,0
DA:166,0
DA:167,0
DA:168,0
DA:169,0
DA:170,0
DA:171,0
DA:172,0
DA:174,0
DA:176,0
DA:177,0
DA:178,0
DA:179,0
DA:180,0
DA:182,0
DA:183,0
DA:190,0
DA:191,0
DA:192,0
DA:200,0
DA:201,0
DA:202,0
DA:224,0
DA:225,0
DA:226,0
DA:227,0
DA:228,0
DA:229,0
DA:230,0
DA:243,0
DA:244,0
DA:245,0
DA:274,0
DA:275,0
DA:276,0
DA:277,0
DA:278,0
DA:279,0
DA:280,0
DA:311,0
DA:312,0
DA:313,0
DA:314,0
DA:315,0
DA:316,0
DA:317,0
DA:318,0
BRF:0
BRH:0
LF:97
LH:0
end_of_record
SF:/home/nenad/repos/rust-contracts-stylus/contracts/src/token/erc20/mod.rs
FN:256,_RNvXsq_NtNtCsa86sUp9HUqm_19openzeppelin_stylus5token5erc20NtB5_5Erc20INtNtCs8c3p7fi1c1U_10stylus_sdk3abi6RouterNtCs3Wda7GwUxlw_22access_control_example20AccessControlExampleE5routeB1N_
FN:110,_RNvXNtNtCsa86sUp9HUqm_19openzeppelin_stylus5token5erc20NtB2_5ErrorNtNtNtCs8c3p7fi1c1U_10stylus_sdk4call5error11MethodError6encode
FN:305,_RNvXs_NtNtCsa86sUp9HUqm_19openzeppelin_stylus5token5erc20NtB4_5Erc20NtNtNtNtB8_5utils13introspection6erc1657IErc16518supports_interface
FN:331,_RNvMs0_NtNtCsa86sUp9HUqm_19openzeppelin_stylus5token5erc20NtB5_5Erc208__approve
FN:378,_RNvMs0_NtNtCsa86sUp9HUqm_19openzeppelin_stylus5token5erc20NtB5_5Erc209__transfer
FN:417,_RNvMs0_NtNtCsa86sUp9HUqm_19openzeppelin_stylus5token5erc20NtB5_5Erc205__mint
FN:455,_RNvMs0_NtNtCsa86sUp9HUqm_19openzeppelin_stylus5token5erc20NtB5_5Erc207__update
FN:524,_RNvMs0_NtNtCsa86sUp9HUqm_19openzeppelin_stylus5token5erc20NtB5_5Erc205__burn
FN:552,_RNvMs0_NtNtCsa86sUp9HUqm_19openzeppelin_stylus5token5erc20NtB5_5Erc2016__spend_allowance
FN:89,_RNvXsf_NtNtCsa86sUp9HUqm_19openzeppelin_stylus5token5erc20NtB5_5ErrorINtNtCshuVUGNokh5j_4core7convert4FromNtB5_24ERC20InsufficientBalanceE4from
FN:89,_RNvXsg_NtNtCsa86sUp9HUqm_19openzeppelin_stylus5token5erc20NtB5_5ErrorINtNtCshuVUGNokh5j_4core7convert4FromNtB5_18ERC20InvalidSenderE4from
FN:89,_RNvXsh_NtNtCsa86sUp9HUqm_19openzeppelin_stylus5token5erc20NtB5_5ErrorINtNtCshuVUGNokh5j_4core7convert4FromNtB5_20ERC20InvalidReceiverE4from
FN:89,_RNvXsi_NtNtCsa86sUp9HUqm_19openzeppelin_stylus5token5erc20NtB5_5ErrorINtNtCshuVUGNokh5j_4core7convert4FromNtB5_26ERC20InsufficientAllowanceE4from
FN:89,_RNvXsj_NtNtCsa86sUp9HUqm_19openzeppelin_stylus5token5erc20NtB5_5ErrorINtNtCshuVUGNokh5j_4core7convert4FromNtB5_19ERC20InvalidSpenderE4from
FN:89,_RNvXsk_NtNtCsa86sUp9HUqm_19openzeppelin_stylus5token5erc20NtB5_5ErrorINtNtCshuVUGNokh5j_4core7convert4FromNtB5_20ERC20InvalidApproverE4from
FN:125,_RNvMsn_NtNtCsa86sUp9HUqm_19openzeppelin_stylus5token5erc20NtB5_5Erc2014required_slots
FN:125,_RNvXso_NtNtCsa86sUp9HUqm_19openzeppelin_stylus5token5erc20NtB5_5Erc20NtNtNtCs8c3p7fi1c1U_10stylus_sdk7storage6traits11StorageType3new
FN:115,_RNvXso_NtNtCsa86sUp9HUqm_19openzeppelin_stylus5token5erc20NtB5_5Erc20NtNtNtCs8c3p7fi1c1U_10stylus_sdk7storage6traits11StorageType4load
FN:115,_RNvXso_NtNtCsa86sUp9HUqm_19openzeppelin_stylus5token5erc20NtB5_5Erc20NtNtNtCs8c3p7fi1c1U_10stylus_sdk7storage6traits11StorageType8load_mut
FN:260,_RNvXsp_NtNtCsa86sUp9HUqm_19openzeppelin_stylus5token5erc20NtB5_5Erc20NtB5_6IErc2012total_supply
FN:264,_RNvXsp_NtNtCsa86sUp9HUqm_19openzeppelin_stylus5token5erc20NtB5_5Erc20NtB5_6IErc2010balance_of
FN:268,_RNvXsp_NtNtCsa86sUp9HUqm_19openzeppelin_stylus5token5erc20NtB5_5Erc20NtB5_6IErc208transfer
FN:278,_RNvXsp_NtNtCsa86sUp9HUqm_19openzeppelin_stylus5token5erc20NtB5_5Erc20NtB5_6IErc209allowance
FN:282,_RNvXsp_NtNtCsa86sUp9HUqm_19openzeppelin_stylus5token5erc20NtB5_5Erc20NtB5_6IErc207approve
FN:291,_RNvXsp_NtNtCsa86sUp9HUqm_19openzeppelin_stylus5token5erc20NtB5_5Erc20NtB5_6IErc2013transfer_from
FN:256,_RNvMsr_NtNtCsa86sUp9HUqm_19openzeppelin_stylus5token5erc20NtB5_5Erc2023___stylus_allow_override
FN:256,_RNvMsr_NtNtCsa86sUp9HUqm_19openzeppelin_stylus5token5erc20NtB5_5Erc2025___stylus_assert_overrides
FN:89,_RNvXsl_NtNtCsa86sUp9HUqm_19openzeppelin_stylus5token5erc20INtNtCsdDMkpvQxPWz_5alloc3vec3VechEINtNtCshuVUGNokh5j_4core7convert4FromNtB5_5ErrorE4from
FN:32,_RNvXs_NvNtNtCsa86sUp9HUqm_19openzeppelin_stylus5token5erc201__NtNtCs9yoxqfta9I2_16alloy_primitives3log7LogDataINtNtCshuVUGNokh5j_4core7convert4FromRNtB6_8TransferE4fromBa_
FN:21,_RNCNvXs_NvNtNtCsa86sUp9HUqm_19openzeppelin_stylus5token5erc201__NtNtCs9yoxqfta9I2_16alloy_primitives3log7LogDataINtNtCshuVUGNokh5j_4core7convert4FromRNtB8_8TransferE4from0Bc_
FN:32,_RNvXs_NvNtNtCsa86sUp9HUqm_19openzeppelin_stylus5token5erc20s_1__NtNtCs9yoxqfta9I2_16alloy_primitives3log7LogDataINtNtCshuVUGNokh5j_4core7convert4FromRNtB6_8ApprovalE4fromBa_
FN:21,_RNCNvXs_NvNtNtCsa86sUp9HUqm_19openzeppelin_stylus5token5erc20s_1__NtNtCs9yoxqfta9I2_16alloy_primitives3log7LogDataINtNtCshuVUGNokh5j_4core7convert4FromRNtB8_8ApprovalE4from0Bc_
FN:256,_RNvXININtNtCsa86sUp9HUqm_19openzeppelin_stylus5token5erc20sq_0pENtB5_5Erc20INtNtCs8c3p7fi1c1U_10stylus_sdk3abi6RouterpE5routeB9_
FN:256,_RNvXsq_NtNtCsa86sUp9HUqm_19openzeppelin_stylus5token5erc20NtB5_5Erc20INtNtCs8c3p7fi1c1U_10stylus_sdk3abi6RouterNtCs4i0YNmK4zRA_13basic_example12Erc20ExampleE5routeB1N_
FN:256,_RNvXsq_NtNtCsa86sUp9HUqm_19openzeppelin_stylus5token5erc20NtB5_5Erc20INtNtCs8c3p7fi1c1U_10stylus_sdk3abi6RouterNtCsjg4xJ1d9oPS_13erc20_example12Erc20ExampleE5routeB1N_
FN:256,_RNvXsq_NtNtCsa86sUp9HUqm_19openzeppelin_stylus5token5erc20NtB5_5Erc20INtNtCs8c3p7fi1c1U_10stylus_sdk3abi6RouterNtCsbwD9Yma26L7_22access_control_example20AccessControlExampleE5routeB1N_
FN:256,_RNvXsq_NtNtCsa86sUp9HUqm_19openzeppelin_stylus5token5erc20NtB5_5Erc20INtNtCs8c3p7fi1c1U_10stylus_sdk3abi6RouterNtCsfgI69mdyflo_13erc20_example12Erc20ExampleE5routeB1N_
FN:256,_RNvXsq_NtNtCsa86sUp9HUqm_19openzeppelin_stylus5token5erc20NtB5_5Erc20INtNtCs8c3p7fi1c1U_10stylus_sdk3abi6RouterNtCs37bsBREJ4Le_15ownable_example14OwnableExampleE5routeB1N_
FN:256,_RNvXsq_NtNtCsa86sUp9HUqm_19openzeppelin_stylus5token5erc20NtB5_5Erc20INtNtCs8c3p7fi1c1U_10stylus_sdk3abi6RouterNtCsjHHT2ck5caV_16ownable_two_step19Ownable2StepExampleE5routeB1N_
FN:32,_RNvXs_NvNtNtCs6vaqcEMrLsG_19openzeppelin_stylus5token5erc201__NtNtCs9yoxqfta9I2_16alloy_primitives3log7LogDataINtNtCshuVUGNokh5j_4core7convert4FromRNtB6_8TransferE4fromBa_
FN:21,_RNCNvXs_NvNtNtCs6vaqcEMrLsG_19openzeppelin_stylus5token5erc201__NtNtCs9yoxqfta9I2_16alloy_primitives3log7LogDataINtNtCshuVUGNokh5j_4core7convert4FromRNtB8_8TransferE4from0Bc_
FN:32,_RNvXs_NvNtNtCs6vaqcEMrLsG_19openzeppelin_stylus5token5erc20s_1__NtNtCs9yoxqfta9I2_16alloy_primitives3log7LogDataINtNtCshuVUGNokh5j_4core7convert4FromRNtB6_8ApprovalE4fromBa_
FN:21,_RNCNvXs_NvNtNtCs6vaqcEMrLsG_19openzeppelin_stylus5token5erc20s_1__NtNtCs9yoxqfta9I2_16alloy_primitives3log7LogDataINtNtCshuVUGNokh5j_4core7convert4FromRNtB8_8ApprovalE4from0Bc_
FN:34,_RNvNvNtNtCs6vaqcEMrLsG_19openzeppelin_stylus5token5erc20s0_1__15__type_assertion
FN:34,_RNvNvNtNtCs6vaqcEMrLsG_19openzeppelin_stylus5token5erc20s1_1__15__type_assertion
FN:34,_RNvNvNtNtCs6vaqcEMrLsG_19openzeppelin_stylus5token5erc20s2_1__15__type_assertion
FN:34,_RNvNvNtNtCs6vaqcEMrLsG_19openzeppelin_stylus5token5erc20s3_1__15__type_assertion
FN:34,_RNvNvNtNtCs6vaqcEMrLsG_19openzeppelin_stylus5token5erc20s4_1__15__type_assertion
FN:34,_RNvNvNtNtCs6vaqcEMrLsG_19openzeppelin_stylus5token5erc20s5_1__15__type_assertion
FN:89,_RNvXsf_NtNtCs6vaqcEMrLsG_19openzeppelin_stylus5token5erc20NtB5_5ErrorINtNtCshuVUGNokh5j_4core7convert4FromNtB5_24ERC20InsufficientBalanceE4from
FN:89,_RNvXsg_NtNtCs6vaqcEMrLsG_19openzeppelin_stylus5token5erc20NtB5_5ErrorINtNtCshuVUGNokh5j_4core7convert4FromNtB5_18ERC20InvalidSenderE4from
FN:89,_RNvXsh_NtNtCs6vaqcEMrLsG_19openzeppelin_stylus5token5erc20NtB5_5ErrorINtNtCshuVUGNokh5j_4core7convert4FromNtB5_20ERC20InvalidReceiverE4from
FN:89,_RNvXsi_NtNtCs6vaqcEMrLsG_19openzeppelin_stylus5token5erc20NtB5_5ErrorINtNtCshuVUGNokh5j_4core7convert4FromNtB5_26ERC20InsufficientAllowanceE4from
FN:89,_RNvXsj_NtNtCs6vaqcEMrLsG_19openzeppelin_stylus5token5erc20NtB5_5ErrorINtNtCshuVUGNokh5j_4core7convert4FromNtB5_19ERC20InvalidSpenderE4from
FN:89,_RNvXsk_NtNtCs6vaqcEMrLsG_19openzeppelin_stylus5token5erc20NtB5_5ErrorINtNtCshuVUGNokh5j_4core7convert4FromNtB5_20ERC20InvalidApproverE4from
FN:89,_RNvXsl_NtNtCs6vaqcEMrLsG_19openzeppelin_stylus5token5erc20INtNtCsdDMkpvQxPWz_5alloc3vec3VechEINtNtCshuVUGNokh5j_4core7convert4FromNtB5_5ErrorE4from
FN:110,_RNvXNtNtCs6vaqcEMrLsG_19openzeppelin_stylus5token5erc20NtB2_5ErrorNtNtNtCs8c3p7fi1c1U_10stylus_sdk4call5error11MethodError6encode
FN:125,_RNvMsn_NtNtCs6vaqcEMrLsG_19openzeppelin_stylus5token5erc20NtB5_5Erc2014required_slots
FN:115,_RNvXso_NtNtCs6vaqcEMrLsG_19openzeppelin_stylus5token5erc20NtB5_5Erc20NtNtNtCs8c3p7fi1c1U_10stylus_sdk7storage6traits11StorageType4load
FN:115,_RNvXso_NtNtCs6vaqcEMrLsG_19openzeppelin_stylus5token5erc20NtB5_5Erc20NtNtNtCs8c3p7fi1c1U_10stylus_sdk7storage6traits11StorageType8load_mut
FN:268,_RNvXsp_NtNtCs6vaqcEMrLsG_19openzeppelin_stylus5token5erc20NtB5_5Erc20NtB5_6IErc208transfer
FN:256,_RNvXININtNtCs6vaqcEMrLsG_19openzeppelin_stylus5token5erc20sq_0pENtB5_5Erc20INtNtCs8c3p7fi1c1U_10stylus_sdk3abi6RouterpE5routeB9_
FN:256,_RNvMsr_NtNtCs6vaqcEMrLsG_19openzeppelin_stylus5token5erc20NtB5_5Erc2023___stylus_allow_override
FN:256,_RNvMsr_NtNtCs6vaqcEMrLsG_19openzeppelin_stylus5token5erc20NtB5_5Erc2025___stylus_assert_overrides
FN:305,_RNvXs_NtNtCs6vaqcEMrLsG_19openzeppelin_stylus5token5erc20NtB4_5Erc20NtNtNtNtB8_5utils13introspection6erc1657IErc16518supports_interface
FN:585,_RNvNtNtNtCs6vaqcEMrLsG_19openzeppelin_stylus5token5erc205testss_13reads_balance
FN:597,_RNvNtNtNtCs6vaqcEMrLsG_19openzeppelin_stylus5token5erc205testss_11update_mint
FN:615,_RNvNtNtNtCs6vaqcEMrLsG_19openzeppelin_stylus5token5erc205testss_38update_mint_errors_arithmetic_overflow
FN:633,_RNvNtNtNtCs6vaqcEMrLsG_19openzeppelin_stylus5token5erc205testss_10mint_works
FN:651,_RNvNtNtNtCs6vaqcEMrLsG_19openzeppelin_stylus5token5erc205testss_28mint_errors_invalid_receiver
FN:669,_RNvNtNtNtCs6vaqcEMrLsG_19openzeppelin_stylus5token5erc205testss_31mint_errors_arithmetic_overflow
FN:686,_RNvNtNtNtCs6vaqcEMrLsG_19openzeppelin_stylus5token5erc205testss_11update_burn
FN:711,_RNvNtNtNtCs6vaqcEMrLsG_19openzeppelin_stylus5token5erc205testss_39update_burn_errors_insufficient_balance
FN:736,_RNvNtNtNtCs6vaqcEMrLsG_19openzeppelin_stylus5token5erc205testss_15update_transfer
FN:764,_RNvNtNtNtCs6vaqcEMrLsG_19openzeppelin_stylus5token5erc205testss_43update_transfer_errors_insufficient_balance
FN:792,_RNvNtNtNtCs6vaqcEMrLsG_19openzeppelin_stylus5token5erc205testss_9transfers
FN:812,_RNvNtNtNtCs6vaqcEMrLsG_19openzeppelin_stylus5token5erc205testss_14transfers_from
FN:834,_RNvNtNtNtCs6vaqcEMrLsG_19openzeppelin_stylus5token5erc205testss_46transfer_from_errors_when_insufficient_balance
FN:849,_RNvNtNtNtCs6vaqcEMrLsG_19openzeppelin_stylus5token5erc205testss_42transfer_from_errors_when_invalid_approver
FN:862,_RNvNtNtNtCs6vaqcEMrLsG_19openzeppelin_stylus5token5erc205testss_42transfer_from_errors_when_invalid_receiver
FN:871,_RNvNtNtNtCs6vaqcEMrLsG_19openzeppelin_stylus5token5erc205testss_48transfer_from_errors_when_insufficient_allowance
FN:885,_RNvNtNtNtCs6vaqcEMrLsG_19openzeppelin_stylus5token5erc205testss_15reads_allowance
FN:899,_RNvNtNtNtCs6vaqcEMrLsG_19openzeppelin_stylus5token5erc205testss_8approves
FN:909,_RNvNtNtNtCs6vaqcEMrLsG_19openzeppelin_stylus5token5erc205testss_35approve_errors_when_invalid_spender
FN:917,_RNvNtNtNtCs6vaqcEMrLsG_19openzeppelin_stylus5token5erc205testss_12interface_id
FN:331,_RNvMs0_NtNtCs6vaqcEMrLsG_19openzeppelin_stylus5token5erc20NtB5_5Erc208__approve
FN:378,_RNvMs0_NtNtCs6vaqcEMrLsG_19openzeppelin_stylus5token5erc20NtB5_5Erc209__transfer
FN:417,_RNvMs0_NtNtCs6vaqcEMrLsG_19openzeppelin_stylus5token5erc20NtB5_5Erc205__mint
FN:455,_RNvMs0_NtNtCs6vaqcEMrLsG_19openzeppelin_stylus5token5erc20NtB5_5Erc207__update
FN:524,_RNvMs0_NtNtCs6vaqcEMrLsG_19openzeppelin_stylus5token5erc20NtB5_5Erc205__burn
FN:552,_RNvMs0_NtNtCs6vaqcEMrLsG_19openzeppelin_stylus5token5erc20NtB5_5Erc2016__spend_allowance
FN:125,_RNvXso_NtNtCs6vaqcEMrLsG_19openzeppelin_stylus5token5erc20NtB5_5Erc20NtNtNtCs8c3p7fi1c1U_10stylus_sdk7storage6traits11StorageType3new
FN:260,_RNvXsp_NtNtCs6vaqcEMrLsG_19openzeppelin_stylus5token5erc20NtB5_5Erc20NtB5_6IErc2012total_supply
FN:264,_RNvXsp_NtNtCs6vaqcEMrLsG_19openzeppelin_stylus5token5erc20NtB5_5Erc20NtB5_6IErc2010balance_of
FN:278,_RNvXsp_NtNtCs6vaqcEMrLsG_19openzeppelin_stylus5token5erc20NtB5_5Erc20NtB5_6IErc209allowance
FN:282,_RNvXsp_NtNtCs6vaqcEMrLsG_19openzeppelin_stylus5token5erc20NtB5_5Erc20NtB5_6IErc207approve
FN:291,_RNvXsp_NtNtCs6vaqcEMrLsG_19openzeppelin_stylus5token5erc20NtB5_5Erc20NtB5_6IErc2013transfer_from
FN:256,_RNvXsq_NtNtCsa86sUp9HUqm_19openzeppelin_stylus5token5erc20NtB5_5Erc20INtNtCs8c3p7fi1c1U_10stylus_sdk3abi6RouterNtCskkDasFjYffQ_15ownable_example14OwnableExampleE5routeB1N_
FN:256,_RNvXsq_NtNtCsa86sUp9HUqm_19openzeppelin_stylus5token5erc20NtB5_5Erc20INtNtCs8c3p7fi1c1U_10stylus_sdk3abi6RouterNtCs2ub2KtBtvDF_16ownable_two_step19Ownable2StepExampleE5routeB1N_
FNDA:0,_RNvXsq_NtNtCsa86sUp9HUqm_19openzeppelin_stylus5token5erc20NtB5_5Erc20INtNtCs8c3p7fi1c1U_10stylus_sdk3abi6RouterNtCs3Wda7GwUxlw_22access_control_example20AccessControlExampleE5routeB1N_
FNDA:0,_RNvXNtNtCsa86sUp9HUqm_19openzeppelin_stylus5token5erc20NtB2_5ErrorNtNtNtCs8c3p7fi1c1U_10stylus_sdk4call5error11MethodError6encode
FNDA:0,_RNvXs_NtNtCsa86sUp9HUqm_19openzeppelin_stylus5token5erc20NtB4_5Erc20NtNtNtNtB8_5utils13introspection6erc1657IErc16518supports_interface
FNDA:0,_RNvMs0_NtNtCsa86sUp9HUqm_19openzeppelin_stylus5token5erc20NtB5_5Erc208__approve
FNDA:0,_RNvMs0_NtNtCsa86sUp9HUqm_19openzeppelin_stylus5token5erc20NtB5_5Erc209__transfer
FNDA:0,_RNvMs0_NtNtCsa86sUp9HUqm_19openzeppelin_stylus5token5erc20NtB5_5Erc205__mint
FNDA:0,_RNvMs0_NtNtCsa86sUp9HUqm_19openzeppelin_stylus5token5erc20NtB5_5Erc207__update
FNDA:0,_RNvMs0_NtNtCsa86sUp9HUqm_19openzeppelin_stylus5token5erc20NtB5_5Erc205__burn
FNDA:0,_RNvMs0_NtNtCsa86sUp9HUqm_19openzeppelin_stylus5token5erc20NtB5_5Erc2016__spend_allowance
FNDA:0,_RNvXsf_NtNtCsa86sUp9HUqm_19openzeppelin_stylus5token5erc20NtB5_5ErrorINtNtCshuVUGNokh5j_4core7convert4FromNtB5_24ERC20InsufficientBalanceE4from
FNDA:0,_RNvXsg_NtNtCsa86sUp9HUqm_19openzeppelin_stylus5token5erc20NtB5_5ErrorINtNtCshuVUGNokh5j_4core7convert4FromNtB5_18ERC20InvalidSenderE4from
FNDA:0,_RNvXsh_NtNtCsa86sUp9HUqm_19openzeppelin_stylus5token5erc20NtB5_5ErrorINtNtCshuVUGNokh5j_4core7convert4FromNtB5_20ERC20InvalidReceiverE4from
FNDA:0,_RNvXsi_NtNtCsa86sUp9HUqm_19openzeppelin_stylus5token5erc20NtB5_5ErrorINtNtCshuVUGNokh5j_4core7convert4FromNtB5_26ERC20InsufficientAllowanceE4from
FNDA:0,_RNvXsj_NtNtCsa86sUp9HUqm_19openzeppelin_stylus5token5erc20NtB5_5ErrorINtNtCshuVUGNokh5j_4core7convert4FromNtB5_19ERC20InvalidSpenderE4from
FNDA:0,_RNvXsk_NtNtCsa86sUp9HUqm_19openzeppelin_stylus5token5erc20NtB5_5ErrorINtNtCshuVUGNokh5j_4core7convert4FromNtB5_20ERC20InvalidApproverE4from
FNDA:0,_RNvMsn_NtNtCsa86sUp9HUqm_19openzeppelin_stylus5token5erc20NtB5_5Erc2014required_slots
FNDA:0,_RNvXso_NtNtCsa86sUp9HUqm_19openzeppelin_stylus5token5erc20NtB5_5Erc20NtNtNtCs8c3p7fi1c1U_10stylus_sdk7storage6traits11StorageType3new
FNDA:0,_RNvXso_NtNtCsa86sUp9HUqm_19openzeppelin_stylus5token5erc20NtB5_5Erc20NtNtNtCs8c3p7fi1c1U_10stylus_sdk7storage6traits11StorageType4load
FNDA:0,_RNvXso_NtNtCsa86sUp9HUqm_19openzeppelin_stylus5token5erc20NtB5_5Erc20NtNtNtCs8c3p7fi1c1U_10stylus_sdk7storage6traits11StorageType8load_mut
FNDA:0,_RNvXsp_NtNtCsa86sUp9HUqm_19openzeppelin_stylus5token5erc20NtB5_5Erc20NtB5_6IErc2012total_supply
FNDA:0,_RNvXsp_NtNtCsa86sUp9HUqm_19openzeppelin_stylus5token5erc20NtB5_5Erc20NtB5_6IErc2010balance_of
FNDA:0,_RNvXsp_NtNtCsa86sUp9HUqm_19openzeppelin_stylus5token5erc20NtB5_5Erc20NtB5_6IErc208transfer
FNDA:0,_RNvXsp_NtNtCsa86sUp9HUqm_19openzeppelin_stylus5token5erc20NtB5_5Erc20NtB5_6IErc209allowance
FNDA:0,_RNvXsp_NtNtCsa86sUp9HUqm_19openzeppelin_stylus5token5erc20NtB5_5Erc20NtB5_6IErc207approve
FNDA:0,_RNvXsp_NtNtCsa86sUp9HUqm_19openzeppelin_stylus5token5erc20NtB5_5Erc20NtB5_6IErc2013transfer_from
FNDA:0,_RNvMsr_NtNtCsa86sUp9HUqm_19openzeppelin_stylus5token5erc20NtB5_5Erc2023___stylus_allow_override
FNDA:0,_RNvMsr_NtNtCsa86sUp9HUqm_19openzeppelin_stylus5token5erc20NtB5_5Erc2025___stylus_assert_overrides
FNDA:0,_RNvXsl_NtNtCsa86sUp9HUqm_19openzeppelin_stylus5token5erc20INtNtCsdDMkpvQxPWz_5alloc3vec3VechEINtNtCshuVUGNokh5j_4core7convert4FromNtB5_5ErrorE4from
FNDA:0,_RNvXs_NvNtNtCsa86sUp9HUqm_19openzeppelin_stylus5token5erc201__NtNtCs9yoxqfta9I2_16alloy_primitives3log7LogDataINtNtCshuVUGNokh5j_4core7convert4FromRNtB6_8TransferE4fromBa_
FNDA:0,_RNCNvXs_NvNtNtCsa86sUp9HUqm_19openzeppelin_stylus5token5erc201__NtNtCs9yoxqfta9I2_16alloy_primitives3log7LogDataINtNtCshuVUGNokh5j_4core7convert4FromRNtB8_8TransferE4from0Bc_
FNDA:0,_RNvXs_NvNtNtCsa86sUp9HUqm_19openzeppelin_stylus5token5erc20s_1__NtNtCs9yoxqfta9I2_16alloy_primitives3log7LogDataINtNtCshuVUGNokh5j_4core7convert4FromRNtB6_8ApprovalE4fromBa_
FNDA:0,_RNCNvXs_NvNtNtCsa86sUp9HUqm_19openzeppelin_stylus5token5erc20s_1__NtNtCs9yoxqfta9I2_16alloy_primitives3log7LogDataINtNtCshuVUGNokh5j_4core7convert4FromRNtB8_8ApprovalE4from0Bc_
FNDA:0,_RNvXININtNtCsa86sUp9HUqm_19openzeppelin_stylus5token5erc20sq_0pENtB5_5Erc20INtNtCs8c3p7fi1c1U_10stylus_sdk3abi6RouterpE5routeB9_
FNDA:0,_RNvXsq_NtNtCsa86sUp9HUqm_19openzeppelin_stylus5token5erc20NtB5_5Erc20INtNtCs8c3p7fi1c1U_10stylus_sdk3abi6RouterNtCs4i0YNmK4zRA_13basic_example12Erc20ExampleE5routeB1N_
FNDA:0,_RNvXsq_NtNtCsa86sUp9HUqm_19openzeppelin_stylus5token5erc20NtB5_5Erc20INtNtCs8c3p7fi1c1U_10stylus_sdk3abi6RouterNtCsjg4xJ1d9oPS_13erc20_example12Erc20ExampleE5routeB1N_
FNDA:0,_RNvXsq_NtNtCsa86sUp9HUqm_19openzeppelin_stylus5token5erc20NtB5_5Erc20INtNtCs8c3p7fi1c1U_10stylus_sdk3abi6RouterNtCsbwD9Yma26L7_22access_control_example20AccessControlExampleE5routeB1N_
FNDA:0,_RNvXsq_NtNtCsa86sUp9HUqm_19openzeppelin_stylus5token5erc20NtB5_5Erc20INtNtCs8c3p7fi1c1U_10stylus_sdk3abi6RouterNtCsfgI69mdyflo_13erc20_example12Erc20ExampleE5routeB1N_
FNDA:0,_RNvXsq_NtNtCsa86sUp9HUqm_19openzeppelin_stylus5token5erc20NtB5_5Erc20INtNtCs8c3p7fi1c1U_10stylus_sdk3abi6RouterNtCs37bsBREJ4Le_15ownable_example14OwnableExampleE5routeB1N_
FNDA:0,_RNvXsq_NtNtCsa86sUp9HUqm_19openzeppelin_stylus5token5erc20NtB5_5Erc20INtNtCs8c3p7fi1c1U_10stylus_sdk3abi6RouterNtCsjHHT2ck5caV_16ownable_two_step19Ownable2StepExampleE5routeB1N_
FNDA:0,_RNvXs_NvNtNtCs6vaqcEMrLsG_19openzeppelin_stylus5token5erc201__NtNtCs9yoxqfta9I2_16alloy_primitives3log7LogDataINtNtCshuVUGNokh5j_4core7convert4FromRNtB6_8TransferE4fromBa_
FNDA:0,_RNCNvXs_NvNtNtCs6vaqcEMrLsG_19openzeppelin_stylus5token5erc201__NtNtCs9yoxqfta9I2_16alloy_primitives3log7LogDataINtNtCshuVUGNokh5j_4core7convert4FromRNtB8_8TransferE4from0Bc_
FNDA:0,_RNvXs_NvNtNtCs6vaqcEMrLsG_19openzeppelin_stylus5token5erc20s_1__NtNtCs9yoxqfta9I2_16alloy_primitives3log7LogDataINtNtCshuVUGNokh5j_4core7convert4FromRNtB6_8ApprovalE4fromBa_
FNDA:0,_RNCNvXs_NvNtNtCs6vaqcEMrLsG_19openzeppelin_stylus5token5erc20s_1__NtNtCs9yoxqfta9I2_16alloy_primitives3log7LogDataINtNtCshuVUGNokh5j_4core7convert4FromRNtB8_8ApprovalE4from0Bc_
FNDA:0,_RNvNvNtNtCs6vaqcEMrLsG_19openzeppelin_stylus5token5erc20s0_1__15__type_assertion
FNDA:0,_RNvNvNtNtCs6vaqcEMrLsG_19openzeppelin_stylus5token5erc20s1_1__15__type_assertion
FNDA:0,_RNvNvNtNtCs6vaqcEMrLsG_19openzeppelin_stylus5token5erc20s2_1__15__type_assertion
FNDA:0,_RNvNvNtNtCs6vaqcEMrLsG_19openzeppelin_stylus5token5erc20s3_1__15__type_assertion
FNDA:0,_RNvNvNtNtCs6vaqcEMrLsG_19openzeppelin_stylus5token5erc20s4_1__15__type_assertion
FNDA:0,_RNvNvNtNtCs6vaqcEMrLsG_19openzeppelin_stylus5token5erc20s5_1__15__type_assertion
FNDA:0,_RNvXsf_NtNtCs6vaqcEMrLsG_19openzeppelin_stylus5token5erc20NtB5_5ErrorINtNtCshuVUGNokh5j_4core7convert4FromNtB5_24ERC20InsufficientBalanceE4from
FNDA:0,_RNvXsg_NtNtCs6vaqcEMrLsG_19openzeppelin_stylus5token5erc20NtB5_5ErrorINtNtCshuVUGNokh5j_4core7convert4FromNtB5_18ERC20InvalidSenderE4from
FNDA:0,_RNvXsh_NtNtCs6vaqcEMrLsG_19openzeppelin_stylus5token5erc20NtB5_5ErrorINtNtCshuVUGNokh5j_4core7convert4FromNtB5_20ERC20InvalidReceiverE4from
FNDA:0,_RNvXsi_NtNtCs6vaqcEMrLsG_19openzeppelin_stylus5token5erc20NtB5_5ErrorINtNtCshuVUGNokh5j_4core7convert4FromNtB5_26ERC20InsufficientAllowanceE4from
FNDA:0,_RNvXsj_NtNtCs6vaqcEMrLsG_19openzeppelin_stylus5token5erc20NtB5_5ErrorINtNtCshuVUGNokh5j_4core7convert4FromNtB5_19ERC20InvalidSpenderE4from
FNDA:0,_RNvXsk_NtNtCs6vaqcEMrLsG_19openzeppelin_stylus5token5erc20NtB5_5ErrorINtNtCshuVUGNokh5j_4core7convert4FromNtB5_20ERC20InvalidApproverE4from
FNDA:0,_RNvXsl_NtNtCs6vaqcEMrLsG_19openzeppelin_stylus5token5erc20INtNtCsdDMkpvQxPWz_5alloc3vec3VechEINtNtCshuVUGNokh5j_4core7convert4FromNtB5_5ErrorE4from
FNDA:0,_RNvXNtNtCs6vaqcEMrLsG_19openzeppelin_stylus5token5erc20NtB2_5ErrorNtNtNtCs8c3p7fi1c1U_10stylus_sdk4call5error11MethodError6encode
FNDA:0,_RNvMsn_NtNtCs6vaqcEMrLsG_19openzeppelin_stylus5token5erc20NtB5_5Erc2014required_slots
FNDA:0,_RNvXso_NtNtCs6vaqcEMrLsG_19openzeppelin_stylus5token5erc20NtB5_5Erc20NtNtNtCs8c3p7fi1c1U_10stylus_sdk7storage6traits11StorageType4load
FNDA:0,_RNvXso_NtNtCs6vaqcEMrLsG_19openzeppelin_stylus5token5erc20NtB5_5Erc20NtNtNtCs8c3p7fi1c1U_10stylus_sdk7storage6traits11StorageType8load_mut
FNDA:0,_RNvXsp_NtNtCs6vaqcEMrLsG_19openzeppelin_stylus5token5erc20NtB5_5Erc20NtB5_6IErc208transfer
FNDA:0,_RNvXININtNtCs6vaqcEMrLsG_19openzeppelin_stylus5token5erc20sq_0pENtB5_5Erc20INtNtCs8c3p7fi1c1U_10stylus_sdk3abi6RouterpE5routeB9_
FNDA:0,_RNvMsr_NtNtCs6vaqcEMrLsG_19openzeppelin_stylus5token5erc20NtB5_5Erc2023___stylus_allow_override
FNDA:0,_RNvMsr_NtNtCs6vaqcEMrLsG_19openzeppelin_stylus5token5erc20NtB5_5Erc2025___stylus_assert_overrides
FNDA:0,_RNvXs_NtNtCs6vaqcEMrLsG_19openzeppelin_stylus5token5erc20NtB4_5Erc20NtNtNtNtB8_5utils13introspection6erc1657IErc16518supports_interface
FNDA:1,_RNvNtNtNtCs6vaqcEMrLsG_19openzeppelin_stylus5token5erc205testss_13reads_balance
FNDA:1,_RNvNtNtNtCs6vaqcEMrLsG_19openzeppelin_stylus5token5erc205testss_11update_mint
FNDA:1,_RNvNtNtNtCs6vaqcEMrLsG_19openzeppelin_stylus5token5erc205testss_38update_mint_errors_arithmetic_overflow
FNDA:1,_RNvNtNtNtCs6vaqcEMrLsG_19openzeppelin_stylus5token5erc205testss_10mint_works
FNDA:1,_RNvNtNtNtCs6vaqcEMrLsG_19openzeppelin_stylus5token5erc205testss_28mint_errors_invalid_receiver
FNDA:1,_RNvNtNtNtCs6vaqcEMrLsG_19openzeppelin_stylus5token5erc205testss_31mint_errors_arithmetic_overflow
FNDA:1,_RNvNtNtNtCs6vaqcEMrLsG_19openzeppelin_stylus5token5erc205testss_11update_burn
FNDA:1,_RNvNtNtNtCs6vaqcEMrLsG_19openzeppelin_stylus5token5erc205testss_39update_burn_errors_insufficient_balance
FNDA:1,_RNvNtNtNtCs6vaqcEMrLsG_19openzeppelin_stylus5token5erc205testss_15update_transfer
FNDA:1,_RNvNtNtNtCs6vaqcEMrLsG_19openzeppelin_stylus5token5erc205testss_43update_transfer_errors_insufficient_balance
FNDA:1,_RNvNtNtNtCs6vaqcEMrLsG_19openzeppelin_stylus5token5erc205testss_9transfers
FNDA:1,_RNvNtNtNtCs6vaqcEMrLsG_19openzeppelin_stylus5token5erc205testss_14transfers_from
FNDA:1,_RNvNtNtNtCs6vaqcEMrLsG_19openzeppelin_stylus5token5erc205testss_46transfer_from_errors_when_insufficient_balance
FNDA:1,_RNvNtNtNtCs6vaqcEMrLsG_19openzeppelin_stylus5token5erc205testss_42transfer_from_errors_when_invalid_approver
FNDA:1,_RNvNtNtNtCs6vaqcEMrLsG_19openzeppelin_stylus5token5erc205testss_42transfer_from_errors_when_invalid_receiver
FNDA:1,_RNvNtNtNtCs6vaqcEMrLsG_19openzeppelin_stylus5token5erc205testss_48transfer_from_errors_when_insufficient_allowance
FNDA:1,_RNvNtNtNtCs6vaqcEMrLsG_19openzeppelin_stylus5token5erc205testss_15reads_allowance
FNDA:1,_RNvNtNtNtCs6vaqcEMrLsG_19openzeppelin_stylus5token5erc205testss_8approves
FNDA:1,_RNvNtNtNtCs6vaqcEMrLsG_19openzeppelin_stylus5token5erc205testss_35approve_errors_when_invalid_spender
FNDA:1,_RNvNtNtNtCs6vaqcEMrLsG_19openzeppelin_stylus5token5erc205testss_12interface_id
FNDA:10,_RNvMs0_NtNtCs6vaqcEMrLsG_19openzeppelin_stylus5token5erc20NtB5_5Erc208__approve
FNDA:4,_RNvMs0_NtNtCs6vaqcEMrLsG_19openzeppelin_stylus5token5erc20NtB5_5Erc209__transfer
FNDA:3,_RNvMs0_NtNtCs6vaqcEMrLsG_19openzeppelin_stylus5token5erc20NtB5_5Erc205__mint
FNDA:29,_RNvMs0_NtNtCs6vaqcEMrLsG_19openzeppelin_stylus5token5erc20NtB5_5Erc207__update
FNDA:4,_RNvMs0_NtNtCs6vaqcEMrLsG_19openzeppelin_stylus5token5erc20NtB5_5Erc205__burn
FNDA:10,_RNvMs0_NtNtCs6vaqcEMrLsG_19openzeppelin_stylus5token5erc20NtB5_5Erc2016__spend_allowance
FNDA:25,_RNvXso_NtNtCs6vaqcEMrLsG_19openzeppelin_stylus5token5erc20NtB5_5Erc20NtNtNtCs8c3p7fi1c1U_10stylus_sdk7storage6traits11StorageType3new
FNDA:42,_RNvXsp_NtNtCs6vaqcEMrLsG_19openzeppelin_stylus5token5erc20NtB5_5Erc20NtB5_6IErc2012total_supply
FNDA:37,_RNvXsp_NtNtCs6vaqcEMrLsG_19openzeppelin_stylus5token5erc20NtB5_5Erc20NtB5_6IErc2010balance_of
FNDA:14,_RNvXsp_NtNtCs6vaqcEMrLsG_19openzeppelin_stylus5token5erc20NtB5_5Erc20NtB5_6IErc209allowance
FNDA:2,_RNvXsp_NtNtCs6vaqcEMrLsG_19openzeppelin_stylus5token5erc20NtB5_5Erc20NtB5_6IErc207approve
FNDA:6,_RNvXsp_NtNtCs6vaqcEMrLsG_19openzeppelin_stylus5token5erc20NtB5_5Erc20NtB5_6IErc2013transfer_from
FNDA:0,_RNvXsq_NtNtCsa86sUp9HUqm_19openzeppelin_stylus5token5erc20NtB5_5Erc20INtNtCs8c3p7fi1c1U_10stylus_sdk3abi6RouterNtCskkDasFjYffQ_15ownable_example14OwnableExampleE5routeB1N_
FNDA:0,_RNvXsq_NtNtCsa86sUp9HUqm_19openzeppelin_stylus5token5erc20NtB5_5Erc20INtNtCs8c3p7fi1c1U_10stylus_sdk3abi6RouterNtCs2ub2KtBtvDF_16ownable_two_step19Ownable2StepExampleE5routeB1N_
FNF:41
FNH:32
DA:21,0
DA:22,0
DA:23,0
DA:24,0
DA:25,0
DA:26,0
DA:27,0
DA:28,0
DA:29,0
DA:30,0
DA:31,0
DA:32,0
DA:34,0
DA:35,0
DA:36,0
DA:37,0
DA:38,0
DA:39,0
DA:40,0
DA:41,0
DA:42,0
DA:43,0
DA:44,0
DA:45,0
DA:46,0
DA:47,0
DA:48,0
DA:49,0
DA:50,0
DA:51,0
DA:52,0
DA:53,0
DA:54,0
DA:55,0
DA:56,0
DA:57,0
DA:58,0
DA:59,0
DA:60,0
DA:61,0
DA:62,0
DA:63,0
DA:64,0
DA:65,0
DA:66,0
DA:67,0
DA:68,0
DA:69,0
DA:70,0
DA:71,0
DA:72,0
DA:73,0
DA:74,0
DA:75,0
DA:76,0
DA:77,0
DA:78,0
DA:79,0
DA:80,0
DA:81,0
DA:82,0
DA:83,0
DA:84,0
DA:89,0
DA:110,0
DA:111,0
DA:112,0
DA:115,0
DA:116,0
DA:117,0
DA:118,0
DA:119,0
DA:120,0
DA:121,0
DA:122,0
DA:123,0
DA:124,0
DA:125,25
DA:256,0
DA:260,42
DA:261,42
DA:262,42
DA:264,37
DA:265,37
DA:266,37
DA:268,0
DA:269,0
DA:270,0
DA:271,0
DA:272,0
DA:273,0
DA:274,0
DA:275,0
DA:276,0
DA:278,14
DA:279,14
DA:280,14
DA:282,2
DA:283,2
DA:284,2
DA:285,2
DA:286,2
DA:287,2
DA:288,2
DA:289,2
DA:291,6
DA:292,6
DA:293,6
DA:294,6
DA:295,6
DA:296,6
DA:297,6
DA:298,6
DA:299,4
DA:300,2
DA:301,6
DA:305,0
DA:306,0
DA:307,0
DA:308,0
DA:331,10
DA:332,10
DA:333,10
DA:334,10
DA:335,10
DA:336,10
DA:337,10
DA:338,10
DA:339,2
DA:340,2
DA:341,2
DA:342,8
DA:343,8
DA:344,8
DA:345,1
DA:346,1
DA:347,1
DA:348,7
DA:349,7
DA:350,7
DA:351,7
DA:352,1
DA:353,6
DA:354,7
DA:355,10
DA:378,4
DA:379,4
DA:380,4
DA:381,4
DA:382,4
DA:383,4
DA:384,4
DA:385,0
DA:386,0
DA:387,0
DA:388,4
DA:389,4
DA:390,1
DA:391,1
DA:392,1
DA:393,3
DA:394,3
DA:395,3
DA:397,2
DA:398,4
DA:417,3
DA:418,3
DA:419,3
DA:420,3
DA:421,3
DA:422,3
DA:423,1
DA:424,1
DA:425,1
DA:426,2
DA:427,2
DA:428,3
DA:455,29
DA:456,29
DA:457,29
DA:458,29
DA:459,29
DA:460,29
DA:461,29
DA:462,18
DA:463,18
DA:464,18
DA:465,18
DA:466,18
DA:467,18
DA:468,18
DA:469,18
DA:470,11
DA:471,11
DA:472,5
DA:473,5
DA:474,5
DA:475,5
DA:476,5
DA:477,5
DA:478,5
DA:479,6
DA:480,6
DA:481,6
DA:482,6
DA:485,24
DA:486,3
DA:487,3
DA:488,3
DA:489,3
DA:490,3
DA:491,19
DA:492,19
DA:493,19
DA:494,19
DA:495,19
DA:496,19
DA:497,19
DA:499,22
DA:500,22
DA:501,22
DA:502,27
DA:524,4
DA:525,4
DA:526,4
DA:527,4
DA:528,4
DA:529,4
DA:530,0
DA:531,0
DA:532,0
DA:533,4
DA:534,4
DA:535,4
DA:552,10
DA:553,10
DA:554,10
DA:555,10
DA:556,10
DA:557,10
DA:558,10
DA:559,10
DA:560,10
DA:561,2
DA:562,2
DA:563,2
DA:564,2
DA:565,2
DA:566,2
DA:567,2
DA:568,8
DA:569,8
DA:570,8
DA:571,0
DA:573,6
DA:574,10
DA:585,1
DA:597,1
DA:615,1
DA:633,1
DA:651,1
DA:669,1
DA:686,1
DA:711,1
DA:736,1
DA:764,1
DA:792,1
DA:812,1
DA:834,1
DA:849,1
DA:862,1
DA:871,1
DA:885,1
DA:899,1
DA:909,1
DA:917,1
BRF:0
BRH:0
LF:278
LH:178
end_of_record
SF:/home/nenad/repos/rust-contracts-stylus/contracts/src/token/erc20/utils/safe_erc20.rs
FN:47,_RNvXs8_NtNtNtNtCsa86sUp9HUqm_19openzeppelin_stylus5token5erc205utils10safe_erc20INtNtCsdDMkpvQxPWz_5alloc3vec3VechEINtNtCshuVUGNokh5j_4core7convert4FromNtB5_5ErrorE4from
FN:335,_RINvMs0_NtNtNtNtCsa86sUp9HUqm_19openzeppelin_stylus5token5erc205utils10safe_erc20NtB6_9SafeErc2020call_optional_returnNtNtNtB6_5token6IErc2011approveCallEBe_
FN:335,_RINvMs0_NtNtNtNtCsa86sUp9HUqm_19openzeppelin_stylus5token5erc205utils10safe_erc20NtB6_9SafeErc2020call_optional_returnNtNtNtB6_5token6IErc2012transferCallEBe_
FN:335,_RINvMs0_NtNtNtNtCsa86sUp9HUqm_19openzeppelin_stylus5token5erc205utils10safe_erc20NtB6_9SafeErc2020call_optional_returnNtNtNtB6_5token6IErc2016transferFromCallEBe_
FN:377,_RNCNvMs0_NtNtNtNtCsa86sUp9HUqm_19openzeppelin_stylus5token5erc205utils10safe_erc20NtB7_9SafeErc209allowance0Bf_
FN:392,_RNCNvMs0_NtNtNtNtCsa86sUp9HUqm_19openzeppelin_stylus5token5erc205utils10safe_erc20NtB7_9SafeErc2012encodes_true0Bf_
FN:393,_RNCNCNvMs0_NtNtNtNtCsa86sUp9HUqm_19openzeppelin_stylus5token5erc205utils10safe_erc20NtB9_9SafeErc2012encodes_true00Bh_
FN:231,_RNvXININtNtNtNtCsa86sUp9HUqm_19openzeppelin_stylus5token5erc205utils10safe_erc20sd_0pENtB5_9SafeErc20INtNtCs8c3p7fi1c1U_10stylus_sdk3abi6RouterpE5routeBd_
FN:58,_RNvXNtNtNtNtCsa86sUp9HUqm_19openzeppelin_stylus5token5erc205utils10safe_erc20NtB2_5ErrorNtNtNtCs8c3p7fi1c1U_10stylus_sdk4call5error11MethodError6encode
FN:367,_RNvMs0_NtNtNtNtCsa86sUp9HUqm_19openzeppelin_stylus5token5erc205utils10safe_erc20NtB5_9SafeErc209allowance
FN:391,_RNvMs0_NtNtNtNtCsa86sUp9HUqm_19openzeppelin_stylus5token5erc205utils10safe_erc20NtB5_9SafeErc2012encodes_true
FN:47,_RNvXs5_NtNtNtNtCsa86sUp9HUqm_19openzeppelin_stylus5token5erc205utils10safe_erc20NtB5_5ErrorINtNtCshuVUGNokh5j_4core7convert4FromNtB9_5ErrorE4from
FN:47,_RNvXs6_NtNtNtNtCsa86sUp9HUqm_19openzeppelin_stylus5token5erc205utils10safe_erc20NtB5_5ErrorINtNtCshuVUGNokh5j_4core7convert4FromNtB5_24SafeErc20FailedOperationE4from
FN:47,_RNvXs7_NtNtNtNtCsa86sUp9HUqm_19openzeppelin_stylus5token5erc205utils10safe_erc20NtB5_5ErrorINtNtCshuVUGNokh5j_4core7convert4FromNtB5_32SafeErc20FailedDecreaseAllowanceE4from
FN:79,_RNvMsa_NtNtNtNtCsa86sUp9HUqm_19openzeppelin_stylus5token5erc205utils10safe_erc20NtB5_9SafeErc2014required_slots
FN:79,_RNvXsb_NtNtNtNtCsa86sUp9HUqm_19openzeppelin_stylus5token5erc205utils10safe_erc20NtB5_9SafeErc20NtNtNtCs8c3p7fi1c1U_10stylus_sdk7storage6traits11StorageType3new
FN:76,_RNvXsb_NtNtNtNtCsa86sUp9HUqm_19openzeppelin_stylus5token5erc205utils10safe_erc20NtB5_9SafeErc20NtNtNtCs8c3p7fi1c1U_10stylus_sdk7storage6traits11StorageType4load
FN:76,_RNvXsb_NtNtNtNtCsa86sUp9HUqm_19openzeppelin_stylus5token5erc205utils10safe_erc20NtB5_9SafeErc20NtNtNtCs8c3p7fi1c1U_10stylus_sdk7storage6traits11StorageType8load_mut
FN:235,_RNvXsc_NtNtNtNtCsa86sUp9HUqm_19openzeppelin_stylus5token5erc205utils10safe_erc20NtB5_9SafeErc20NtB5_10ISafeErc2013safe_transfer
FN:246,_RNvXsc_NtNtNtNtCsa86sUp9HUqm_19openzeppelin_stylus5token5erc205utils10safe_erc20NtB5_9SafeErc20NtB5_10ISafeErc2018safe_transfer_from
FN:258,_RNvXsc_NtNtNtNtCsa86sUp9HUqm_19openzeppelin_stylus5token5erc205utils10safe_erc20NtB5_9SafeErc20NtB5_10ISafeErc2023safe_increase_allowance
FN:271,_RNvXsc_NtNtNtNtCsa86sUp9HUqm_19openzeppelin_stylus5token5erc205utils10safe_erc20NtB5_9SafeErc20NtB5_10ISafeErc2023safe_decrease_allowance
FN:295,_RNvXsc_NtNtNtNtCsa86sUp9HUqm_19openzeppelin_stylus5token5erc205utils10safe_erc20NtB5_9SafeErc20NtB5_10ISafeErc2013force_approve
FN:231,_RNvMse_NtNtNtNtCsa86sUp9HUqm_19openzeppelin_stylus5token5erc205utils10safe_erc20NtB5_9SafeErc2023___stylus_allow_override
FN:231,_RNvMse_NtNtNtNtCsa86sUp9HUqm_19openzeppelin_stylus5token5erc205utils10safe_erc20NtB5_9SafeErc2025___stylus_assert_overrides
FN:66,_RNvNvNvXs_NtNtNtNtNtNtCsa86sUp9HUqm_19openzeppelin_stylus5token5erc205utils10safe_erc205token6IErc20NtB8_11IErc20CallsNtNtNtCslo5yAywcNl4_15alloy_sol_types5types9interface12SolInterface14abi_decode_raw12DECODE_SHIMS7approve
FN:66,_RNvNvNvXs_NtNtNtNtNtNtCsa86sUp9HUqm_19openzeppelin_stylus5token5erc205utils10safe_erc205token6IErc20NtB8_11IErc20CallsNtNtNtCslo5yAywcNl4_15alloy_sol_types5types9interface12SolInterface14abi_decode_raw12DECODE_SHIMS12transferFrom
FN:66,_RNvNvNvXs_NtNtNtNtNtNtCsa86sUp9HUqm_19openzeppelin_stylus5token5erc205utils10safe_erc205token6IErc20NtB8_11IErc20CallsNtNtNtCslo5yAywcNl4_15alloy_sol_types5types9interface12SolInterface14abi_decode_raw12DECODE_SHIMS8transfer
FN:66,_RNvNvNvXs_NtNtNtNtNtNtCsa86sUp9HUqm_19openzeppelin_stylus5token5erc205utils10safe_erc205token6IErc20NtB8_11IErc20CallsNtNtNtCslo5yAywcNl4_15alloy_sol_types5types9interface12SolInterface14abi_decode_raw12DECODE_SHIMS9allowance
FN:231,_RNvXsd_NtNtNtNtCsa86sUp9HUqm_19openzeppelin_stylus5token5erc205utils10safe_erc20NtB5_9SafeErc20INtNtCs8c3p7fi1c1U_10stylus_sdk3abi6RouterNtCs6Fv5GFrhYPv_18safe_erc20_example16SafeErc20ExampleE5routeB2d_
FN:402,_RNvNtNtNtNtNtCs6vaqcEMrLsG_19openzeppelin_stylus5token5erc205utils10safe_erc205testss_24encodes_true_empty_slice
FN:407,_RNvNtNtNtNtNtCs6vaqcEMrLsG_19openzeppelin_stylus5token5erc205utils10safe_erc205testss_25encodes_false_single_byte
FN:412,_RNvNtNtNtNtNtCs6vaqcEMrLsG_19openzeppelin_stylus5token5erc205utils10safe_erc205testss_24encodes_true_single_byte
FN:417,_RNvNtNtNtNtNtCs6vaqcEMrLsG_19openzeppelin_stylus5token5erc205utils10safe_erc205testss_24encodes_false_many_bytes
FN:425,_RNvNtNtNtNtNtCs6vaqcEMrLsG_19openzeppelin_stylus5token5erc205utils10safe_erc205testss_23encodes_true_many_bytes
FN:433,_RNvNtNtNtNtNtCs6vaqcEMrLsG_19openzeppelin_stylus5token5erc205utils10safe_erc205testss_24encodes_true_wrong_bytes
FN:24,_RNvNvNtNtNtNtCs6vaqcEMrLsG_19openzeppelin_stylus5token5erc205utils10safe_erc201__15__type_assertion
FN:24,_RNvNvNtNtNtNtCs6vaqcEMrLsG_19openzeppelin_stylus5token5erc205utils10safe_erc20s_1__15__type_assertion
FN:47,_RNvXs5_NtNtNtNtCs6vaqcEMrLsG_19openzeppelin_stylus5token5erc205utils10safe_erc20NtB5_5ErrorINtNtCshuVUGNokh5j_4core7convert4FromNtB9_5ErrorE4from
FN:47,_RNvXs6_NtNtNtNtCs6vaqcEMrLsG_19openzeppelin_stylus5token5erc205utils10safe_erc20NtB5_5ErrorINtNtCshuVUGNokh5j_4core7convert4FromNtB5_24SafeErc20FailedOperationE4from
FN:47,_RNvXs7_NtNtNtNtCs6vaqcEMrLsG_19openzeppelin_stylus5token5erc205utils10safe_erc20NtB5_5ErrorINtNtCshuVUGNokh5j_4core7convert4FromNtB5_32SafeErc20FailedDecreaseAllowanceE4from
FN:47,_RNvXs8_NtNtNtNtCs6vaqcEMrLsG_19openzeppelin_stylus5token5erc205utils10safe_erc20INtNtCsdDMkpvQxPWz_5alloc3vec3VechEINtNtCshuVUGNokh5j_4core7convert4FromNtB5_5ErrorE4from
FN:58,_RNvXNtNtNtNtCs6vaqcEMrLsG_19openzeppelin_stylus5token5erc205utils10safe_erc20NtB2_5ErrorNtNtNtCs8c3p7fi1c1U_10stylus_sdk4call5error11MethodError6encode
FN:66,_RNvNvNtNtNtNtNtNtCs6vaqcEMrLsG_19openzeppelin_stylus5token5erc205utils10safe_erc205token6IErc201__15__type_assertion
FN:66,_RNvNvNtNtNtNtNtNtCs6vaqcEMrLsG_19openzeppelin_stylus5token5erc205utils10safe_erc205token6IErc201__s_15__type_assertion
FN:66,_RNvNvNtNtNtNtNtNtCs6vaqcEMrLsG_19openzeppelin_stylus5token5erc205utils10safe_erc205token6IErc20s_1__15__type_assertion
FN:66,_RNvNvNtNtNtNtNtNtCs6vaqcEMrLsG_19openzeppelin_stylus5token5erc205utils10safe_erc205token6IErc20s_1__s_15__type_assertion
FN:66,_RNvNvNtNtNtNtNtNtCs6vaqcEMrLsG_19openzeppelin_stylus5token5erc205utils10safe_erc205token6IErc20s0_1__15__type_assertion
FN:66,_RNvNvNtNtNtNtNtNtCs6vaqcEMrLsG_19openzeppelin_stylus5token5erc205utils10safe_erc205token6IErc20s0_1__s_15__type_assertion
FN:66,_RNvNvNtNtNtNtNtNtCs6vaqcEMrLsG_19openzeppelin_stylus5token5erc205utils10safe_erc205token6IErc20s1_1__15__type_assertion
FN:66,_RNvNvNtNtNtNtNtNtCs6vaqcEMrLsG_19openzeppelin_stylus5token5erc205utils10safe_erc205token6IErc20s1_1__s_15__type_assertion
FN:79,_RNvMsa_NtNtNtNtCs6vaqcEMrLsG_19openzeppelin_stylus5token5erc205utils10safe_erc20NtB5_9SafeErc2014required_slots
FN:76,_RNvXsb_NtNtNtNtCs6vaqcEMrLsG_19openzeppelin_stylus5token5erc205utils10safe_erc20NtB5_9SafeErc20NtNtNtCs8c3p7fi1c1U_10stylus_sdk7storage6traits11StorageType4load
FN:76,_RNvXsb_NtNtNtNtCs6vaqcEMrLsG_19openzeppelin_stylus5token5erc205utils10safe_erc20NtB5_9SafeErc20NtNtNtCs8c3p7fi1c1U_10stylus_sdk7storage6traits11StorageType8load_mut
FN:235,_RNvXsc_NtNtNtNtCs6vaqcEMrLsG_19openzeppelin_stylus5token5erc205utils10safe_erc20NtB5_9SafeErc20NtB5_10ISafeErc2013safe_transfer
FN:246,_RNvXsc_NtNtNtNtCs6vaqcEMrLsG_19openzeppelin_stylus5token5erc205utils10safe_erc20NtB5_9SafeErc20NtB5_10ISafeErc2018safe_transfer_from
FN:258,_RNvXsc_NtNtNtNtCs6vaqcEMrLsG_19openzeppelin_stylus5token5erc205utils10safe_erc20NtB5_9SafeErc20NtB5_10ISafeErc2023safe_increase_allowance
FN:271,_RNvXsc_NtNtNtNtCs6vaqcEMrLsG_19openzeppelin_stylus5token5erc205utils10safe_erc20NtB5_9SafeErc20NtB5_10ISafeErc2023safe_decrease_allowance
FN:295,_RNvXsc_NtNtNtNtCs6vaqcEMrLsG_19openzeppelin_stylus5token5erc205utils10safe_erc20NtB5_9SafeErc20NtB5_10ISafeErc2013force_approve
FN:231,_RNvXININtNtNtNtCs6vaqcEMrLsG_19openzeppelin_stylus5token5erc205utils10safe_erc20sd_0pENtB5_9SafeErc20INtNtCs8c3p7fi1c1U_10stylus_sdk3abi6RouterpE5routeBd_
FN:231,_RNvMse_NtNtNtNtCs6vaqcEMrLsG_19openzeppelin_stylus5token5erc205utils10safe_erc20NtB5_9SafeErc2023___stylus_allow_override
FN:231,_RNvMse_NtNtNtNtCs6vaqcEMrLsG_19openzeppelin_stylus5token5erc205utils10safe_erc20NtB5_9SafeErc2025___stylus_assert_overrides
FN:335,_RINvMs0_NtNtNtNtCs6vaqcEMrLsG_19openzeppelin_stylus5token5erc205utils10safe_erc20NtB6_9SafeErc2020call_optional_returnpEBe_
FN:367,_RNvMs0_NtNtNtNtCs6vaqcEMrLsG_19openzeppelin_stylus5token5erc205utils10safe_erc20NtB5_9SafeErc209allowance
FN:377,_RNCNvMs0_NtNtNtNtCs6vaqcEMrLsG_19openzeppelin_stylus5token5erc205utils10safe_erc20NtB7_9SafeErc209allowance0Bf_
FN:66,_RNvNvNvXs_NtNtNtNtNtNtCs6vaqcEMrLsG_19openzeppelin_stylus5token5erc205utils10safe_erc205token6IErc20NtB8_11IErc20CallsNtNtNtCslo5yAywcNl4_15alloy_sol_types5types9interface12SolInterface14abi_decode_raw12DECODE_SHIMS7approve
FN:66,_RNvNvNvXs_NtNtNtNtNtNtCs6vaqcEMrLsG_19openzeppelin_stylus5token5erc205utils10safe_erc205token6IErc20NtB8_11IErc20CallsNtNtNtCslo5yAywcNl4_15alloy_sol_types5types9interface12SolInterface14abi_decode_raw12DECODE_SHIMS12transferFrom
FN:66,_RNvNvNvXs_NtNtNtNtNtNtCs6vaqcEMrLsG_19openzeppelin_stylus5token5erc205utils10safe_erc205token6IErc20NtB8_11IErc20CallsNtNtNtCslo5yAywcNl4_15alloy_sol_types5types9interface12SolInterface14abi_decode_raw12DECODE_SHIMS8transfer
FN:66,_RNvNvNvXs_NtNtNtNtNtNtCs6vaqcEMrLsG_19openzeppelin_stylus5token5erc205utils10safe_erc205token6IErc20NtB8_11IErc20CallsNtNtNtCslo5yAywcNl4_15alloy_sol_types5types9interface12SolInterface14abi_decode_raw12DECODE_SHIMS9allowance
FN:392,_RNCNvMs0_NtNtNtNtCs6vaqcEMrLsG_19openzeppelin_stylus5token5erc205utils10safe_erc20NtB7_9SafeErc2012encodes_true0Bf_
FN:393,_RNCNCNvMs0_NtNtNtNtCs6vaqcEMrLsG_19openzeppelin_stylus5token5erc205utils10safe_erc20NtB9_9SafeErc2012encodes_true00Bh_
FN:391,_RNvMs0_NtNtNtNtCs6vaqcEMrLsG_19openzeppelin_stylus5token5erc205utils10safe_erc20NtB5_9SafeErc2012encodes_true
FN:79,_RNvXsb_NtNtNtNtCs6vaqcEMrLsG_19openzeppelin_stylus5token5erc205utils10safe_erc20NtB5_9SafeErc20NtNtNtCs8c3p7fi1c1U_10stylus_sdk7storage6traits11StorageType3new
FN:231,_RNvXsd_NtNtNtNtCsa86sUp9HUqm_19openzeppelin_stylus5token5erc205utils10safe_erc20NtB5_9SafeErc20INtNtCs8c3p7fi1c1U_10stylus_sdk3abi6RouterNtCskc9X4Wn7Sdl_18safe_erc20_example16SafeErc20ExampleE5routeB2d_
FNDA:0,_RNvXs8_NtNtNtNtCsa86sUp9HUqm_19openzeppelin_stylus5token5erc205utils10safe_erc20INtNtCsdDMkpvQxPWz_5alloc3vec3VechEINtNtCshuVUGNokh5j_4core7convert4FromNtB5_5ErrorE4from
FNDA:0,_RINvMs0_NtNtNtNtCsa86sUp9HUqm_19openzeppelin_stylus5token5erc205utils10safe_erc20NtB6_9SafeErc2020call_optional_returnNtNtNtB6_5token6IErc2011approveCallEBe_
FNDA:0,_RINvMs0_NtNtNtNtCsa86sUp9HUqm_19openzeppelin_stylus5token5erc205utils10safe_erc20NtB6_9SafeErc2020call_optional_returnNtNtNtB6_5token6IErc2012transferCallEBe_
FNDA:0,_RINvMs0_NtNtNtNtCsa86sUp9HUqm_19openzeppelin_stylus5token5erc205utils10safe_erc20NtB6_9SafeErc2020call_optional_returnNtNtNtB6_5token6IErc2016transferFromCallEBe_
FNDA:0,_RNCNvMs0_NtNtNtNtCsa86sUp9HUqm_19openzeppelin_stylus5token5erc205utils10safe_erc20NtB7_9SafeErc209allowance0Bf_
FNDA:0,_RNCNvMs0_NtNtNtNtCsa86sUp9HUqm_19openzeppelin_stylus5token5erc205utils10safe_erc20NtB7_9SafeErc2012encodes_true0Bf_
FNDA:0,_RNCNCNvMs0_NtNtNtNtCsa86sUp9HUqm_19openzeppelin_stylus5token5erc205utils10safe_erc20NtB9_9SafeErc2012encodes_true00Bh_
FNDA:0,_RNvXININtNtNtNtCsa86sUp9HUqm_19openzeppelin_stylus5token5erc205utils10safe_erc20sd_0pENtB5_9SafeErc20INtNtCs8c3p7fi1c1U_10stylus_sdk3abi6RouterpE5routeBd_
FNDA:0,_RNvXNtNtNtNtCsa86sUp9HUqm_19openzeppelin_stylus5token5erc205utils10safe_erc20NtB2_5ErrorNtNtNtCs8c3p7fi1c1U_10stylus_sdk4call5error11MethodError6encode
FNDA:0,_RNvMs0_NtNtNtNtCsa86sUp9HUqm_19openzeppelin_stylus5token5erc205utils10safe_erc20NtB5_9SafeErc209allowance
FNDA:0,_RNvMs0_NtNtNtNtCsa86sUp9HUqm_19openzeppelin_stylus5token5erc205utils10safe_erc20NtB5_9SafeErc2012encodes_true
FNDA:0,_RNvXs5_NtNtNtNtCsa86sUp9HUqm_19openzeppelin_stylus5token5erc205utils10safe_erc20NtB5_5ErrorINtNtCshuVUGNokh5j_4core7convert4FromNtB9_5ErrorE4from
FNDA:0,_RNvXs6_NtNtNtNtCsa86sUp9HUqm_19openzeppelin_stylus5token5erc205utils10safe_erc20NtB5_5ErrorINtNtCshuVUGNokh5j_4core7convert4FromNtB5_24SafeErc20FailedOperationE4from
FNDA:0,_RNvXs7_NtNtNtNtCsa86sUp9HUqm_19openzeppelin_stylus5token5erc205utils10safe_erc20NtB5_5ErrorINtNtCshuVUGNokh5j_4core7convert4FromNtB5_32SafeErc20FailedDecreaseAllowanceE4from
FNDA:0,_RNvMsa_NtNtNtNtCsa86sUp9HUqm_19openzeppelin_stylus5token5erc205utils10safe_erc20NtB5_9SafeErc2014required_slots
FNDA:0,_RNvXsb_NtNtNtNtCsa86sUp9HUqm_19openzeppelin_stylus5token5erc205utils10safe_erc20NtB5_9SafeErc20NtNtNtCs8c3p7fi1c1U_10stylus_sdk7storage6traits11StorageType3new
FNDA:0,_RNvXsb_NtNtNtNtCsa86sUp9HUqm_19openzeppelin_stylus5token5erc205utils10safe_erc20NtB5_9SafeErc20NtNtNtCs8c3p7fi1c1U_10stylus_sdk7storage6traits11StorageType4load
FNDA:0,_RNvXsb_NtNtNtNtCsa86sUp9HUqm_19openzeppelin_stylus5token5erc205utils10safe_erc20NtB5_9SafeErc20NtNtNtCs8c3p7fi1c1U_10stylus_sdk7storage6traits11StorageType8load_mut
FNDA:0,_RNvXsc_NtNtNtNtCsa86sUp9HUqm_19openzeppelin_stylus5token5erc205utils10safe_erc20NtB5_9SafeErc20NtB5_10ISafeErc2013safe_transfer
FNDA:0,_RNvXsc_NtNtNtNtCsa86sUp9HUqm_19openzeppelin_stylus5token5erc205utils10safe_erc20NtB5_9SafeErc20NtB5_10ISafeErc2018safe_transfer_from
FNDA:0,_RNvXsc_NtNtNtNtCsa86sUp9HUqm_19openzeppelin_stylus5token5erc205utils10safe_erc20NtB5_9SafeErc20NtB5_10ISafeErc2023safe_increase_allowance
FNDA:0,_RNvXsc_NtNtNtNtCsa86sUp9HUqm_19openzeppelin_stylus5token5erc205utils10safe_erc20NtB5_9SafeErc20NtB5_10ISafeErc2023safe_decrease_allowance
FNDA:0,_RNvXsc_NtNtNtNtCsa86sUp9HUqm_19openzeppelin_stylus5token5erc205utils10safe_erc20NtB5_9SafeErc20NtB5_10ISafeErc2013force_approve
FNDA:0,_RNvMse_NtNtNtNtCsa86sUp9HUqm_19openzeppelin_stylus5token5erc205utils10safe_erc20NtB5_9SafeErc2023___stylus_allow_override
FNDA:0,_RNvMse_NtNtNtNtCsa86sUp9HUqm_19openzeppelin_stylus5token5erc205utils10safe_erc20NtB5_9SafeErc2025___stylus_assert_overrides
FNDA:0,_RNvNvNvXs_NtNtNtNtNtNtCsa86sUp9HUqm_19openzeppelin_stylus5token5erc205utils10safe_erc205token6IErc20NtB8_11IErc20CallsNtNtNtCslo5yAywcNl4_15alloy_sol_types5types9interface12SolInterface14abi_decode_raw12DECODE_SHIMS7approve
FNDA:0,_RNvNvNvXs_NtNtNtNtNtNtCsa86sUp9HUqm_19openzeppelin_stylus5token5erc205utils10safe_erc205token6IErc20NtB8_11IErc20CallsNtNtNtCslo5yAywcNl4_15alloy_sol_types5types9interface12SolInterface14abi_decode_raw12DECODE_SHIMS12transferFrom
FNDA:0,_RNvNvNvXs_NtNtNtNtNtNtCsa86sUp9HUqm_19openzeppelin_stylus5token5erc205utils10safe_erc205token6IErc20NtB8_11IErc20CallsNtNtNtCslo5yAywcNl4_15alloy_sol_types5types9interface12SolInterface14abi_decode_raw12DECODE_SHIMS8transfer
FNDA:0,_RNvNvNvXs_NtNtNtNtNtNtCsa86sUp9HUqm_19openzeppelin_stylus5token5erc205utils10safe_erc205token6IErc20NtB8_11IErc20CallsNtNtNtCslo5yAywcNl4_15alloy_sol_types5types9interface12SolInterface14abi_decode_raw12DECODE_SHIMS9allowance
FNDA:0,_RNvXsd_NtNtNtNtCsa86sUp9HUqm_19openzeppelin_stylus5token5erc205utils10safe_erc20NtB5_9SafeErc20INtNtCs8c3p7fi1c1U_10stylus_sdk3abi6RouterNtCs6Fv5GFrhYPv_18safe_erc20_example16SafeErc20ExampleE5routeB2d_
FNDA:1,_RNvNtNtNtNtNtCs6vaqcEMrLsG_19openzeppelin_stylus5token5erc205utils10safe_erc205testss_24encodes_true_empty_slice
FNDA:1,_RNvNtNtNtNtNtCs6vaqcEMrLsG_19openzeppelin_stylus5token5erc205utils10safe_erc205testss_25encodes_false_single_byte
FNDA:1,_RNvNtNtNtNtNtCs6vaqcEMrLsG_19openzeppelin_stylus5token5erc205utils10safe_erc205testss_24encodes_true_single_byte
FNDA:1,_RNvNtNtNtNtNtCs6vaqcEMrLsG_19openzeppelin_stylus5token5erc205utils10safe_erc205testss_24encodes_false_many_bytes
FNDA:1,_RNvNtNtNtNtNtCs6vaqcEMrLsG_19openzeppelin_stylus5token5erc205utils10safe_erc205testss_23encodes_true_many_bytes
FNDA:1,_RNvNtNtNtNtNtCs6vaqcEMrLsG_19openzeppelin_stylus5token5erc205utils10safe_erc205testss_24encodes_true_wrong_bytes
FNDA:0,_RNvNvNtNtNtNtCs6vaqcEMrLsG_19openzeppelin_stylus5token5erc205utils10safe_erc201__15__type_assertion
FNDA:0,_RNvNvNtNtNtNtCs6vaqcEMrLsG_19openzeppelin_stylus5token5erc205utils10safe_erc20s_1__15__type_assertion
FNDA:0,_RNvXs5_NtNtNtNtCs6vaqcEMrLsG_19openzeppelin_stylus5token5erc205utils10safe_erc20NtB5_5ErrorINtNtCshuVUGNokh5j_4core7convert4FromNtB9_5ErrorE4from
FNDA:0,_RNvXs6_NtNtNtNtCs6vaqcEMrLsG_19openzeppelin_stylus5token5erc205utils10safe_erc20NtB5_5ErrorINtNtCshuVUGNokh5j_4core7convert4FromNtB5_24SafeErc20FailedOperationE4from
FNDA:0,_RNvXs7_NtNtNtNtCs6vaqcEMrLsG_19openzeppelin_stylus5token5erc205utils10safe_erc20NtB5_5ErrorINtNtCshuVUGNokh5j_4core7convert4FromNtB5_32SafeErc20FailedDecreaseAllowanceE4from
FNDA:0,_RNvXs8_NtNtNtNtCs6vaqcEMrLsG_19openzeppelin_stylus5token5erc205utils10safe_erc20INtNtCsdDMkpvQxPWz_5alloc3vec3VechEINtNtCshuVUGNokh5j_4core7convert4FromNtB5_5ErrorE4from
FNDA:0,_RNvXNtNtNtNtCs6vaqcEMrLsG_19openzeppelin_stylus5token5erc205utils10safe_erc20NtB2_5ErrorNtNtNtCs8c3p7fi1c1U_10stylus_sdk4call5error11MethodError6encode
FNDA:0,_RNvNvNtNtNtNtNtNtCs6vaqcEMrLsG_19openzeppelin_stylus5token5erc205utils10safe_erc205token6IErc201__15__type_assertion
FNDA:0,_RNvNvNtNtNtNtNtNtCs6vaqcEMrLsG_19openzeppelin_stylus5token5erc205utils10safe_erc205token6IErc201__s_15__type_assertion
FNDA:0,_RNvNvNtNtNtNtNtNtCs6vaqcEMrLsG_19openzeppelin_stylus5token5erc205utils10safe_erc205token6IErc20s_1__15__type_assertion
FNDA:0,_RNvNvNtNtNtNtNtNtCs6vaqcEMrLsG_19openzeppelin_stylus5token5erc205utils10safe_erc205token6IErc20s_1__s_15__type_assertion
FNDA:0,_RNvNvNtNtNtNtNtNtCs6vaqcEMrLsG_19openzeppelin_stylus5token5erc205utils10safe_erc205token6IErc20s0_1__15__type_assertion
FNDA:0,_RNvNvNtNtNtNtNtNtCs6vaqcEMrLsG_19openzeppelin_stylus5token5erc205utils10safe_erc205token6IErc20s0_1__s_15__type_assertion
FNDA:0,_RNvNvNtNtNtNtNtNtCs6vaqcEMrLsG_19openzeppelin_stylus5token5erc205utils10safe_erc205token6IErc20s1_1__15__type_assertion
FNDA:0,_RNvNvNtNtNtNtNtNtCs6vaqcEMrLsG_19openzeppelin_stylus5token5erc205utils10safe_erc205token6IErc20s1_1__s_15__type_assertion
FNDA:0,_RNvMsa_NtNtNtNtCs6vaqcEMrLsG_19openzeppelin_stylus5token5erc205utils10safe_erc20NtB5_9SafeErc2014required_slots
FNDA:0,_RNvXsb_NtNtNtNtCs6vaqcEMrLsG_19openzeppelin_stylus5token5erc205utils10safe_erc20NtB5_9SafeErc20NtNtNtCs8c3p7fi1c1U_10stylus_sdk7storage6traits11StorageType4load
FNDA:0,_RNvXsb_NtNtNtNtCs6vaqcEMrLsG_19openzeppelin_stylus5token5erc205utils10safe_erc20NtB5_9SafeErc20NtNtNtCs8c3p7fi1c1U_10stylus_sdk7storage6traits11StorageType8load_mut
FNDA:0,_RNvXsc_NtNtNtNtCs6vaqcEMrLsG_19openzeppelin_stylus5token5erc205utils10safe_erc20NtB5_9SafeErc20NtB5_10ISafeErc2013safe_transfer
FNDA:0,_RNvXsc_NtNtNtNtCs6vaqcEMrLsG_19openzeppelin_stylus5token5erc205utils10safe_erc20NtB5_9SafeErc20NtB5_10ISafeErc2018safe_transfer_from
FNDA:0,_RNvXsc_NtNtNtNtCs6vaqcEMrLsG_19openzeppelin_stylus5token5erc205utils10safe_erc20NtB5_9SafeErc20NtB5_10ISafeErc2023safe_increase_allowance
FNDA:0,_RNvXsc_NtNtNtNtCs6vaqcEMrLsG_19openzeppelin_stylus5token5erc205utils10safe_erc20NtB5_9SafeErc20NtB5_10ISafeErc2023safe_decrease_allowance
FNDA:0,_RNvXsc_NtNtNtNtCs6vaqcEMrLsG_19openzeppelin_stylus5token5erc205utils10safe_erc20NtB5_9SafeErc20NtB5_10ISafeErc2013force_approve
FNDA:0,_RNvXININtNtNtNtCs6vaqcEMrLsG_19openzeppelin_stylus5token5erc205utils10safe_erc20sd_0pENtB5_9SafeErc20INtNtCs8c3p7fi1c1U_10stylus_sdk3abi6RouterpE5routeBd_
FNDA:0,_RNvMse_NtNtNtNtCs6vaqcEMrLsG_19openzeppelin_stylus5token5erc205utils10safe_erc20NtB5_9SafeErc2023___stylus_allow_override
FNDA:0,_RNvMse_NtNtNtNtCs6vaqcEMrLsG_19openzeppelin_stylus5token5erc205utils10safe_erc20NtB5_9SafeErc2025___stylus_assert_overrides
FNDA:0,_RINvMs0_NtNtNtNtCs6vaqcEMrLsG_19openzeppelin_stylus5token5erc205utils10safe_erc20NtB6_9SafeErc2020call_optional_returnpEBe_
FNDA:0,_RNvMs0_NtNtNtNtCs6vaqcEMrLsG_19openzeppelin_stylus5token5erc205utils10safe_erc20NtB5_9SafeErc209allowance
FNDA:0,_RNCNvMs0_NtNtNtNtCs6vaqcEMrLsG_19openzeppelin_stylus5token5erc205utils10safe_erc20NtB7_9SafeErc209allowance0Bf_
FNDA:0,_RNvNvNvXs_NtNtNtNtNtNtCs6vaqcEMrLsG_19openzeppelin_stylus5token5erc205utils10safe_erc205token6IErc20NtB8_11IErc20CallsNtNtNtCslo5yAywcNl4_15alloy_sol_types5types9interface12SolInterface14abi_decode_raw12DECODE_SHIMS7approve
FNDA:0,_RNvNvNvXs_NtNtNtNtNtNtCs6vaqcEMrLsG_19openzeppelin_stylus5token5erc205utils10safe_erc205token6IErc20NtB8_11IErc20CallsNtNtNtCslo5yAywcNl4_15alloy_sol_types5types9interface12SolInterface14abi_decode_raw12DECODE_SHIMS12transferFrom
FNDA:0,_RNvNvNvXs_NtNtNtNtNtNtCs6vaqcEMrLsG_19openzeppelin_stylus5token5erc205utils10safe_erc205token6IErc20NtB8_11IErc20CallsNtNtNtCslo5yAywcNl4_15alloy_sol_types5types9interface12SolInterface14abi_decode_raw12DECODE_SHIMS8transfer
FNDA:0,_RNvNvNvXs_NtNtNtNtNtNtCs6vaqcEMrLsG_19openzeppelin_stylus5token5erc205utils10safe_erc205token6IErc20NtB8_11IErc20CallsNtNtNtCslo5yAywcNl4_15alloy_sol_types5types9interface12SolInterface14abi_decode_raw12DECODE_SHIMS9allowance
FNDA:5,_RNCNvMs0_NtNtNtNtCs6vaqcEMrLsG_19openzeppelin_stylus5token5erc205utils10safe_erc20NtB7_9SafeErc2012encodes_true0Bf_
FNDA:12,_RNCNCNvMs0_NtNtNtNtCs6vaqcEMrLsG_19openzeppelin_stylus5token5erc205utils10safe_erc20NtB9_9SafeErc2012encodes_true00Bh_
FNDA:6,_RNvMs0_NtNtNtNtCs6vaqcEMrLsG_19openzeppelin_stylus5token5erc205utils10safe_erc20NtB5_9SafeErc2012encodes_true
FNDA:8,_RNvXsb_NtNtNtNtCs6vaqcEMrLsG_19openzeppelin_stylus5token5erc205utils10safe_erc20NtB5_9SafeErc20NtNtNtCs8c3p7fi1c1U_10stylus_sdk7storage6traits11StorageType3new
FNDA:0,_RNvXsd_NtNtNtNtCsa86sUp9HUqm_19openzeppelin_stylus5token5erc205utils10safe_erc20NtB5_9SafeErc20INtNtCs8c3p7fi1c1U_10stylus_sdk3abi6RouterNtCskc9X4Wn7Sdl_18safe_erc20_example16SafeErc20ExampleE5routeB2d_
FNF:24
FNH:10
DA:24,0
DA:25,0
DA:26,0
DA:27,0
DA:28,0
DA:29,0
DA:30,0
DA:31,0
DA:32,0
DA:33,0
DA:34,0
DA:35,0
DA:36,0
DA:37,0
DA:38,0
DA:39,0
DA:40,0
DA:41,0
DA:42,0
DA:43,0
DA:44,0
DA:47,0
DA:58,0
DA:59,0
DA:60,0
DA:66,0
DA:67,0
DA:68,0
DA:69,0
DA:70,0
DA:71,0
DA:72,0
DA:73,0
DA:74,0
DA:76,0
DA:77,0
DA:78,0
DA:79,8
DA:231,0
DA:235,0
DA:236,0
DA:237,0
DA:238,0
DA:239,0
DA:240,0
DA:241,0
DA:242,0
DA:243,0
DA:244,0
DA:246,0
DA:247,0
DA:248,0
DA:249,0
DA:250,0
DA:251,0
DA:252,0
DA:253,0
DA:254,0
DA:255,0
DA:256,0
DA:258,0
DA:259,0
DA:260,0
DA:261,0
DA:262,0
DA:263,0
DA:264,0
DA:265,0
DA:266,0
DA:267,0
DA:268,0
DA:269,0
DA:271,0
DA:272,0
DA:273,0
DA:274,0
DA:275,0
DA:276,0
DA:277,0
DA:279,0
DA:280,0
DA:281,0
DA:282,0
DA:283,0
DA:284,0
DA:285,0
DA:286,0
DA:287,0
DA:288,0
DA:289,0
DA:290,0
DA:291,0
DA:292,0
DA:293,0
DA:295,0
DA:296,0
DA:297,0
DA:298,0
DA:299,0
DA:300,0
DA:301,0
DA:302,0
DA:303,0
DA:304,0
DA:305,0
DA:306,0
DA:307,0
DA:308,0
DA:309,0
DA:310,0
DA:311,0
DA:312,0
DA:313,0
DA:314,0
DA:335,0
DA:336,0
DA:337,0
DA:338,0
DA:339,0
DA:340,0
DA:341,0
DA:342,0
DA:343,0
DA:344,0
DA:345,0
DA:346,0
DA:348,0
DA:349,0
DA:351,0
DA:367,0
DA:368,0
DA:369,0
DA:370,0
DA:371,0
DA:372,0
DA:373,0
DA:374,0
DA:375,0
DA:376,0
DA:377,0
DA:378,0
DA:379,0
DA:380,0
DA:381,0
DA:383,0
DA:384,0
DA:391,6
DA:392,6
DA:393,12
DA:394,6
DA:395,6
DA:402,1
DA:403,1
DA:404,1
DA:407,1
DA:408,1
DA:409,1
DA:412,1
DA:413,1
DA:414,1
DA:417,1
DA:418,1
DA:419,1
DA:420,1
DA:421,1
DA:422,1
DA:425,1
DA:426,1
DA:427,1
DA:428,1
DA:429,1
DA:430,1
DA:433,1
DA:434,1
DA:435,1
DA:436,1
DA:437,1
DA:438,1
BRF:0
BRH:0
LF:184
LH:36
end_of_record
SF:/home/nenad/repos/rust-contracts-stylus/contracts/src/token/erc721/extensions/burnable.rs
FN:43,_RNvXNtNtNtNtCsa86sUp9HUqm_19openzeppelin_stylus5token6erc72110extensions8burnableNtB6_6Erc721NtB2_15IErc721Burnable4burn
FN:43,_RNvXNtNtNtNtCs6vaqcEMrLsG_19openzeppelin_stylus5token6erc72110extensions8burnableNtB6_6Erc721NtB2_15IErc721Burnable4burn
FN:68,_RNvNtNtNtNtNtCs6vaqcEMrLsG_19openzeppelin_stylus5token6erc72110extensions8burnable5testss_5burns
FN:101,_RNvNtNtNtNtNtCs6vaqcEMrLsG_19openzeppelin_stylus5token6erc72110extensions8burnable5testss_19burns_with_approval
FN:133,_RNvNtNtNtNtNtCs6vaqcEMrLsG_19openzeppelin_stylus5token6erc72110extensions8burnable5testss_27burns_with_approval_for_all
FN:167,_RNvNtNtNtNtNtCs6vaqcEMrLsG_19openzeppelin_stylus5token6erc72110extensions8burnable5testss_51error_when_get_approved_of_previous_approval_burned
FN:191,_RNvNtNtNtNtNtCs6vaqcEMrLsG_19openzeppelin_stylus5token6erc72110extensions8burnable5testss_32error_when_burn_without_approval
FN:210,_RNvNtNtNtNtNtCs6vaqcEMrLsG_19openzeppelin_stylus5token6erc72110extensions8burnable5testss_33error_when_burn_nonexistent_token
FNDA:0,_RNvXNtNtNtNtCsa86sUp9HUqm_19openzeppelin_stylus5token6erc72110extensions8burnableNtB6_6Erc721NtB2_15IErc721Burnable4burn
FNDA:6,_RNvXNtNtNtNtCs6vaqcEMrLsG_19openzeppelin_stylus5token6erc72110extensions8burnableNtB6_6Erc721NtB2_15IErc721Burnable4burn
FNDA:1,_RNvNtNtNtNtNtCs6vaqcEMrLsG_19openzeppelin_stylus5token6erc72110extensions8burnable5testss_5burns
FNDA:1,_RNvNtNtNtNtNtCs6vaqcEMrLsG_19openzeppelin_stylus5token6erc72110extensions8burnable5testss_19burns_with_approval
FNDA:1,_RNvNtNtNtNtNtCs6vaqcEMrLsG_19openzeppelin_stylus5token6erc72110extensions8burnable5testss_27burns_with_approval_for_all
FNDA:1,_RNvNtNtNtNtNtCs6vaqcEMrLsG_19openzeppelin_stylus5token6erc72110extensions8burnable5testss_51error_when_get_approved_of_previous_approval_burned
FNDA:1,_RNvNtNtNtNtNtCs6vaqcEMrLsG_19openzeppelin_stylus5token6erc72110extensions8burnable5testss_32error_when_burn_without_approval
FNDA:1,_RNvNtNtNtNtNtCs6vaqcEMrLsG_19openzeppelin_stylus5token6erc72110extensions8burnable5testss_33error_when_burn_nonexistent_token
FNF:7
FNH:7
DA:43,6
DA:44,6
DA:45,6
DA:46,6
DA:47,6
DA:48,6
DA:49,6
DA:50,6
DA:51,4
DA:52,6
DA:68,1
DA:101,1
DA:133,1
DA:167,1
DA:191,1
DA:210,1
BRF:0
BRH:0
LF:16
LH:16
end_of_record
SF:/home/nenad/repos/rust-contracts-stylus/contracts/src/token/erc721/extensions/consecutive.rs
FN:118,_RNvXsi_NtNtNtNtCsa86sUp9HUqm_19openzeppelin_stylus5token6erc72110extensions11consecutiveINtNtCsdDMkpvQxPWz_5alloc3vec3VechEINtNtCshuVUGNokh5j_4core7convert4FromNtB5_5ErrorE4from
FN:91,_RNvXs_NvNtNtNtNtCsa86sUp9HUqm_19openzeppelin_stylus5token6erc72110extensions11consecutive1__NtNtCs9yoxqfta9I2_16alloy_primitives3log7LogDataINtNtCshuVUGNokh5j_4core7convert4FromRNtB6_19ConsecutiveTransferE4fromBe_
FN:77,_RNCNvXs_NvNtNtNtNtCsa86sUp9HUqm_19openzeppelin_stylus5token6erc72110extensions11consecutive1__NtNtCs9yoxqfta9I2_16alloy_primitives3log7LogDataINtNtCshuVUGNokh5j_4core7convert4FromRNtB8_19ConsecutiveTransferE4from0Bg_
FN:140,_RNvXININtNtNtNtCsa86sUp9HUqm_19openzeppelin_stylus5token6erc72110extensions11consecutivesl_0pENtB5_17Erc721ConsecutiveINtNtCs8c3p7fi1c1U_10stylus_sdk3abi6RouterpE5routeBd_
FN:412,_RNvMs_NtNtNtNtCsa86sUp9HUqm_19openzeppelin_stylus5token6erc72110extensions11consecutiveNtB4_17Erc721Consecutive15__max_batch_size
FN:242,_RNvMs_NtNtNtNtCsa86sUp9HUqm_19openzeppelin_stylus5token6erc72110extensions11consecutiveNtB4_17Erc721Consecutive9__owner_of
FN:366,_RNvMs_NtNtNtNtCsa86sUp9HUqm_19openzeppelin_stylus5token6erc72110extensions11consecutiveNtB4_17Erc721Consecutive7__update
FN:395,_RNvMs_NtNtNtNtCsa86sUp9HUqm_19openzeppelin_stylus5token6erc72110extensions11consecutiveNtB4_17Erc721Consecutive20__next_consecutive_id
FN:404,_RNvMs_NtNtNtNtCsa86sUp9HUqm_19openzeppelin_stylus5token6erc72110extensions11consecutiveNtB4_17Erc721Consecutive21__first_consecutive_id
FN:430,_RNvMs0_NtNtNtNtCsa86sUp9HUqm_19openzeppelin_stylus5token6erc72110extensions11consecutiveNtB5_17Erc721Consecutive12__update_base
FN:492,_RNvMs0_NtNtNtNtCsa86sUp9HUqm_19openzeppelin_stylus5token6erc72110extensions11consecutiveNtB5_17Erc721Consecutive5__mint
FN:544,_RNvMs0_NtNtNtNtCsa86sUp9HUqm_19openzeppelin_stylus5token6erc72110extensions11consecutiveNtB5_17Erc721Consecutive10__safe_mint
FN:583,_RNvMs0_NtNtNtNtCsa86sUp9HUqm_19openzeppelin_stylus5token6erc72110extensions11consecutiveNtB5_17Erc721Consecutive5__burn
FN:624,_RNvMs0_NtNtNtNtCsa86sUp9HUqm_19openzeppelin_stylus5token6erc72110extensions11consecutiveNtB5_17Erc721Consecutive9__transfer
FN:696,_RNvMs0_NtNtNtNtCsa86sUp9HUqm_19openzeppelin_stylus5token6erc72110extensions11consecutiveNtB5_17Erc721Consecutive14__safe_transfer
FN:738,_RNvMs0_NtNtNtNtCsa86sUp9HUqm_19openzeppelin_stylus5token6erc72110extensions11consecutiveNtB5_17Erc721Consecutive8__approve
FN:785,_RNvMs0_NtNtNtNtCsa86sUp9HUqm_19openzeppelin_stylus5token6erc72110extensions11consecutiveNtB5_17Erc721Consecutive14__require_owned
FN:75,_RNvMs1_NtNtNtNtCsa86sUp9HUqm_19openzeppelin_stylus5token6erc72110extensions11consecutiveNtB5_17Erc721Consecutive14required_slots
FN:75,_RNvXs2_NtNtNtNtCsa86sUp9HUqm_19openzeppelin_stylus5token6erc72110extensions11consecutiveNtB5_17Erc721ConsecutiveNtNtNtCs8c3p7fi1c1U_10stylus_sdk7storage6traits11StorageType3new
FN:57,_RNvXs2_NtNtNtNtCsa86sUp9HUqm_19openzeppelin_stylus5token6erc72110extensions11consecutiveNtB5_17Erc721ConsecutiveNtNtNtCs8c3p7fi1c1U_10stylus_sdk7storage6traits11StorageType4load
FN:57,_RNvXs2_NtNtNtNtCsa86sUp9HUqm_19openzeppelin_stylus5token6erc72110extensions11consecutiveNtB5_17Erc721ConsecutiveNtNtNtCs8c3p7fi1c1U_10stylus_sdk7storage6traits11StorageType8load_mut
FN:118,_RNvXsc_NtNtNtNtCsa86sUp9HUqm_19openzeppelin_stylus5token6erc72110extensions11consecutiveNtB5_5ErrorINtNtCshuVUGNokh5j_4core7convert4FromNtB9_5ErrorE4from
FN:118,_RNvXsd_NtNtNtNtCsa86sUp9HUqm_19openzeppelin_stylus5token6erc72110extensions11consecutiveNtB5_5ErrorINtNtCshuVUGNokh5j_4core7convert4FromNtNtNtNtBd_5utils7structs11checkpoints5ErrorE4from
FN:118,_RNvXse_NtNtNtNtCsa86sUp9HUqm_19openzeppelin_stylus5token6erc72110extensions11consecutiveNtB5_5ErrorINtNtCshuVUGNokh5j_4core7convert4FromNtB5_24ERC721ForbiddenBatchMintE4from
FN:118,_RNvXsf_NtNtNtNtCsa86sUp9HUqm_19openzeppelin_stylus5token6erc72110extensions11consecutiveNtB5_5ErrorINtNtCshuVUGNokh5j_4core7convert4FromNtB5_26ERC721ExceededMaxBatchMintE4from
FN:118,_RNvXsg_NtNtNtNtCsa86sUp9HUqm_19openzeppelin_stylus5token6erc72110extensions11consecutiveNtB5_5ErrorINtNtCshuVUGNokh5j_4core7convert4FromNtB5_19ERC721ForbiddenMintE4from
FN:118,_RNvXsh_NtNtNtNtCsa86sUp9HUqm_19openzeppelin_stylus5token6erc72110extensions11consecutiveNtB5_5ErrorINtNtCshuVUGNokh5j_4core7convert4FromNtB5_24ERC721ForbiddenBatchBurnE4from
FN:144,_RNvXsk_NtNtNtNtCsa86sUp9HUqm_19openzeppelin_stylus5token6erc72110extensions11consecutiveNtB5_17Erc721ConsecutiveNtB9_7IErc72110balance_of
FN:148,_RNvXsk_NtNtNtNtCsa86sUp9HUqm_19openzeppelin_stylus5token6erc72110extensions11consecutiveNtB5_17Erc721ConsecutiveNtB9_7IErc7218owner_of
FN:152,_RNvXsk_NtNtNtNtCsa86sUp9HUqm_19openzeppelin_stylus5token6erc72110extensions11consecutiveNtB5_17Erc721ConsecutiveNtB9_7IErc72118safe_transfer_from
FN:164,_RNvXsk_NtNtNtNtCsa86sUp9HUqm_19openzeppelin_stylus5token6erc72110extensions11consecutiveNtB5_17Erc721ConsecutiveNtB9_7IErc72128safe_transfer_from_with_data
FN:181,_RNvXsk_NtNtNtNtCsa86sUp9HUqm_19openzeppelin_stylus5token6erc72110extensions11consecutiveNtB5_17Erc721ConsecutiveNtB9_7IErc72113transfer_from
FN:209,_RNvXsk_NtNtNtNtCsa86sUp9HUqm_19openzeppelin_stylus5token6erc72110extensions11consecutiveNtB5_17Erc721ConsecutiveNtB9_7IErc7217approve
FN:213,_RNvXsk_NtNtNtNtCsa86sUp9HUqm_19openzeppelin_stylus5token6erc72110extensions11consecutiveNtB5_17Erc721ConsecutiveNtB9_7IErc72120set_approval_for_all
FN:221,_RNvXsk_NtNtNtNtCsa86sUp9HUqm_19openzeppelin_stylus5token6erc72110extensions11consecutiveNtB5_17Erc721ConsecutiveNtB9_7IErc72112get_approved
FN:226,_RNvXsk_NtNtNtNtCsa86sUp9HUqm_19openzeppelin_stylus5token6erc72110extensions11consecutiveNtB5_17Erc721ConsecutiveNtB9_7IErc72119is_approved_for_all
FN:140,_RNvMsm_NtNtNtNtCsa86sUp9HUqm_19openzeppelin_stylus5token6erc72110extensions11consecutiveNtB5_17Erc721Consecutive23___stylus_allow_override
FN:140,_RNvMsm_NtNtNtNtCsa86sUp9HUqm_19openzeppelin_stylus5token6erc72110extensions11consecutiveNtB5_17Erc721Consecutive25___stylus_assert_overrides
FN:140,_RNvXsl_NtNtNtNtCsa86sUp9HUqm_19openzeppelin_stylus5token6erc72110extensions11consecutiveNtB5_17Erc721ConsecutiveINtNtCs8c3p7fi1c1U_10stylus_sdk3abi6RouterNtCs1oMBVfyDda4_26erc721_consecutive_example24Erc721ConsecutiveExampleE5routeB2u_
FN:140,_RNvXsl_NtNtNtNtCsa86sUp9HUqm_19openzeppelin_stylus5token6erc72110extensions11consecutiveNtB5_17Erc721ConsecutiveINtNtCs8c3p7fi1c1U_10stylus_sdk3abi6RouterNtCsa9iJjvRPaPD_26erc721_consecutive_example24Erc721ConsecutiveExampleE5routeB2u_
FN:242,_RNvMs_NtNtNtNtCs6vaqcEMrLsG_19openzeppelin_stylus5token6erc72110extensions11consecutiveNtB4_17Erc721Consecutive9__owner_of
FN:299,_RNvMs_NtNtNtNtCs6vaqcEMrLsG_19openzeppelin_stylus5token6erc72110extensions11consecutiveNtB4_17Erc721Consecutive17__mint_consecutive
FN:366,_RNvMs_NtNtNtNtCs6vaqcEMrLsG_19openzeppelin_stylus5token6erc72110extensions11consecutiveNtB4_17Erc721Consecutive7__update
FN:395,_RNvMs_NtNtNtNtCs6vaqcEMrLsG_19openzeppelin_stylus5token6erc72110extensions11consecutiveNtB4_17Erc721Consecutive20__next_consecutive_id
FN:404,_RNvMs_NtNtNtNtCs6vaqcEMrLsG_19openzeppelin_stylus5token6erc72110extensions11consecutiveNtB4_17Erc721Consecutive21__first_consecutive_id
FN:412,_RNvMs_NtNtNtNtCs6vaqcEMrLsG_19openzeppelin_stylus5token6erc72110extensions11consecutiveNtB4_17Erc721Consecutive15__max_batch_size
FN:430,_RNvMs0_NtNtNtNtCs6vaqcEMrLsG_19openzeppelin_stylus5token6erc72110extensions11consecutiveNtB5_17Erc721Consecutive12__update_base
FN:492,_RNvMs0_NtNtNtNtCs6vaqcEMrLsG_19openzeppelin_stylus5token6erc72110extensions11consecutiveNtB5_17Erc721Consecutive5__mint
FN:544,_RNvMs0_NtNtNtNtCs6vaqcEMrLsG_19openzeppelin_stylus5token6erc72110extensions11consecutiveNtB5_17Erc721Consecutive10__safe_mint
FN:583,_RNvMs0_NtNtNtNtCs6vaqcEMrLsG_19openzeppelin_stylus5token6erc72110extensions11consecutiveNtB5_17Erc721Consecutive5__burn
FN:624,_RNvMs0_NtNtNtNtCs6vaqcEMrLsG_19openzeppelin_stylus5token6erc72110extensions11consecutiveNtB5_17Erc721Consecutive9__transfer
FN:696,_RNvMs0_NtNtNtNtCs6vaqcEMrLsG_19openzeppelin_stylus5token6erc72110extensions11consecutiveNtB5_17Erc721Consecutive14__safe_transfer
FN:738,_RNvMs0_NtNtNtNtCs6vaqcEMrLsG_19openzeppelin_stylus5token6erc72110extensions11consecutiveNtB5_17Erc721Consecutive8__approve
FN:785,_RNvMs0_NtNtNtNtCs6vaqcEMrLsG_19openzeppelin_stylus5token6erc72110extensions11consecutiveNtB5_17Erc721Consecutive14__require_owned
FN:75,_RNvXs2_NtNtNtNtCs6vaqcEMrLsG_19openzeppelin_stylus5token6erc72110extensions11consecutiveNtB5_17Erc721ConsecutiveNtNtNtCs8c3p7fi1c1U_10stylus_sdk7storage6traits11StorageType3new
FN:118,_RNvXsc_NtNtNtNtCs6vaqcEMrLsG_19openzeppelin_stylus5token6erc72110extensions11consecutiveNtB5_5ErrorINtNtCshuVUGNokh5j_4core7convert4FromNtB9_5ErrorE4from
FN:118,_RNvXsd_NtNtNtNtCs6vaqcEMrLsG_19openzeppelin_stylus5token6erc72110extensions11consecutiveNtB5_5ErrorINtNtCshuVUGNokh5j_4core7convert4FromNtNtNtNtBd_5utils7structs11checkpoints5ErrorE4from
FN:118,_RNvXsf_NtNtNtNtCs6vaqcEMrLsG_19openzeppelin_stylus5token6erc72110extensions11consecutiveNtB5_5ErrorINtNtCshuVUGNokh5j_4core7convert4FromNtB5_26ERC721ExceededMaxBatchMintE4from
FN:144,_RNvXsk_NtNtNtNtCs6vaqcEMrLsG_19openzeppelin_stylus5token6erc72110extensions11consecutiveNtB5_17Erc721ConsecutiveNtB9_7IErc72110balance_of
FN:148,_RNvXsk_NtNtNtNtCs6vaqcEMrLsG_19openzeppelin_stylus5token6erc72110extensions11consecutiveNtB5_17Erc721ConsecutiveNtB9_7IErc7218owner_of
FN:152,_RNvXsk_NtNtNtNtCs6vaqcEMrLsG_19openzeppelin_stylus5token6erc72110extensions11consecutiveNtB5_17Erc721ConsecutiveNtB9_7IErc72118safe_transfer_from
FN:164,_RNvXsk_NtNtNtNtCs6vaqcEMrLsG_19openzeppelin_stylus5token6erc72110extensions11consecutiveNtB5_17Erc721ConsecutiveNtB9_7IErc72128safe_transfer_from_with_data
FN:181,_RNvXsk_NtNtNtNtCs6vaqcEMrLsG_19openzeppelin_stylus5token6erc72110extensions11consecutiveNtB5_17Erc721ConsecutiveNtB9_7IErc72113transfer_from
FN:209,_RNvXsk_NtNtNtNtCs6vaqcEMrLsG_19openzeppelin_stylus5token6erc72110extensions11consecutiveNtB5_17Erc721ConsecutiveNtB9_7IErc7217approve
FN:213,_RNvXsk_NtNtNtNtCs6vaqcEMrLsG_19openzeppelin_stylus5token6erc72110extensions11consecutiveNtB5_17Erc721ConsecutiveNtB9_7IErc72120set_approval_for_all
FN:221,_RNvXsk_NtNtNtNtCs6vaqcEMrLsG_19openzeppelin_stylus5token6erc72110extensions11consecutiveNtB5_17Erc721ConsecutiveNtB9_7IErc72112get_approved
FN:226,_RNvXsk_NtNtNtNtCs6vaqcEMrLsG_19openzeppelin_stylus5token6erc72110extensions11consecutiveNtB5_17Erc721ConsecutiveNtB9_7IErc72119is_approved_for_all
FN:75,_RNvMs1_NtNtNtNtCs6vaqcEMrLsG_19openzeppelin_stylus5token6erc72110extensions11consecutiveNtB5_17Erc721Consecutive14required_slots
FN:57,_RNvXs2_NtNtNtNtCs6vaqcEMrLsG_19openzeppelin_stylus5token6erc72110extensions11consecutiveNtB5_17Erc721ConsecutiveNtNtNtCs8c3p7fi1c1U_10stylus_sdk7storage6traits11StorageType4load
FN:57,_RNvXs2_NtNtNtNtCs6vaqcEMrLsG_19openzeppelin_stylus5token6erc72110extensions11consecutiveNtB5_17Erc721ConsecutiveNtNtNtCs8c3p7fi1c1U_10stylus_sdk7storage6traits11StorageType8load_mut
FN:91,_RNvXs_NvNtNtNtNtCs6vaqcEMrLsG_19openzeppelin_stylus5token6erc72110extensions11consecutive1__NtNtCs9yoxqfta9I2_16alloy_primitives3log7LogDataINtNtCshuVUGNokh5j_4core7convert4FromRNtB6_19ConsecutiveTransferE4fromBe_
FN:77,_RNCNvXs_NvNtNtNtNtCs6vaqcEMrLsG_19openzeppelin_stylus5token6erc72110extensions11consecutive1__NtNtCs9yoxqfta9I2_16alloy_primitives3log7LogDataINtNtCshuVUGNokh5j_4core7convert4FromRNtB8_19ConsecutiveTransferE4from0Bg_
FN:93,_RNvNvNtNtNtNtCs6vaqcEMrLsG_19openzeppelin_stylus5token6erc72110extensions11consecutives_1__15__type_assertion
FN:93,_RNvNvNtNtNtNtCs6vaqcEMrLsG_19openzeppelin_stylus5token6erc72110extensions11consecutives0_1__15__type_assertion
FN:93,_RNvNvNtNtNtNtCs6vaqcEMrLsG_19openzeppelin_stylus5token6erc72110extensions11consecutives1_1__15__type_assertion
FN:93,_RNvNvNtNtNtNtCs6vaqcEMrLsG_19openzeppelin_stylus5token6erc72110extensions11consecutives2_1__15__type_assertion
FN:118,_RNvXse_NtNtNtNtCs6vaqcEMrLsG_19openzeppelin_stylus5token6erc72110extensions11consecutiveNtB5_5ErrorINtNtCshuVUGNokh5j_4core7convert4FromNtB5_24ERC721ForbiddenBatchMintE4from
FN:118,_RNvXsg_NtNtNtNtCs6vaqcEMrLsG_19openzeppelin_stylus5token6erc72110extensions11consecutiveNtB5_5ErrorINtNtCshuVUGNokh5j_4core7convert4FromNtB5_19ERC721ForbiddenMintE4from
FN:118,_RNvXsh_NtNtNtNtCs6vaqcEMrLsG_19openzeppelin_stylus5token6erc72110extensions11consecutiveNtB5_5ErrorINtNtCshuVUGNokh5j_4core7convert4FromNtB5_24ERC721ForbiddenBatchBurnE4from
FN:118,_RNvXsi_NtNtNtNtCs6vaqcEMrLsG_19openzeppelin_stylus5token6erc72110extensions11consecutiveINtNtCsdDMkpvQxPWz_5alloc3vec3VechEINtNtCshuVUGNokh5j_4core7convert4FromNtB5_5ErrorE4from
FN:140,_RNvXININtNtNtNtCs6vaqcEMrLsG_19openzeppelin_stylus5token6erc72110extensions11consecutivesl_0pENtB5_17Erc721ConsecutiveINtNtCs8c3p7fi1c1U_10stylus_sdk3abi6RouterpE5routeBd_
FN:140,_RNvMsm_NtNtNtNtCs6vaqcEMrLsG_19openzeppelin_stylus5token6erc72110extensions11consecutiveNtB5_17Erc721Consecutive23___stylus_allow_override
FN:140,_RNvMsm_NtNtNtNtCs6vaqcEMrLsG_19openzeppelin_stylus5token6erc72110extensions11consecutiveNtB5_17Erc721Consecutive25___stylus_assert_overrides
FN:817,_RNvNtNtNtNtNtCs6vaqcEMrLsG_19openzeppelin_stylus5token6erc72110extensions11consecutive5tests4init
FN:835,_RNvNtNtNtNtNtCs6vaqcEMrLsG_19openzeppelin_stylus5token6erc72110extensions11consecutive5testss_5mints
FN:866,_RNvNtNtNtNtNtCs6vaqcEMrLsG_19openzeppelin_stylus5token6erc72110extensions11consecutive5testss_33error_when_minting_token_id_twice
FN:885,_RNvNtNtNtNtNtCs6vaqcEMrLsG_19openzeppelin_stylus5token6erc72110extensions11consecutive5testss_41error_when_minting_token_invalid_receiver
FN:903,_RNvNtNtNtNtNtCs6vaqcEMrLsG_19openzeppelin_stylus5token6erc72110extensions11consecutive5testss_21error_when_to_is_zero
FN:916,_RNvNtNtNtNtNtCs6vaqcEMrLsG_19openzeppelin_stylus5token6erc72110extensions11consecutive5testss_28error_when_exceed_batch_size
FN:933,_RNvNtNtNtNtNtCs6vaqcEMrLsG_19openzeppelin_stylus5token6erc72110extensions11consecutive5testss_14transfers_from
FN:984,_RNvNtNtNtNtNtCs6vaqcEMrLsG_19openzeppelin_stylus5token6erc72110extensions11consecutive5testss_5burns
FN:1054,_RNvNtNtNtNtNtCs6vaqcEMrLsG_19openzeppelin_stylus5token6erc72110extensions11consecutive5testss_18safe_transfer_from
FN:1071,_RNvNtNtNtNtNtCs6vaqcEMrLsG_19openzeppelin_stylus5token6erc72110extensions11consecutive5testss_34safe_transfers_from_approved_token
FN:1086,_RNvNtNtNtNtNtCs6vaqcEMrLsG_19openzeppelin_stylus5token6erc72110extensions11consecutive5testss_45error_when_safe_transfer_from_incorrect_owner
FN:1109,_RNvNtNtNtNtNtCs6vaqcEMrLsG_19openzeppelin_stylus5token6erc72110extensions11consecutive5testss_51error_when_internal_safe_transfer_nonexistent_token
FN:1127,_RNvNtNtNtNtNtCs6vaqcEMrLsG_19openzeppelin_stylus5token6erc72110extensions11consecutive5testss_44error_when_safe_transfer_to_invalid_receiver
FN:1154,_RNvNtNtNtNtNtCs6vaqcEMrLsG_19openzeppelin_stylus5token6erc72110extensions11consecutive5testss_29safe_transfers_from_with_data
FN:1176,_RNvNtNtNtNtNtCs6vaqcEMrLsG_19openzeppelin_stylus5token6erc72110extensions11consecutive5testss_53error_when_internal_safe_transfer_to_invalid_receiver
FN:1208,_RNvNtNtNtNtNtCs6vaqcEMrLsG_19openzeppelin_stylus5token6erc72110extensions11consecutive5testss_54error_when_internal_safe_transfer_from_incorrect_owner
FN:1230,_RNvNtNtNtNtNtCs6vaqcEMrLsG_19openzeppelin_stylus5token6erc72110extensions11consecutive5testss_10safe_mints
FN:1255,_RNvNtNtNtNtNtCs6vaqcEMrLsG_19openzeppelin_stylus5token6erc72110extensions11consecutive5testss_8approves
FN:1266,_RNvNtNtNtNtNtCs6vaqcEMrLsG_19openzeppelin_stylus5token6erc72110extensions11consecutive5testss_40error_when_approve_for_nonexistent_token
FN:1281,_RNvNtNtNtNtNtCs6vaqcEMrLsG_19openzeppelin_stylus5token6erc72110extensions11consecutive5testss_38error_when_approve_by_invalid_approver
FN:1298,_RNvNtNtNtNtNtCs6vaqcEMrLsG_19openzeppelin_stylus5token6erc72110extensions11consecutive5testss_16approval_for_all
FN:1319,_RNvNtNtNtNtNtCs6vaqcEMrLsG_19openzeppelin_stylus5token6erc72110extensions11consecutive5testss_44error_when_get_approved_of_nonexistent_token
FN:827,_RNCNvNtNtNtNtNtCs6vaqcEMrLsG_19openzeppelin_stylus5token6erc72110extensions11consecutive5tests4init0Bd_
FNDA:0,_RNvXsi_NtNtNtNtCsa86sUp9HUqm_19openzeppelin_stylus5token6erc72110extensions11consecutiveINtNtCsdDMkpvQxPWz_5alloc3vec3VechEINtNtCshuVUGNokh5j_4core7convert4FromNtB5_5ErrorE4from
FNDA:0,_RNvXs_NvNtNtNtNtCsa86sUp9HUqm_19openzeppelin_stylus5token6erc72110extensions11consecutive1__NtNtCs9yoxqfta9I2_16alloy_primitives3log7LogDataINtNtCshuVUGNokh5j_4core7convert4FromRNtB6_19ConsecutiveTransferE4fromBe_
FNDA:0,_RNCNvXs_NvNtNtNtNtCsa86sUp9HUqm_19openzeppelin_stylus5token6erc72110extensions11consecutive1__NtNtCs9yoxqfta9I2_16alloy_primitives3log7LogDataINtNtCshuVUGNokh5j_4core7convert4FromRNtB8_19ConsecutiveTransferE4from0Bg_
FNDA:0,_RNvXININtNtNtNtCsa86sUp9HUqm_19openzeppelin_stylus5token6erc72110extensions11consecutivesl_0pENtB5_17Erc721ConsecutiveINtNtCs8c3p7fi1c1U_10stylus_sdk3abi6RouterpE5routeBd_
FNDA:0,_RNvMs_NtNtNtNtCsa86sUp9HUqm_19openzeppelin_stylus5token6erc72110extensions11consecutiveNtB4_17Erc721Consecutive15__max_batch_size
FNDA:0,_RNvMs_NtNtNtNtCsa86sUp9HUqm_19openzeppelin_stylus5token6erc72110extensions11consecutiveNtB4_17Erc721Consecutive9__owner_of
FNDA:0,_RNvMs_NtNtNtNtCsa86sUp9HUqm_19openzeppelin_stylus5token6erc72110extensions11consecutiveNtB4_17Erc721Consecutive7__update
FNDA:0,_RNvMs_NtNtNtNtCsa86sUp9HUqm_19openzeppelin_stylus5token6erc72110extensions11consecutiveNtB4_17Erc721Consecutive20__next_consecutive_id
FNDA:0,_RNvMs_NtNtNtNtCsa86sUp9HUqm_19openzeppelin_stylus5token6erc72110extensions11consecutiveNtB4_17Erc721Consecutive21__first_consecutive_id
FNDA:0,_RNvMs0_NtNtNtNtCsa86sUp9HUqm_19openzeppelin_stylus5token6erc72110extensions11consecutiveNtB5_17Erc721Consecutive12__update_base
FNDA:0,_RNvMs0_NtNtNtNtCsa86sUp9HUqm_19openzeppelin_stylus5token6erc72110extensions11consecutiveNtB5_17Erc721Consecutive5__mint
FNDA:0,_RNvMs0_NtNtNtNtCsa86sUp9HUqm_19openzeppelin_stylus5token6erc72110extensions11consecutiveNtB5_17Erc721Consecutive10__safe_mint
FNDA:0,_RNvMs0_NtNtNtNtCsa86sUp9HUqm_19openzeppelin_stylus5token6erc72110extensions11consecutiveNtB5_17Erc721Consecutive5__burn
FNDA:0,_RNvMs0_NtNtNtNtCsa86sUp9HUqm_19openzeppelin_stylus5token6erc72110extensions11consecutiveNtB5_17Erc721Consecutive9__transfer
FNDA:0,_RNvMs0_NtNtNtNtCsa86sUp9HUqm_19openzeppelin_stylus5token6erc72110extensions11consecutiveNtB5_17Erc721Consecutive14__safe_transfer
FNDA:0,_RNvMs0_NtNtNtNtCsa86sUp9HUqm_19openzeppelin_stylus5token6erc72110extensions11consecutiveNtB5_17Erc721Consecutive8__approve
FNDA:0,_RNvMs0_NtNtNtNtCsa86sUp9HUqm_19openzeppelin_stylus5token6erc72110extensions11consecutiveNtB5_17Erc721Consecutive14__require_owned
FNDA:0,_RNvMs1_NtNtNtNtCsa86sUp9HUqm_19openzeppelin_stylus5token6erc72110extensions11consecutiveNtB5_17Erc721Consecutive14required_slots
FNDA:0,_RNvXs2_NtNtNtNtCsa86sUp9HUqm_19openzeppelin_stylus5token6erc72110extensions11consecutiveNtB5_17Erc721ConsecutiveNtNtNtCs8c3p7fi1c1U_10stylus_sdk7storage6traits11StorageType3new
FNDA:0,_RNvXs2_NtNtNtNtCsa86sUp9HUqm_19openzeppelin_stylus5token6erc72110extensions11consecutiveNtB5_17Erc721ConsecutiveNtNtNtCs8c3p7fi1c1U_10stylus_sdk7storage6traits11StorageType4load
FNDA:0,_RNvXs2_NtNtNtNtCsa86sUp9HUqm_19openzeppelin_stylus5token6erc72110extensions11consecutiveNtB5_17Erc721ConsecutiveNtNtNtCs8c3p7fi1c1U_10stylus_sdk7storage6traits11StorageType8load_mut
FNDA:0,_RNvXsc_NtNtNtNtCsa86sUp9HUqm_19openzeppelin_stylus5token6erc72110extensions11consecutiveNtB5_5ErrorINtNtCshuVUGNokh5j_4core7convert4FromNtB9_5ErrorE4from
FNDA:0,_RNvXsd_NtNtNtNtCsa86sUp9HUqm_19openzeppelin_stylus5token6erc72110extensions11consecutiveNtB5_5ErrorINtNtCshuVUGNokh5j_4core7convert4FromNtNtNtNtBd_5utils7structs11checkpoints5ErrorE4from
FNDA:0,_RNvXse_NtNtNtNtCsa86sUp9HUqm_19openzeppelin_stylus5token6erc72110extensions11consecutiveNtB5_5ErrorINtNtCshuVUGNokh5j_4core7convert4FromNtB5_24ERC721ForbiddenBatchMintE4from
FNDA:0,_RNvXsf_NtNtNtNtCsa86sUp9HUqm_19openzeppelin_stylus5token6erc72110extensions11consecutiveNtB5_5ErrorINtNtCshuVUGNokh5j_4core7convert4FromNtB5_26ERC721ExceededMaxBatchMintE4from
FNDA:0,_RNvXsg_NtNtNtNtCsa86sUp9HUqm_19openzeppelin_stylus5token6erc72110extensions11consecutiveNtB5_5ErrorINtNtCshuVUGNokh5j_4core7convert4FromNtB5_19ERC721ForbiddenMintE4from
FNDA:0,_RNvXsh_NtNtNtNtCsa86sUp9HUqm_19openzeppelin_stylus5token6erc72110extensions11consecutiveNtB5_5ErrorINtNtCshuVUGNokh5j_4core7convert4FromNtB5_24ERC721ForbiddenBatchBurnE4from
FNDA:0,_RNvXsk_NtNtNtNtCsa86sUp9HUqm_19openzeppelin_stylus5token6erc72110extensions11consecutiveNtB5_17Erc721ConsecutiveNtB9_7IErc72110balance_of
FNDA:0,_RNvXsk_NtNtNtNtCsa86sUp9HUqm_19openzeppelin_stylus5token6erc72110extensions11consecutiveNtB5_17Erc721ConsecutiveNtB9_7IErc7218owner_of
FNDA:0,_RNvXsk_NtNtNtNtCsa86sUp9HUqm_19openzeppelin_stylus5token6erc72110extensions11consecutiveNtB5_17Erc721ConsecutiveNtB9_7IErc72118safe_transfer_from
FNDA:0,_RNvXsk_NtNtNtNtCsa86sUp9HUqm_19openzeppelin_stylus5token6erc72110extensions11consecutiveNtB5_17Erc721ConsecutiveNtB9_7IErc72128safe_transfer_from_with_data
FNDA:0,_RNvXsk_NtNtNtNtCsa86sUp9HUqm_19openzeppelin_stylus5token6erc72110extensions11consecutiveNtB5_17Erc721ConsecutiveNtB9_7IErc72113transfer_from
FNDA:0,_RNvXsk_NtNtNtNtCsa86sUp9HUqm_19openzeppelin_stylus5token6erc72110extensions11consecutiveNtB5_17Erc721ConsecutiveNtB9_7IErc7217approve
FNDA:0,_RNvXsk_NtNtNtNtCsa86sUp9HUqm_19openzeppelin_stylus5token6erc72110extensions11consecutiveNtB5_17Erc721ConsecutiveNtB9_7IErc72120set_approval_for_all
FNDA:0,_RNvXsk_NtNtNtNtCsa86sUp9HUqm_19openzeppelin_stylus5token6erc72110extensions11consecutiveNtB5_17Erc721ConsecutiveNtB9_7IErc72112get_approved
FNDA:0,_RNvXsk_NtNtNtNtCsa86sUp9HUqm_19openzeppelin_stylus5token6erc72110extensions11consecutiveNtB5_17Erc721ConsecutiveNtB9_7IErc72119is_approved_for_all
FNDA:0,_RNvMsm_NtNtNtNtCsa86sUp9HUqm_19openzeppelin_stylus5token6erc72110extensions11consecutiveNtB5_17Erc721Consecutive23___stylus_allow_override
FNDA:0,_RNvMsm_NtNtNtNtCsa86sUp9HUqm_19openzeppelin_stylus5token6erc72110extensions11consecutiveNtB5_17Erc721Consecutive25___stylus_assert_overrides
FNDA:0,_RNvXsl_NtNtNtNtCsa86sUp9HUqm_19openzeppelin_stylus5token6erc72110extensions11consecutiveNtB5_17Erc721ConsecutiveINtNtCs8c3p7fi1c1U_10stylus_sdk3abi6RouterNtCs1oMBVfyDda4_26erc721_consecutive_example24Erc721ConsecutiveExampleE5routeB2u_
FNDA:0,_RNvXsl_NtNtNtNtCsa86sUp9HUqm_19openzeppelin_stylus5token6erc72110extensions11consecutiveNtB5_17Erc721ConsecutiveINtNtCs8c3p7fi1c1U_10stylus_sdk3abi6RouterNtCsa9iJjvRPaPD_26erc721_consecutive_example24Erc721ConsecutiveExampleE5routeB2u_
FNDA:41,_RNvMs_NtNtNtNtCs6vaqcEMrLsG_19openzeppelin_stylus5token6erc72110extensions11consecutiveNtB4_17Erc721Consecutive9__owner_of
FNDA:6,_RNvMs_NtNtNtNtCs6vaqcEMrLsG_19openzeppelin_stylus5token6erc72110extensions11consecutiveNtB4_17Erc721Consecutive17__mint_consecutive
FNDA:26,_RNvMs_NtNtNtNtCs6vaqcEMrLsG_19openzeppelin_stylus5token6erc72110extensions11consecutiveNtB4_17Erc721Consecutive7__update
FNDA:9,_RNvMs_NtNtNtNtCs6vaqcEMrLsG_19openzeppelin_stylus5token6erc72110extensions11consecutiveNtB4_17Erc721Consecutive20__next_consecutive_id
FNDA:27,_RNvMs_NtNtNtNtCs6vaqcEMrLsG_19openzeppelin_stylus5token6erc72110extensions11consecutiveNtB4_17Erc721Consecutive21__first_consecutive_id
FNDA:8,_RNvMs_NtNtNtNtCs6vaqcEMrLsG_19openzeppelin_stylus5token6erc72110extensions11consecutiveNtB4_17Erc721Consecutive15__max_batch_size
FNDA:26,_RNvMs0_NtNtNtNtCs6vaqcEMrLsG_19openzeppelin_stylus5token6erc72110extensions11consecutiveNtB5_17Erc721Consecutive12__update_base
FNDA:16,_RNvMs0_NtNtNtNtCs6vaqcEMrLsG_19openzeppelin_stylus5token6erc72110extensions11consecutiveNtB5_17Erc721Consecutive5__mint
FNDA:1,_RNvMs0_NtNtNtNtCs6vaqcEMrLsG_19openzeppelin_stylus5token6erc72110extensions11consecutiveNtB5_17Erc721Consecutive10__safe_mint
FNDA:3,_RNvMs0_NtNtNtNtCs6vaqcEMrLsG_19openzeppelin_stylus5token6erc72110extensions11consecutiveNtB5_17Erc721Consecutive5__burn
FNDA:3,_RNvMs0_NtNtNtNtCs6vaqcEMrLsG_19openzeppelin_stylus5token6erc72110extensions11consecutiveNtB5_17Erc721Consecutive9__transfer
FNDA:3,_RNvMs0_NtNtNtNtCs6vaqcEMrLsG_19openzeppelin_stylus5token6erc72110extensions11consecutiveNtB5_17Erc721Consecutive14__safe_transfer
FNDA:13,_RNvMs0_NtNtNtNtCs6vaqcEMrLsG_19openzeppelin_stylus5token6erc72110extensions11consecutiveNtB5_17Erc721Consecutive8__approve
FNDA:15,_RNvMs0_NtNtNtNtCs6vaqcEMrLsG_19openzeppelin_stylus5token6erc72110extensions11consecutiveNtB5_17Erc721Consecutive14__require_owned
FNDA:21,_RNvXs2_NtNtNtNtCs6vaqcEMrLsG_19openzeppelin_stylus5token6erc72110extensions11consecutiveNtB5_17Erc721ConsecutiveNtNtNtCs8c3p7fi1c1U_10stylus_sdk7storage6traits11StorageType3new
FNDA:14,_RNvXsc_NtNtNtNtCs6vaqcEMrLsG_19openzeppelin_stylus5token6erc72110extensions11consecutiveNtB5_5ErrorINtNtCshuVUGNokh5j_4core7convert4FromNtB9_5ErrorE4from
FNDA:0,_RNvXsd_NtNtNtNtCs6vaqcEMrLsG_19openzeppelin_stylus5token6erc72110extensions11consecutiveNtB5_5ErrorINtNtCshuVUGNokh5j_4core7convert4FromNtNtNtNtBd_5utils7structs11checkpoints5ErrorE4from
FNDA:1,_RNvXsf_NtNtNtNtCs6vaqcEMrLsG_19openzeppelin_stylus5token6erc72110extensions11consecutiveNtB5_5ErrorINtNtCshuVUGNokh5j_4core7convert4FromNtB5_26ERC721ExceededMaxBatchMintE4from
FNDA:11,_RNvXsk_NtNtNtNtCs6vaqcEMrLsG_19openzeppelin_stylus5token6erc72110extensions11consecutiveNtB5_17Erc721ConsecutiveNtB9_7IErc72110balance_of
FNDA:11,_RNvXsk_NtNtNtNtCs6vaqcEMrLsG_19openzeppelin_stylus5token6erc72110extensions11consecutiveNtB5_17Erc721ConsecutiveNtB9_7IErc7218owner_of
FNDA:4,_RNvXsk_NtNtNtNtCs6vaqcEMrLsG_19openzeppelin_stylus5token6erc72110extensions11consecutiveNtB5_17Erc721ConsecutiveNtB9_7IErc72118safe_transfer_from
FNDA:5,_RNvXsk_NtNtNtNtCs6vaqcEMrLsG_19openzeppelin_stylus5token6erc72110extensions11consecutiveNtB5_17Erc721ConsecutiveNtB9_7IErc72128safe_transfer_from_with_data
FNDA:7,_RNvXsk_NtNtNtNtCs6vaqcEMrLsG_19openzeppelin_stylus5token6erc72110extensions11consecutiveNtB5_17Erc721ConsecutiveNtB9_7IErc72113transfer_from
FNDA:3,_RNvXsk_NtNtNtNtCs6vaqcEMrLsG_19openzeppelin_stylus5token6erc72110extensions11consecutiveNtB5_17Erc721ConsecutiveNtB9_7IErc7217approve
FNDA:2,_RNvXsk_NtNtNtNtCs6vaqcEMrLsG_19openzeppelin_stylus5token6erc72110extensions11consecutiveNtB5_17Erc721ConsecutiveNtB9_7IErc72120set_approval_for_all
FNDA:1,_RNvXsk_NtNtNtNtCs6vaqcEMrLsG_19openzeppelin_stylus5token6erc72110extensions11consecutiveNtB5_17Erc721ConsecutiveNtB9_7IErc72112get_approved
FNDA:3,_RNvXsk_NtNtNtNtCs6vaqcEMrLsG_19openzeppelin_stylus5token6erc72110extensions11consecutiveNtB5_17Erc721ConsecutiveNtB9_7IErc72119is_approved_for_all
FNDA:0,_RNvMs1_NtNtNtNtCs6vaqcEMrLsG_19openzeppelin_stylus5token6erc72110extensions11consecutiveNtB5_17Erc721Consecutive14required_slots
FNDA:0,_RNvXs2_NtNtNtNtCs6vaqcEMrLsG_19openzeppelin_stylus5token6erc72110extensions11consecutiveNtB5_17Erc721ConsecutiveNtNtNtCs8c3p7fi1c1U_10stylus_sdk7storage6traits11StorageType4load
FNDA:0,_RNvXs2_NtNtNtNtCs6vaqcEMrLsG_19openzeppelin_stylus5token6erc72110extensions11consecutiveNtB5_17Erc721ConsecutiveNtNtNtCs8c3p7fi1c1U_10stylus_sdk7storage6traits11StorageType8load_mut
FNDA:0,_RNvXs_NvNtNtNtNtCs6vaqcEMrLsG_19openzeppelin_stylus5token6erc72110extensions11consecutive1__NtNtCs9yoxqfta9I2_16alloy_primitives3log7LogDataINtNtCshuVUGNokh5j_4core7convert4FromRNtB6_19ConsecutiveTransferE4fromBe_
FNDA:0,_RNCNvXs_NvNtNtNtNtCs6vaqcEMrLsG_19openzeppelin_stylus5token6erc72110extensions11consecutive1__NtNtCs9yoxqfta9I2_16alloy_primitives3log7LogDataINtNtCshuVUGNokh5j_4core7convert4FromRNtB8_19ConsecutiveTransferE4from0Bg_
FNDA:0,_RNvNvNtNtNtNtCs6vaqcEMrLsG_19openzeppelin_stylus5token6erc72110extensions11consecutives_1__15__type_assertion
FNDA:0,_RNvNvNtNtNtNtCs6vaqcEMrLsG_19openzeppelin_stylus5token6erc72110extensions11consecutives0_1__15__type_assertion
FNDA:0,_RNvNvNtNtNtNtCs6vaqcEMrLsG_19openzeppelin_stylus5token6erc72110extensions11consecutives1_1__15__type_assertion
FNDA:0,_RNvNvNtNtNtNtCs6vaqcEMrLsG_19openzeppelin_stylus5token6erc72110extensions11consecutives2_1__15__type_assertion
FNDA:0,_RNvXse_NtNtNtNtCs6vaqcEMrLsG_19openzeppelin_stylus5token6erc72110extensions11consecutiveNtB5_5ErrorINtNtCshuVUGNokh5j_4core7convert4FromNtB5_24ERC721ForbiddenBatchMintE4from
FNDA:0,_RNvXsg_NtNtNtNtCs6vaqcEMrLsG_19openzeppelin_stylus5token6erc72110extensions11consecutiveNtB5_5ErrorINtNtCshuVUGNokh5j_4core7convert4FromNtB5_19ERC721ForbiddenMintE4from
FNDA:0,_RNvXsh_NtNtNtNtCs6vaqcEMrLsG_19openzeppelin_stylus5token6erc72110extensions11consecutiveNtB5_5ErrorINtNtCshuVUGNokh5j_4core7convert4FromNtB5_24ERC721ForbiddenBatchBurnE4from
FNDA:0,_RNvXsi_NtNtNtNtCs6vaqcEMrLsG_19openzeppelin_stylus5token6erc72110extensions11consecutiveINtNtCsdDMkpvQxPWz_5alloc3vec3VechEINtNtCshuVUGNokh5j_4core7convert4FromNtB5_5ErrorE4from
FNDA:0,_RNvXININtNtNtNtCs6vaqcEMrLsG_19openzeppelin_stylus5token6erc72110extensions11consecutivesl_0pENtB5_17Erc721ConsecutiveINtNtCs8c3p7fi1c1U_10stylus_sdk3abi6RouterpE5routeBd_
FNDA:0,_RNvMsm_NtNtNtNtCs6vaqcEMrLsG_19openzeppelin_stylus5token6erc72110extensions11consecutiveNtB5_17Erc721Consecutive23___stylus_allow_override
FNDA:0,_RNvMsm_NtNtNtNtCs6vaqcEMrLsG_19openzeppelin_stylus5token6erc72110extensions11consecutiveNtB5_17Erc721Consecutive25___stylus_assert_overrides
FNDA:3,_RNvNtNtNtNtNtCs6vaqcEMrLsG_19openzeppelin_stylus5token6erc72110extensions11consecutive5tests4init
FNDA:1,_RNvNtNtNtNtNtCs6vaqcEMrLsG_19openzeppelin_stylus5token6erc72110extensions11consecutive5testss_5mints
FNDA:1,_RNvNtNtNtNtNtCs6vaqcEMrLsG_19openzeppelin_stylus5token6erc72110extensions11consecutive5testss_33error_when_minting_token_id_twice
FNDA:1,_RNvNtNtNtNtNtCs6vaqcEMrLsG_19openzeppelin_stylus5token6erc72110extensions11consecutive5testss_41error_when_minting_token_invalid_receiver
FNDA:1,_RNvNtNtNtNtNtCs6vaqcEMrLsG_19openzeppelin_stylus5token6erc72110extensions11consecutive5testss_21error_when_to_is_zero
FNDA:1,_RNvNtNtNtNtNtCs6vaqcEMrLsG_19openzeppelin_stylus5token6erc72110extensions11consecutive5testss_28error_when_exceed_batch_size
FNDA:1,_RNvNtNtNtNtNtCs6vaqcEMrLsG_19openzeppelin_stylus5token6erc72110extensions11consecutive5testss_14transfers_from
FNDA:1,_RNvNtNtNtNtNtCs6vaqcEMrLsG_19openzeppelin_stylus5token6erc72110extensions11consecutive5testss_5burns
FNDA:1,_RNvNtNtNtNtNtCs6vaqcEMrLsG_19openzeppelin_stylus5token6erc72110extensions11consecutive5testss_18safe_transfer_from
FNDA:1,_RNvNtNtNtNtNtCs6vaqcEMrLsG_19openzeppelin_stylus5token6erc72110extensions11consecutive5testss_34safe_transfers_from_approved_token
FNDA:1,_RNvNtNtNtNtNtCs6vaqcEMrLsG_19openzeppelin_stylus5token6erc72110extensions11consecutive5testss_45error_when_safe_transfer_from_incorrect_owner
FNDA:1,_RNvNtNtNtNtNtCs6vaqcEMrLsG_19openzeppelin_stylus5token6erc72110extensions11consecutive5testss_51error_when_internal_safe_transfer_nonexistent_token
FNDA:1,_RNvNtNtNtNtNtCs6vaqcEMrLsG_19openzeppelin_stylus5token6erc72110extensions11consecutive5testss_44error_when_safe_transfer_to_invalid_receiver
FNDA:1,_RNvNtNtNtNtNtCs6vaqcEMrLsG_19openzeppelin_stylus5token6erc72110extensions11consecutive5testss_29safe_transfers_from_with_data
FNDA:1,_RNvNtNtNtNtNtCs6vaqcEMrLsG_19openzeppelin_stylus5token6erc72110extensions11consecutive5testss_53error_when_internal_safe_transfer_to_invalid_receiver
FNDA:1,_RNvNtNtNtNtNtCs6vaqcEMrLsG_19openzeppelin_stylus5token6erc72110extensions11consecutive5testss_54error_when_internal_safe_transfer_from_incorrect_owner
FNDA:1,_RNvNtNtNtNtNtCs6vaqcEMrLsG_19openzeppelin_stylus5token6erc72110extensions11consecutive5testss_10safe_mints
FNDA:1,_RNvNtNtNtNtNtCs6vaqcEMrLsG_19openzeppelin_stylus5token6erc72110extensions11consecutive5testss_8approves
FNDA:1,_RNvNtNtNtNtNtCs6vaqcEMrLsG_19openzeppelin_stylus5token6erc72110extensions11consecutive5testss_40error_when_approve_for_nonexistent_token
FNDA:1,_RNvNtNtNtNtNtCs6vaqcEMrLsG_19openzeppelin_stylus5token6erc72110extensions11consecutive5testss_38error_when_approve_by_invalid_approver
FNDA:1,_RNvNtNtNtNtNtCs6vaqcEMrLsG_19openzeppelin_stylus5token6erc72110extensions11consecutive5testss_16approval_for_all
FNDA:1,_RNvNtNtNtNtNtCs6vaqcEMrLsG_19openzeppelin_stylus5token6erc72110extensions11consecutive5testss_44error_when_get_approved_of_nonexistent_token
FNDA:4,_RNCNvNtNtNtNtNtCs6vaqcEMrLsG_19openzeppelin_stylus5token6erc72110extensions11consecutive5tests4init0Bd_
FNF:53
FNH:48
DA:57,0
DA:58,0
DA:59,0
DA:60,0
DA:61,0
DA:62,0
DA:63,0
DA:64,0
DA:65,0
DA:66,0
DA:67,0
DA:68,0
DA:69,0
DA:70,0
DA:71,0
DA:72,0
DA:73,0
DA:74,0
DA:75,21
DA:77,0
DA:78,0
DA:79,0
DA:80,0
DA:81,0
DA:82,0
DA:83,0
DA:84,0
DA:85,0
DA:86,0
DA:87,0
DA:88,0
DA:89,0
DA:90,0
DA:91,0
DA:93,0
DA:94,0
DA:95,0
DA:96,0
DA:97,0
DA:98,0
DA:99,0
DA:100,0
DA:101,0
DA:102,0
DA:103,0
DA:104,0
DA:105,0
DA:106,0
DA:107,0
DA:108,0
DA:109,0
DA:110,0
DA:111,0
DA:112,0
DA:113,0
DA:114,0
DA:115,0
DA:118,0
DA:140,0
DA:144,11
DA:145,11
DA:146,11
DA:148,11
DA:149,11
DA:150,11
DA:152,4
DA:153,4
DA:154,4
DA:155,4
DA:156,4
DA:157,4
DA:158,4
DA:159,4
DA:160,4
DA:161,4
DA:164,5
DA:165,5
DA:166,5
DA:167,5
DA:168,5
DA:169,5
DA:170,5
DA:171,5
DA:172,3
DA:173,3
DA:174,3
DA:175,3
DA:176,3
DA:177,3
DA:178,3
DA:179,5
DA:181,7
DA:182,7
DA:183,7
DA:184,7
DA:185,7
DA:186,7
DA:187,7
DA:188,1
DA:189,1
DA:190,1
DA:191,1
DA:192,6
DA:197,6
DA:198,6
DA:199,1
DA:200,1
DA:201,1
DA:202,1
DA:203,1
DA:204,1
DA:205,5
DA:206,5
DA:207,7
DA:209,3
DA:210,3
DA:211,3
DA:213,2
DA:214,2
DA:215,2
DA:216,2
DA:217,2
DA:218,2
DA:219,2
DA:221,1
DA:222,1
DA:223,0
DA:224,1
DA:226,3
DA:227,3
DA:228,3
DA:242,41
DA:243,41
DA:244,41
DA:245,41
DA:246,41
DA:247,22
DA:248,22
DA:250,19
DA:251,22
DA:252,22
DA:253,22
DA:254,22
DA:255,22
DA:256,1
DA:259,21
DA:261,41
DA:299,6
DA:300,6
DA:301,6
DA:302,6
DA:303,6
DA:304,6
DA:305,6
DA:306,6
DA:307,6
DA:308,6
DA:309,1
DA:310,1
DA:311,1
DA:312,1
DA:313,5
DA:314,5
DA:315,5
DA:316,1
DA:317,1
DA:318,1
DA:319,1
DA:320,1
DA:321,4
DA:322,4
DA:323,4
DA:324,4
DA:325,4
DA:330,4
DA:331,4
DA:332,4
DA:333,4
DA:334,4
DA:335,4
DA:336,4
DA:337,4
DA:338,4
DA:339,4
DA:340,4
DA:341,0
DA:342,4
DA:343,6
DA:366,26
DA:367,26
DA:368,26
DA:369,26
DA:370,26
DA:371,26
DA:372,26
DA:375,26
DA:377,3
DA:379,1
DA:380,1
DA:381,1
DA:382,1
DA:383,25
DA:385,26
DA:386,26
DA:395,9
DA:396,9
DA:397,5
DA:398,4
DA:400,9
DA:404,27
DA:405,27
DA:406,27
DA:412,8
DA:413,8
DA:414,8
DA:430,26
DA:431,26
DA:432,26
DA:433,26
DA:434,26
DA:435,26
DA:436,26
DA:437,26
DA:438,26
DA:439,26
DA:440,6
DA:441,20
DA:444,26
DA:447,10
DA:448,10
DA:449,10
DA:450,10
DA:451,10
DA:452,16
DA:454,26
DA:455,23
DA:456,23
DA:457,23
DA:458,23
DA:459,23
DA:461,26
DA:462,26
DA:463,26
DA:464,26
DA:492,16
DA:493,16
DA:494,1
DA:495,1
DA:496,1
DA:497,1
DA:498,15
DA:500,15
DA:501,15
DA:502,1
DA:503,1
DA:504,1
DA:505,1
DA:506,14
DA:507,14
DA:508,16
DA:544,1
DA:545,1
DA:546,1
DA:547,1
DA:548,1
DA:549,1
DA:550,1
DA:551,1
DA:552,1
DA:553,1
DA:554,1
DA:555,1
DA:556,1
DA:557,1
DA:558,1
DA:583,3
DA:584,3
DA:585,3
DA:586,3
DA:587,1
DA:588,1
DA:589,1
DA:590,1
DA:591,2
DA:592,2
DA:593,3
DA:624,3
DA:625,3
DA:626,3
DA:627,3
DA:628,3
DA:629,3
DA:630,3
DA:631,1
DA:632,1
DA:633,1
DA:634,1
DA:635,2
DA:637,2
DA:638,2
DA:639,1
DA:640,1
DA:641,1
DA:642,1
DA:643,1
DA:644,1
DA:645,1
DA:646,1
DA:647,1
DA:648,1
DA:649,1
DA:650,0
DA:651,0
DA:652,0
DA:653,3
DA:696,3
DA:697,3
DA:698,3
DA:699,3
DA:700,3
DA:701,3
DA:702,3
DA:703,3
DA:704,0
DA:705,0
DA:706,0
DA:707,0
DA:708,0
DA:709,0
DA:710,0
DA:711,3
DA:738,13
DA:739,13
DA:740,13
DA:741,13
DA:742,13
DA:743,13
DA:744,13
DA:745,13
DA:746,13
DA:747,3
DA:751,2
DA:752,2
DA:753,1
DA:755,1
DA:756,1
DA:757,1
DA:758,1
DA:759,1
DA:760,1
DA:761,1
DA:762,1
DA:763,1
DA:764,10
DA:766,11
DA:767,11
DA:768,13
DA:785,15
DA:786,15
DA:787,15
DA:788,4
DA:789,4
DA:790,4
DA:791,4
DA:792,11
DA:793,11
DA:794,15
DA:817,3
DA:818,3
DA:819,3
DA:820,3
DA:821,3
DA:822,3
DA:823,3
DA:824,3
DA:825,3
DA:826,3
DA:827,4
DA:828,4
DA:829,4
DA:830,4
DA:831,4
DA:832,3
DA:833,3
DA:835,1
DA:866,1
DA:885,1
DA:903,1
DA:916,1
DA:933,1
DA:984,1
DA:1054,1
DA:1071,1
DA:1086,1
DA:1109,1
DA:1127,1
DA:1154,1
DA:1176,1
DA:1208,1
DA:1230,1
DA:1255,1
DA:1266,1
DA:1281,1
DA:1298,1
DA:1319,1
BRF:0
BRH:0
LF:409
LH:338
end_of_record
SF:/home/nenad/repos/rust-contracts-stylus/contracts/src/token/erc721/extensions/enumerable.rs
FN:39,_RNvXs6_NtNtNtNtCsa86sUp9HUqm_19openzeppelin_stylus5token6erc72110extensions10enumerableINtNtCsdDMkpvQxPWz_5alloc3vec3VechEINtNtCshuVUGNokh5j_4core7convert4FromNtB5_5ErrorE4from
FN:150,_RNvXNtNtNtNtCsa86sUp9HUqm_19openzeppelin_stylus5token6erc72110extensions10enumerableNtB2_16Erc721EnumerableNtNtNtNtBa_5utils13introspection6erc1657IErc16518supports_interface
FN:192,_RNvMs_NtNtNtNtCsa86sUp9HUqm_19openzeppelin_stylus5token6erc72110extensions10enumerableNtB4_16Erc721Enumerable36__add_token_to_all_tokens_enumeration
FN:269,_RNvMs_NtNtNtNtCsa86sUp9HUqm_19openzeppelin_stylus5token6erc72110extensions10enumerableNtB4_16Erc721Enumerable41__remove_token_from_all_tokens_enumeration
FN:318,_RNvMs_NtNtNtNtCsa86sUp9HUqm_19openzeppelin_stylus5token6erc72110extensions10enumerableNtB4_16Erc721Enumerable23__check_increase_balance
FN:39,_RNvXs4_NtNtNtNtCsa86sUp9HUqm_19openzeppelin_stylus5token6erc72110extensions10enumerableNtB5_5ErrorINtNtCshuVUGNokh5j_4core7convert4FromNtB5_22ERC721OutOfBoundsIndexE4from
FN:39,_RNvXs5_NtNtNtNtCsa86sUp9HUqm_19openzeppelin_stylus5token6erc72110extensions10enumerableNtB5_5ErrorINtNtCshuVUGNokh5j_4core7convert4FromNtB5_34ERC721EnumerableForbiddenBatchMintE4from
FN:65,_RNvMs8_NtNtNtNtCsa86sUp9HUqm_19openzeppelin_stylus5token6erc72110extensions10enumerableNtB5_16Erc721Enumerable14required_slots
FN:65,_RNvXs9_NtNtNtNtCsa86sUp9HUqm_19openzeppelin_stylus5token6erc72110extensions10enumerableNtB5_16Erc721EnumerableNtNtNtCs8c3p7fi1c1U_10stylus_sdk7storage6traits11StorageType3new
FN:52,_RNvXs9_NtNtNtNtCsa86sUp9HUqm_19openzeppelin_stylus5token6erc72110extensions10enumerableNtB5_16Erc721EnumerableNtNtNtCs8c3p7fi1c1U_10stylus_sdk7storage6traits11StorageType4load
FN:52,_RNvXs9_NtNtNtNtCsa86sUp9HUqm_19openzeppelin_stylus5token6erc72110extensions10enumerableNtB5_16Erc721EnumerableNtNtNtCs8c3p7fi1c1U_10stylus_sdk7storage6traits11StorageType8load_mut
FN:123,_RNvXsa_NtNtNtNtCsa86sUp9HUqm_19openzeppelin_stylus5token6erc72110extensions10enumerableNtB5_16Erc721EnumerableNtB5_17IErc721Enumerable23token_of_owner_by_index
FN:137,_RNvXsa_NtNtNtNtCsa86sUp9HUqm_19openzeppelin_stylus5token6erc72110extensions10enumerableNtB5_16Erc721EnumerableNtB5_17IErc721Enumerable12total_supply
FN:142,_RNvXsa_NtNtNtNtCsa86sUp9HUqm_19openzeppelin_stylus5token6erc72110extensions10enumerableNtB5_16Erc721EnumerableNtB5_17IErc721Enumerable14token_by_index
FN:119,_RNvMsc_NtNtNtNtCsa86sUp9HUqm_19openzeppelin_stylus5token6erc72110extensions10enumerableNtB5_16Erc721Enumerable23___stylus_allow_override
FN:119,_RNvMsc_NtNtNtNtCsa86sUp9HUqm_19openzeppelin_stylus5token6erc72110extensions10enumerableNtB5_16Erc721Enumerable25___stylus_assert_overrides
FN:119,_RNvXININtNtNtNtCsa86sUp9HUqm_19openzeppelin_stylus5token6erc72110extensions10enumerablesb_0pENtB5_16Erc721EnumerableINtNtCs8c3p7fi1c1U_10stylus_sdk3abi6RouterpE5routeBd_
FN:172,_RINvMs_NtNtNtNtCsa86sUp9HUqm_19openzeppelin_stylus5token6erc72110extensions10enumerableNtB5_16Erc721Enumerable31__add_token_to_owner_enumerationpEBd_
FN:223,_RINvMs_NtNtNtNtCsa86sUp9HUqm_19openzeppelin_stylus5token6erc72110extensions10enumerableNtB5_16Erc721Enumerable36__remove_token_from_owner_enumerationpEBd_
FN:172,_RINvMs_NtNtNtNtCsa86sUp9HUqm_19openzeppelin_stylus5token6erc72110extensions10enumerableNtB5_16Erc721Enumerable31__add_token_to_owner_enumerationNtB9_6Erc721ECsbY8cRU9egOl_14erc721_example
FN:223,_RINvMs_NtNtNtNtCsa86sUp9HUqm_19openzeppelin_stylus5token6erc72110extensions10enumerableNtB5_16Erc721Enumerable36__remove_token_from_owner_enumerationNtB9_6Erc721ECsbY8cRU9egOl_14erc721_example
FN:119,_RNvXsb_NtNtNtNtCsa86sUp9HUqm_19openzeppelin_stylus5token6erc72110extensions10enumerableNtB5_16Erc721EnumerableINtNtCs8c3p7fi1c1U_10stylus_sdk3abi6RouterNtCsbY8cRU9egOl_14erc721_example13Erc721ExampleE5routeB2s_
FN:119,_RNvXsb_NtNtNtNtCsa86sUp9HUqm_19openzeppelin_stylus5token6erc72110extensions10enumerableNtB5_16Erc721EnumerableINtNtCs8c3p7fi1c1U_10stylus_sdk3abi6RouterNtCslXfu2eZ1Tt1_14erc721_example13Erc721ExampleE5routeB2s_
FN:172,_RINvMs_NtNtNtNtCsa86sUp9HUqm_19openzeppelin_stylus5token6erc72110extensions10enumerableNtB5_16Erc721Enumerable31__add_token_to_owner_enumerationNtB9_6Erc721ECslXfu2eZ1Tt1_14erc721_example
FN:223,_RINvMs_NtNtNtNtCsa86sUp9HUqm_19openzeppelin_stylus5token6erc72110extensions10enumerableNtB5_16Erc721Enumerable36__remove_token_from_owner_enumerationNtB9_6Erc721ECslXfu2eZ1Tt1_14erc721_example
FN:22,_RNvNvNtNtNtNtCs6vaqcEMrLsG_19openzeppelin_stylus5token6erc72110extensions10enumerable1__15__type_assertion
FN:22,_RNvNvNtNtNtNtCs6vaqcEMrLsG_19openzeppelin_stylus5token6erc72110extensions10enumerables_1__15__type_assertion
FN:39,_RNvXs6_NtNtNtNtCs6vaqcEMrLsG_19openzeppelin_stylus5token6erc72110extensions10enumerableINtNtCsdDMkpvQxPWz_5alloc3vec3VechEINtNtCshuVUGNokh5j_4core7convert4FromNtB5_5ErrorE4from
FN:65,_RNvMs8_NtNtNtNtCs6vaqcEMrLsG_19openzeppelin_stylus5token6erc72110extensions10enumerableNtB5_16Erc721Enumerable14required_slots
FN:52,_RNvXs9_NtNtNtNtCs6vaqcEMrLsG_19openzeppelin_stylus5token6erc72110extensions10enumerableNtB5_16Erc721EnumerableNtNtNtCs8c3p7fi1c1U_10stylus_sdk7storage6traits11StorageType4load
FN:52,_RNvXs9_NtNtNtNtCs6vaqcEMrLsG_19openzeppelin_stylus5token6erc72110extensions10enumerableNtB5_16Erc721EnumerableNtNtNtCs8c3p7fi1c1U_10stylus_sdk7storage6traits11StorageType8load_mut
FN:119,_RNvXININtNtNtNtCs6vaqcEMrLsG_19openzeppelin_stylus5token6erc72110extensions10enumerablesb_0pENtB5_16Erc721EnumerableINtNtCs8c3p7fi1c1U_10stylus_sdk3abi6RouterpE5routeBd_
FN:119,_RNvMsc_NtNtNtNtCs6vaqcEMrLsG_19openzeppelin_stylus5token6erc72110extensions10enumerableNtB5_16Erc721Enumerable23___stylus_allow_override
FN:119,_RNvMsc_NtNtNtNtCs6vaqcEMrLsG_19openzeppelin_stylus5token6erc72110extensions10enumerableNtB5_16Erc721Enumerable25___stylus_assert_overrides
FN:150,_RNvXNtNtNtNtCs6vaqcEMrLsG_19openzeppelin_stylus5token6erc72110extensions10enumerableNtB2_16Erc721EnumerableNtNtNtNtBa_5utils13introspection6erc1657IErc16518supports_interface
FN:370,_RNCNvNtNtNtNtNtCs6vaqcEMrLsG_19openzeppelin_stylus5token6erc72110extensions10enumerable5testss_41add_token_to_all_tokens_enumeration_works0Bd_
FN:419,_RNCNvNtNtNtNtNtCs6vaqcEMrLsG_19openzeppelin_stylus5token6erc72110extensions10enumerable5testss_46remove_token_from_all_tokens_enumeration_works0Bd_
FN:172,_RINvMs_NtNtNtNtCs6vaqcEMrLsG_19openzeppelin_stylus5token6erc72110extensions10enumerableNtB5_16Erc721Enumerable31__add_token_to_owner_enumerationNtB9_6Erc721EBd_
FN:223,_RINvMs_NtNtNtNtCs6vaqcEMrLsG_19openzeppelin_stylus5token6erc72110extensions10enumerableNtB5_16Erc721Enumerable36__remove_token_from_owner_enumerationNtB9_6Erc721EBd_
FN:337,_RNvNtNtNtNtNtCs6vaqcEMrLsG_19openzeppelin_stylus5token6erc72110extensions10enumerable5testss_22total_supply_no_tokens
FN:342,_RNvNtNtNtNtNtCs6vaqcEMrLsG_19openzeppelin_stylus5token6erc72110extensions10enumerable5testss_41error_when_token_by_index_is_out_of_bound
FN:352,_RNvNtNtNtNtNtCs6vaqcEMrLsG_19openzeppelin_stylus5token6erc72110extensions10enumerable5testss_41add_token_to_all_tokens_enumeration_works
FN:382,_RNvNtNtNtNtNtCs6vaqcEMrLsG_19openzeppelin_stylus5token6erc72110extensions10enumerable5testss_46remove_token_from_all_tokens_enumeration_works
FN:433,_RNvNtNtNtNtNtCs6vaqcEMrLsG_19openzeppelin_stylus5token6erc72110extensions10enumerable5testss_22check_increase_balance
FN:440,_RNvNtNtNtNtNtCs6vaqcEMrLsG_19openzeppelin_stylus5token6erc72110extensions10enumerable5testss_29token_of_owner_by_index_works
FN:467,_RNvNtNtNtNtNtCs6vaqcEMrLsG_19openzeppelin_stylus5token6erc72110extensions10enumerable5testss_48error_when_token_of_owner_for_index_out_of_bound
FN:494,_RNvNtNtNtNtNtCs6vaqcEMrLsG_19openzeppelin_stylus5token6erc72110extensions10enumerable5testss_48error_when_token_of_owner_does_not_own_any_token
FN:509,_RNvNtNtNtNtNtCs6vaqcEMrLsG_19openzeppelin_stylus5token6erc72110extensions10enumerable5testss_44token_of_owner_by_index_after_transfer_works
FN:559,_RNvNtNtNtNtNtCs6vaqcEMrLsG_19openzeppelin_stylus5token6erc72110extensions10enumerable5testss_12interface_id
FN:192,_RNvMs_NtNtNtNtCs6vaqcEMrLsG_19openzeppelin_stylus5token6erc72110extensions10enumerableNtB4_16Erc721Enumerable36__add_token_to_all_tokens_enumeration
FN:269,_RNvMs_NtNtNtNtCs6vaqcEMrLsG_19openzeppelin_stylus5token6erc72110extensions10enumerableNtB4_16Erc721Enumerable41__remove_token_from_all_tokens_enumeration
FN:318,_RNvMs_NtNtNtNtCs6vaqcEMrLsG_19openzeppelin_stylus5token6erc72110extensions10enumerableNtB4_16Erc721Enumerable23__check_increase_balance
FN:39,_RNvXs4_NtNtNtNtCs6vaqcEMrLsG_19openzeppelin_stylus5token6erc72110extensions10enumerableNtB5_5ErrorINtNtCshuVUGNokh5j_4core7convert4FromNtB5_22ERC721OutOfBoundsIndexE4from
FN:39,_RNvXs5_NtNtNtNtCs6vaqcEMrLsG_19openzeppelin_stylus5token6erc72110extensions10enumerableNtB5_5ErrorINtNtCshuVUGNokh5j_4core7convert4FromNtB5_34ERC721EnumerableForbiddenBatchMintE4from
FN:65,_RNvXs9_NtNtNtNtCs6vaqcEMrLsG_19openzeppelin_stylus5token6erc72110extensions10enumerableNtB5_16Erc721EnumerableNtNtNtCs8c3p7fi1c1U_10stylus_sdk7storage6traits11StorageType3new
FN:123,_RNvXsa_NtNtNtNtCs6vaqcEMrLsG_19openzeppelin_stylus5token6erc72110extensions10enumerableNtB5_16Erc721EnumerableNtB5_17IErc721Enumerable23token_of_owner_by_index
FN:137,_RNvXsa_NtNtNtNtCs6vaqcEMrLsG_19openzeppelin_stylus5token6erc72110extensions10enumerableNtB5_16Erc721EnumerableNtB5_17IErc721Enumerable12total_supply
FN:142,_RNvXsa_NtNtNtNtCs6vaqcEMrLsG_19openzeppelin_stylus5token6erc72110extensions10enumerableNtB5_16Erc721EnumerableNtB5_17IErc721Enumerable14token_by_index
FNDA:0,_RNvXs6_NtNtNtNtCsa86sUp9HUqm_19openzeppelin_stylus5token6erc72110extensions10enumerableINtNtCsdDMkpvQxPWz_5alloc3vec3VechEINtNtCshuVUGNokh5j_4core7convert4FromNtB5_5ErrorE4from
FNDA:0,_RNvXNtNtNtNtCsa86sUp9HUqm_19openzeppelin_stylus5token6erc72110extensions10enumerableNtB2_16Erc721EnumerableNtNtNtNtBa_5utils13introspection6erc1657IErc16518supports_interface
FNDA:0,_RNvMs_NtNtNtNtCsa86sUp9HUqm_19openzeppelin_stylus5token6erc72110extensions10enumerableNtB4_16Erc721Enumerable36__add_token_to_all_tokens_enumeration
FNDA:0,_RNvMs_NtNtNtNtCsa86sUp9HUqm_19openzeppelin_stylus5token6erc72110extensions10enumerableNtB4_16Erc721Enumerable41__remove_token_from_all_tokens_enumeration
FNDA:0,_RNvMs_NtNtNtNtCsa86sUp9HUqm_19openzeppelin_stylus5token6erc72110extensions10enumerableNtB4_16Erc721Enumerable23__check_increase_balance
FNDA:0,_RNvXs4_NtNtNtNtCsa86sUp9HUqm_19openzeppelin_stylus5token6erc72110extensions10enumerableNtB5_5ErrorINtNtCshuVUGNokh5j_4core7convert4FromNtB5_22ERC721OutOfBoundsIndexE4from
FNDA:0,_RNvXs5_NtNtNtNtCsa86sUp9HUqm_19openzeppelin_stylus5token6erc72110extensions10enumerableNtB5_5ErrorINtNtCshuVUGNokh5j_4core7convert4FromNtB5_34ERC721EnumerableForbiddenBatchMintE4from
FNDA:0,_RNvMs8_NtNtNtNtCsa86sUp9HUqm_19openzeppelin_stylus5token6erc72110extensions10enumerableNtB5_16Erc721Enumerable14required_slots
FNDA:0,_RNvXs9_NtNtNtNtCsa86sUp9HUqm_19openzeppelin_stylus5token6erc72110extensions10enumerableNtB5_16Erc721EnumerableNtNtNtCs8c3p7fi1c1U_10stylus_sdk7storage6traits11StorageType3new
FNDA:0,_RNvXs9_NtNtNtNtCsa86sUp9HUqm_19openzeppelin_stylus5token6erc72110extensions10enumerableNtB5_16Erc721EnumerableNtNtNtCs8c3p7fi1c1U_10stylus_sdk7storage6traits11StorageType4load
FNDA:0,_RNvXs9_NtNtNtNtCsa86sUp9HUqm_19openzeppelin_stylus5token6erc72110extensions10enumerableNtB5_16Erc721EnumerableNtNtNtCs8c3p7fi1c1U_10stylus_sdk7storage6traits11StorageType8load_mut
FNDA:0,_RNvXsa_NtNtNtNtCsa86sUp9HUqm_19openzeppelin_stylus5token6erc72110extensions10enumerableNtB5_16Erc721EnumerableNtB5_17IErc721Enumerable23token_of_owner_by_index
FNDA:0,_RNvXsa_NtNtNtNtCsa86sUp9HUqm_19openzeppelin_stylus5token6erc72110extensions10enumerableNtB5_16Erc721EnumerableNtB5_17IErc721Enumerable12total_supply
FNDA:0,_RNvXsa_NtNtNtNtCsa86sUp9HUqm_19openzeppelin_stylus5token6erc72110extensions10enumerableNtB5_16Erc721EnumerableNtB5_17IErc721Enumerable14token_by_index
FNDA:0,_RNvMsc_NtNtNtNtCsa86sUp9HUqm_19openzeppelin_stylus5token6erc72110extensions10enumerableNtB5_16Erc721Enumerable23___stylus_allow_override
FNDA:0,_RNvMsc_NtNtNtNtCsa86sUp9HUqm_19openzeppelin_stylus5token6erc72110extensions10enumerableNtB5_16Erc721Enumerable25___stylus_assert_overrides
FNDA:0,_RNvXININtNtNtNtCsa86sUp9HUqm_19openzeppelin_stylus5token6erc72110extensions10enumerablesb_0pENtB5_16Erc721EnumerableINtNtCs8c3p7fi1c1U_10stylus_sdk3abi6RouterpE5routeBd_
FNDA:0,_RINvMs_NtNtNtNtCsa86sUp9HUqm_19openzeppelin_stylus5token6erc72110extensions10enumerableNtB5_16Erc721Enumerable31__add_token_to_owner_enumerationpEBd_
FNDA:0,_RINvMs_NtNtNtNtCsa86sUp9HUqm_19openzeppelin_stylus5token6erc72110extensions10enumerableNtB5_16Erc721Enumerable36__remove_token_from_owner_enumerationpEBd_
FNDA:0,_RINvMs_NtNtNtNtCsa86sUp9HUqm_19openzeppelin_stylus5token6erc72110extensions10enumerableNtB5_16Erc721Enumerable31__add_token_to_owner_enumerationNtB9_6Erc721ECsbY8cRU9egOl_14erc721_example
FNDA:0,_RINvMs_NtNtNtNtCsa86sUp9HUqm_19openzeppelin_stylus5token6erc72110extensions10enumerableNtB5_16Erc721Enumerable36__remove_token_from_owner_enumerationNtB9_6Erc721ECsbY8cRU9egOl_14erc721_example
FNDA:0,_RNvXsb_NtNtNtNtCsa86sUp9HUqm_19openzeppelin_stylus5token6erc72110extensions10enumerableNtB5_16Erc721EnumerableINtNtCs8c3p7fi1c1U_10stylus_sdk3abi6RouterNtCsbY8cRU9egOl_14erc721_example13Erc721ExampleE5routeB2s_
FNDA:0,_RNvXsb_NtNtNtNtCsa86sUp9HUqm_19openzeppelin_stylus5token6erc72110extensions10enumerableNtB5_16Erc721EnumerableINtNtCs8c3p7fi1c1U_10stylus_sdk3abi6RouterNtCslXfu2eZ1Tt1_14erc721_example13Erc721ExampleE5routeB2s_
FNDA:0,_RINvMs_NtNtNtNtCsa86sUp9HUqm_19openzeppelin_stylus5token6erc72110extensions10enumerableNtB5_16Erc721Enumerable31__add_token_to_owner_enumerationNtB9_6Erc721ECslXfu2eZ1Tt1_14erc721_example
FNDA:0,_RINvMs_NtNtNtNtCsa86sUp9HUqm_19openzeppelin_stylus5token6erc72110extensions10enumerableNtB5_16Erc721Enumerable36__remove_token_from_owner_enumerationNtB9_6Erc721ECslXfu2eZ1Tt1_14erc721_example
FNDA:0,_RNvNvNtNtNtNtCs6vaqcEMrLsG_19openzeppelin_stylus5token6erc72110extensions10enumerable1__15__type_assertion
FNDA:0,_RNvNvNtNtNtNtCs6vaqcEMrLsG_19openzeppelin_stylus5token6erc72110extensions10enumerables_1__15__type_assertion
FNDA:0,_RNvXs6_NtNtNtNtCs6vaqcEMrLsG_19openzeppelin_stylus5token6erc72110extensions10enumerableINtNtCsdDMkpvQxPWz_5alloc3vec3VechEINtNtCshuVUGNokh5j_4core7convert4FromNtB5_5ErrorE4from
FNDA:0,_RNvMs8_NtNtNtNtCs6vaqcEMrLsG_19openzeppelin_stylus5token6erc72110extensions10enumerableNtB5_16Erc721Enumerable14required_slots
FNDA:0,_RNvXs9_NtNtNtNtCs6vaqcEMrLsG_19openzeppelin_stylus5token6erc72110extensions10enumerableNtB5_16Erc721EnumerableNtNtNtCs8c3p7fi1c1U_10stylus_sdk7storage6traits11StorageType4load
FNDA:0,_RNvXs9_NtNtNtNtCs6vaqcEMrLsG_19openzeppelin_stylus5token6erc72110extensions10enumerableNtB5_16Erc721EnumerableNtNtNtCs8c3p7fi1c1U_10stylus_sdk7storage6traits11StorageType8load_mut
FNDA:0,_RNvXININtNtNtNtCs6vaqcEMrLsG_19openzeppelin_stylus5token6erc72110extensions10enumerablesb_0pENtB5_16Erc721EnumerableINtNtCs8c3p7fi1c1U_10stylus_sdk3abi6RouterpE5routeBd_
FNDA:0,_RNvMsc_NtNtNtNtCs6vaqcEMrLsG_19openzeppelin_stylus5token6erc72110extensions10enumerableNtB5_16Erc721Enumerable23___stylus_allow_override
FNDA:0,_RNvMsc_NtNtNtNtCs6vaqcEMrLsG_19openzeppelin_stylus5token6erc72110extensions10enumerableNtB5_16Erc721Enumerable25___stylus_assert_overrides
FNDA:0,_RNvXNtNtNtNtCs6vaqcEMrLsG_19openzeppelin_stylus5token6erc72110extensions10enumerableNtB2_16Erc721EnumerableNtNtNtNtBa_5utils13introspection6erc1657IErc16518supports_interface
FNDA:10,_RNCNvNtNtNtNtNtCs6vaqcEMrLsG_19openzeppelin_stylus5token6erc72110extensions10enumerable5testss_41add_token_to_all_tokens_enumeration_works0Bd_
FNDA:9,_RNCNvNtNtNtNtNtCs6vaqcEMrLsG_19openzeppelin_stylus5token6erc72110extensions10enumerable5testss_46remove_token_from_all_tokens_enumeration_works0Bd_
FNDA:4,_RINvMs_NtNtNtNtCs6vaqcEMrLsG_19openzeppelin_stylus5token6erc72110extensions10enumerableNtB5_16Erc721Enumerable31__add_token_to_owner_enumerationNtB9_6Erc721EBd_
FNDA:1,_RINvMs_NtNtNtNtCs6vaqcEMrLsG_19openzeppelin_stylus5token6erc72110extensions10enumerableNtB5_16Erc721Enumerable36__remove_token_from_owner_enumerationNtB9_6Erc721EBd_
FNDA:1,_RNvNtNtNtNtNtCs6vaqcEMrLsG_19openzeppelin_stylus5token6erc72110extensions10enumerable5testss_22total_supply_no_tokens
FNDA:1,_RNvNtNtNtNtNtCs6vaqcEMrLsG_19openzeppelin_stylus5token6erc72110extensions10enumerable5testss_41error_when_token_by_index_is_out_of_bound
FNDA:1,_RNvNtNtNtNtNtCs6vaqcEMrLsG_19openzeppelin_stylus5token6erc72110extensions10enumerable5testss_41add_token_to_all_tokens_enumeration_works
FNDA:1,_RNvNtNtNtNtNtCs6vaqcEMrLsG_19openzeppelin_stylus5token6erc72110extensions10enumerable5testss_46remove_token_from_all_tokens_enumeration_works
FNDA:1,_RNvNtNtNtNtNtCs6vaqcEMrLsG_19openzeppelin_stylus5token6erc72110extensions10enumerable5testss_22check_increase_balance
FNDA:1,_RNvNtNtNtNtNtCs6vaqcEMrLsG_19openzeppelin_stylus5token6erc72110extensions10enumerable5testss_29token_of_owner_by_index_works
FNDA:1,_RNvNtNtNtNtNtCs6vaqcEMrLsG_19openzeppelin_stylus5token6erc72110extensions10enumerable5testss_48error_when_token_of_owner_for_index_out_of_bound
FNDA:1,_RNvNtNtNtNtNtCs6vaqcEMrLsG_19openzeppelin_stylus5token6erc72110extensions10enumerable5testss_48error_when_token_of_owner_does_not_own_any_token
FNDA:1,_RNvNtNtNtNtNtCs6vaqcEMrLsG_19openzeppelin_stylus5token6erc72110extensions10enumerable5testss_44token_of_owner_by_index_after_transfer_works
FNDA:1,_RNvNtNtNtNtNtCs6vaqcEMrLsG_19openzeppelin_stylus5token6erc72110extensions10enumerable5testss_12interface_id
FNDA:21,_RNvMs_NtNtNtNtCs6vaqcEMrLsG_19openzeppelin_stylus5token6erc72110extensions10enumerableNtB4_16Erc721Enumerable36__add_token_to_all_tokens_enumeration
FNDA:2,_RNvMs_NtNtNtNtCs6vaqcEMrLsG_19openzeppelin_stylus5token6erc72110extensions10enumerableNtB4_16Erc721Enumerable41__remove_token_from_all_tokens_enumeration
FNDA:2,_RNvMs_NtNtNtNtCs6vaqcEMrLsG_19openzeppelin_stylus5token6erc72110extensions10enumerableNtB4_16Erc721Enumerable23__check_increase_balance
FNDA:25,_RNvXs4_NtNtNtNtCs6vaqcEMrLsG_19openzeppelin_stylus5token6erc72110extensions10enumerableNtB5_5ErrorINtNtCshuVUGNokh5j_4core7convert4FromNtB5_22ERC721OutOfBoundsIndexE4from
FNDA:1,_RNvXs5_NtNtNtNtCs6vaqcEMrLsG_19openzeppelin_stylus5token6erc72110extensions10enumerableNtB5_5ErrorINtNtCshuVUGNokh5j_4core7convert4FromNtB5_34ERC721EnumerableForbiddenBatchMintE4from
FNDA:8,_RNvXs9_NtNtNtNtCs6vaqcEMrLsG_19openzeppelin_stylus5token6erc72110extensions10enumerableNtB5_16Erc721EnumerableNtNtNtCs8c3p7fi1c1U_10stylus_sdk7storage6traits11StorageType3new
FNDA:5,_RNvXsa_NtNtNtNtCs6vaqcEMrLsG_19openzeppelin_stylus5token6erc72110extensions10enumerableNtB5_16Erc721EnumerableNtB5_17IErc721Enumerable23token_of_owner_by_index
FNDA:30,_RNvXsa_NtNtNtNtCs6vaqcEMrLsG_19openzeppelin_stylus5token6erc72110extensions10enumerableNtB5_16Erc721EnumerableNtB5_17IErc721Enumerable12total_supply
FNDA:22,_RNvXsa_NtNtNtNtCs6vaqcEMrLsG_19openzeppelin_stylus5token6erc72110extensions10enumerableNtB5_16Erc721EnumerableNtB5_17IErc721Enumerable14token_by_index
FNF:26
FNH:22
DA:22,0
DA:23,0
DA:24,0
DA:25,0
DA:26,0
DA:27,0
DA:28,0
DA:29,0
DA:30,0
DA:31,0
DA:32,0
DA:33,0
DA:34,0
DA:35,0
DA:36,0
DA:39,0
DA:52,0
DA:53,0
DA:54,0
DA:55,0
DA:56,0
DA:57,0
DA:58,0
DA:59,0
DA:60,0
DA:61,0
DA:62,0
DA:63,0
DA:64,0
DA:65,8
DA:119,0
DA:123,5
DA:124,5
DA:125,5
DA:126,5
DA:127,5
DA:128,5
DA:129,5
DA:130,5
DA:131,3
DA:133,2
DA:135,5
DA:137,30
DA:138,30
DA:139,30
DA:140,30
DA:142,22
DA:143,22
DA:144,22
DA:145,22
DA:146,22
DA:150,0
DA:151,0
DA:152,0
DA:153,0
DA:172,4
DA:173,4
DA:174,4
DA:175,4
DA:176,4
DA:177,4
DA:178,4
DA:179,4
DA:180,4
DA:181,4
DA:182,4
DA:183,4
DA:192,21
DA:193,21
DA:194,21
DA:195,21
DA:196,21
DA:197,21
DA:223,1
DA:224,1
DA:225,1
DA:226,1
DA:227,1
DA:228,1
DA:232,1
DA:233,1
DA:234,1
DA:235,1
DA:236,1
DA:237,1
DA:238,1
DA:239,1
DA:240,0
DA:241,0
DA:242,0
DA:243,0
DA:244,0
DA:245,0
DA:246,1
DA:249,1
DA:250,1
DA:251,1
DA:252,1
DA:253,1
DA:269,2
DA:270,2
DA:271,2
DA:272,2
DA:273,2
DA:274,2
DA:275,2
DA:276,2
DA:277,2
DA:278,2
DA:279,2
DA:280,2
DA:281,2
DA:282,2
DA:283,2
DA:284,2
DA:285,2
DA:286,2
DA:287,2
DA:288,2
DA:289,2
DA:290,2
DA:291,2
DA:292,2
DA:293,2
DA:294,2
DA:295,2
DA:296,2
DA:297,2
DA:298,2
DA:299,2
DA:300,2
DA:301,2
DA:302,2
DA:303,2
DA:318,2
DA:319,2
DA:320,1
DA:322,1
DA:324,2
DA:337,1
DA:342,1
DA:352,1
DA:370,10
DA:371,10
DA:372,10
DA:373,10
DA:374,10
DA:375,10
DA:382,1
DA:419,9
DA:420,9
DA:421,9
DA:422,9
DA:423,9
DA:424,9
DA:433,1
DA:440,1
DA:467,1
DA:494,1
DA:509,1
DA:559,1
BRF:0
BRH:0
LF:162
LH:122
end_of_record
SF:/home/nenad/repos/rust-contracts-stylus/contracts/src/token/erc721/extensions/metadata.rs
FN:45,_RNvXININtNtNtNtCsa86sUp9HUqm_19openzeppelin_stylus5token6erc72110extensions8metadatas3_0pENtB5_14Erc721MetadataINtNtCs8c3p7fi1c1U_10stylus_sdk3abi6RouterpE5routeBd_
FN:98,_RINvMs_NtNtNtNtCsa86sUp9HUqm_19openzeppelin_stylus5token6erc72110extensions8metadataNtB5_14Erc721Metadata9token_uripEBd_
FN:98,_RINvMs_NtNtNtNtCsa86sUp9HUqm_19openzeppelin_stylus5token6erc72110extensions8metadataNtB5_14Erc721Metadata9token_uriNtB9_6Erc721ECshLDj1MwUje2_23erc721_metadata_example
FN:45,_RNvXs3_NtNtNtNtCsa86sUp9HUqm_19openzeppelin_stylus5token6erc72110extensions8metadataNtB5_14Erc721MetadataINtNtCs8c3p7fi1c1U_10stylus_sdk3abi6RouterNtCshLDj1MwUje2_23erc721_metadata_example21Erc721MetadataExampleE5routeB2n_
FN:57,_RNvXNtNtNtNtCsa86sUp9HUqm_19openzeppelin_stylus5token6erc72110extensions8metadataNtB2_14Erc721MetadataNtNtNtNtBa_5utils13introspection6erc1657IErc16518supports_interface
FN:71,_RNvMs_NtNtNtNtCsa86sUp9HUqm_19openzeppelin_stylus5token6erc72110extensions8metadataNtB4_14Erc721Metadata8base_uri
FN:22,_RNvMs0_NtNtNtNtCsa86sUp9HUqm_19openzeppelin_stylus5token6erc72110extensions8metadataNtB5_14Erc721Metadata14required_slots
FN:22,_RNvXs1_NtNtNtNtCsa86sUp9HUqm_19openzeppelin_stylus5token6erc72110extensions8metadataNtB5_14Erc721MetadataNtNtNtCs8c3p7fi1c1U_10stylus_sdk7storage6traits11StorageType3new
FN:14,_RNvXs1_NtNtNtNtCsa86sUp9HUqm_19openzeppelin_stylus5token6erc72110extensions8metadataNtB5_14Erc721MetadataNtNtNtCs8c3p7fi1c1U_10stylus_sdk7storage6traits11StorageType4load
FN:14,_RNvXs1_NtNtNtNtCsa86sUp9HUqm_19openzeppelin_stylus5token6erc72110extensions8metadataNtB5_14Erc721MetadataNtNtNtCs8c3p7fi1c1U_10stylus_sdk7storage6traits11StorageType8load_mut
FN:47,_RNvXs2_NtNtNtNtCsa86sUp9HUqm_19openzeppelin_stylus5token6erc72110extensions8metadataNtB5_14Erc721MetadataNtB5_15IErc721Metadata4name
FN:51,_RNvXs2_NtNtNtNtCsa86sUp9HUqm_19openzeppelin_stylus5token6erc72110extensions8metadataNtB5_14Erc721MetadataNtB5_15IErc721Metadata6symbol
FN:45,_RNvMs4_NtNtNtNtCsa86sUp9HUqm_19openzeppelin_stylus5token6erc72110extensions8metadataNtB5_14Erc721Metadata23___stylus_allow_override
FN:45,_RNvMs4_NtNtNtNtCsa86sUp9HUqm_19openzeppelin_stylus5token6erc72110extensions8metadataNtB5_14Erc721Metadata25___stylus_assert_overrides
FN:45,_RNvXs3_NtNtNtNtCsa86sUp9HUqm_19openzeppelin_stylus5token6erc72110extensions8metadataNtB5_14Erc721MetadataINtNtCs8c3p7fi1c1U_10stylus_sdk3abi6RouterNtCsil9SubT3BB5_23erc721_metadata_example21Erc721MetadataExampleE5routeB2n_
FN:98,_RINvMs_NtNtNtNtCsa86sUp9HUqm_19openzeppelin_stylus5token6erc72110extensions8metadataNtB5_14Erc721Metadata9token_uriNtB9_6Erc721ECsil9SubT3BB5_23erc721_metadata_example
FN:22,_RNvMs0_NtNtNtNtCs6vaqcEMrLsG_19openzeppelin_stylus5token6erc72110extensions8metadataNtB5_14Erc721Metadata14required_slots
FN:14,_RNvXs1_NtNtNtNtCs6vaqcEMrLsG_19openzeppelin_stylus5token6erc72110extensions8metadataNtB5_14Erc721MetadataNtNtNtCs8c3p7fi1c1U_10stylus_sdk7storage6traits11StorageType4load
FN:14,_RNvXs1_NtNtNtNtCs6vaqcEMrLsG_19openzeppelin_stylus5token6erc72110extensions8metadataNtB5_14Erc721MetadataNtNtNtCs8c3p7fi1c1U_10stylus_sdk7storage6traits11StorageType8load_mut
FN:47,_RNvXs2_NtNtNtNtCs6vaqcEMrLsG_19openzeppelin_stylus5token6erc72110extensions8metadataNtB5_14Erc721MetadataNtB5_15IErc721Metadata4name
FN:51,_RNvXs2_NtNtNtNtCs6vaqcEMrLsG_19openzeppelin_stylus5token6erc72110extensions8metadataNtB5_14Erc721MetadataNtB5_15IErc721Metadata6symbol
FN:45,_RNvXININtNtNtNtCs6vaqcEMrLsG_19openzeppelin_stylus5token6erc72110extensions8metadatas3_0pENtB5_14Erc721MetadataINtNtCs8c3p7fi1c1U_10stylus_sdk3abi6RouterpE5routeBd_
FN:45,_RNvMs4_NtNtNtNtCs6vaqcEMrLsG_19openzeppelin_stylus5token6erc72110extensions8metadataNtB5_14Erc721Metadata23___stylus_allow_override
FN:45,_RNvMs4_NtNtNtNtCs6vaqcEMrLsG_19openzeppelin_stylus5token6erc72110extensions8metadataNtB5_14Erc721Metadata25___stylus_assert_overrides
FN:57,_RNvXNtNtNtNtCs6vaqcEMrLsG_19openzeppelin_stylus5token6erc72110extensions8metadataNtB2_14Erc721MetadataNtNtNtNtBa_5utils13introspection6erc1657IErc16518supports_interface
FN:98,_RINvMs_NtNtNtNtCs6vaqcEMrLsG_19openzeppelin_stylus5token6erc72110extensions8metadataNtB5_14Erc721Metadata9token_uriNtB9_6Erc721EBd_
FN:71,_RNvMs_NtNtNtNtCs6vaqcEMrLsG_19openzeppelin_stylus5token6erc72110extensions8metadataNtB4_14Erc721Metadata8base_uri
FN:22,_RNvXs1_NtNtNtNtCs6vaqcEMrLsG_19openzeppelin_stylus5token6erc72110extensions8metadataNtB5_14Erc721MetadataNtNtNtCs8c3p7fi1c1U_10stylus_sdk7storage6traits11StorageType3new
FNDA:0,_RNvXININtNtNtNtCsa86sUp9HUqm_19openzeppelin_stylus5token6erc72110extensions8metadatas3_0pENtB5_14Erc721MetadataINtNtCs8c3p7fi1c1U_10stylus_sdk3abi6RouterpE5routeBd_
FNDA:0,_RINvMs_NtNtNtNtCsa86sUp9HUqm_19openzeppelin_stylus5token6erc72110extensions8metadataNtB5_14Erc721Metadata9token_uripEBd_
FNDA:0,_RINvMs_NtNtNtNtCsa86sUp9HUqm_19openzeppelin_stylus5token6erc72110extensions8metadataNtB5_14Erc721Metadata9token_uriNtB9_6Erc721ECshLDj1MwUje2_23erc721_metadata_example
FNDA:0,_RNvXs3_NtNtNtNtCsa86sUp9HUqm_19openzeppelin_stylus5token6erc72110extensions8metadataNtB5_14Erc721MetadataINtNtCs8c3p7fi1c1U_10stylus_sdk3abi6RouterNtCshLDj1MwUje2_23erc721_metadata_example21Erc721MetadataExampleE5routeB2n_
FNDA:0,_RNvXNtNtNtNtCsa86sUp9HUqm_19openzeppelin_stylus5token6erc72110extensions8metadataNtB2_14Erc721MetadataNtNtNtNtBa_5utils13introspection6erc1657IErc16518supports_interface
FNDA:0,_RNvMs_NtNtNtNtCsa86sUp9HUqm_19openzeppelin_stylus5token6erc72110extensions8metadataNtB4_14Erc721Metadata8base_uri
FNDA:0,_RNvMs0_NtNtNtNtCsa86sUp9HUqm_19openzeppelin_stylus5token6erc72110extensions8metadataNtB5_14Erc721Metadata14required_slots
FNDA:0,_RNvXs1_NtNtNtNtCsa86sUp9HUqm_19openzeppelin_stylus5token6erc72110extensions8metadataNtB5_14Erc721MetadataNtNtNtCs8c3p7fi1c1U_10stylus_sdk7storage6traits11StorageType3new
FNDA:0,_RNvXs1_NtNtNtNtCsa86sUp9HUqm_19openzeppelin_stylus5token6erc72110extensions8metadataNtB5_14Erc721MetadataNtNtNtCs8c3p7fi1c1U_10stylus_sdk7storage6traits11StorageType4load
FNDA:0,_RNvXs1_NtNtNtNtCsa86sUp9HUqm_19openzeppelin_stylus5token6erc72110extensions8metadataNtB5_14Erc721MetadataNtNtNtCs8c3p7fi1c1U_10stylus_sdk7storage6traits11StorageType8load_mut
FNDA:0,_RNvXs2_NtNtNtNtCsa86sUp9HUqm_19openzeppelin_stylus5token6erc72110extensions8metadataNtB5_14Erc721MetadataNtB5_15IErc721Metadata4name
FNDA:0,_RNvXs2_NtNtNtNtCsa86sUp9HUqm_19openzeppelin_stylus5token6erc72110extensions8metadataNtB5_14Erc721MetadataNtB5_15IErc721Metadata6symbol
FNDA:0,_RNvMs4_NtNtNtNtCsa86sUp9HUqm_19openzeppelin_stylus5token6erc72110extensions8metadataNtB5_14Erc721Metadata23___stylus_allow_override
FNDA:0,_RNvMs4_NtNtNtNtCsa86sUp9HUqm_19openzeppelin_stylus5token6erc72110extensions8metadataNtB5_14Erc721Metadata25___stylus_assert_overrides
FNDA:0,_RNvXs3_NtNtNtNtCsa86sUp9HUqm_19openzeppelin_stylus5token6erc72110extensions8metadataNtB5_14Erc721MetadataINtNtCs8c3p7fi1c1U_10stylus_sdk3abi6RouterNtCsil9SubT3BB5_23erc721_metadata_example21Erc721MetadataExampleE5routeB2n_
FNDA:0,_RINvMs_NtNtNtNtCsa86sUp9HUqm_19openzeppelin_stylus5token6erc72110extensions8metadataNtB5_14Erc721Metadata9token_uriNtB9_6Erc721ECsil9SubT3BB5_23erc721_metadata_example
FNDA:0,_RNvMs0_NtNtNtNtCs6vaqcEMrLsG_19openzeppelin_stylus5token6erc72110extensions8metadataNtB5_14Erc721Metadata14required_slots
FNDA:0,_RNvXs1_NtNtNtNtCs6vaqcEMrLsG_19openzeppelin_stylus5token6erc72110extensions8metadataNtB5_14Erc721MetadataNtNtNtCs8c3p7fi1c1U_10stylus_sdk7storage6traits11StorageType4load
FNDA:0,_RNvXs1_NtNtNtNtCs6vaqcEMrLsG_19openzeppelin_stylus5token6erc72110extensions8metadataNtB5_14Erc721MetadataNtNtNtCs8c3p7fi1c1U_10stylus_sdk7storage6traits11StorageType8load_mut
FNDA:0,_RNvXs2_NtNtNtNtCs6vaqcEMrLsG_19openzeppelin_stylus5token6erc72110extensions8metadataNtB5_14Erc721MetadataNtB5_15IErc721Metadata4name
FNDA:0,_RNvXs2_NtNtNtNtCs6vaqcEMrLsG_19openzeppelin_stylus5token6erc72110extensions8metadataNtB5_14Erc721MetadataNtB5_15IErc721Metadata6symbol
FNDA:0,_RNvXININtNtNtNtCs6vaqcEMrLsG_19openzeppelin_stylus5token6erc72110extensions8metadatas3_0pENtB5_14Erc721MetadataINtNtCs8c3p7fi1c1U_10stylus_sdk3abi6RouterpE5routeBd_
FNDA:0,_RNvMs4_NtNtNtNtCs6vaqcEMrLsG_19openzeppelin_stylus5token6erc72110extensions8metadataNtB5_14Erc721Metadata23___stylus_allow_override
FNDA:0,_RNvMs4_NtNtNtNtCs6vaqcEMrLsG_19openzeppelin_stylus5token6erc72110extensions8metadataNtB5_14Erc721Metadata25___stylus_assert_overrides
FNDA:0,_RNvXNtNtNtNtCs6vaqcEMrLsG_19openzeppelin_stylus5token6erc72110extensions8metadataNtB2_14Erc721MetadataNtNtNtNtBa_5utils13introspection6erc1657IErc16518supports_interface
FNDA:0,_RINvMs_NtNtNtNtCs6vaqcEMrLsG_19openzeppelin_stylus5token6erc72110extensions8metadataNtB5_14Erc721Metadata9token_uriNtB9_6Erc721EBd_
FNDA:2,_RNvMs_NtNtNtNtCs6vaqcEMrLsG_19openzeppelin_stylus5token6erc72110extensions8metadataNtB4_14Erc721Metadata8base_uri
FNDA:2,_RNvXs1_NtNtNtNtCs6vaqcEMrLsG_19openzeppelin_stylus5token6erc72110extensions8metadataNtB5_14Erc721MetadataNtNtNtCs8c3p7fi1c1U_10stylus_sdk7storage6traits11StorageType3new
FNF:8
FNH:2
DA:14,0
DA:15,0
DA:16,0
DA:17,0
DA:18,0
DA:19,0
DA:20,0
DA:21,0
DA:22,2
DA:45,0
DA:47,0
DA:48,0
DA:49,0
DA:51,0
DA:52,0
DA:53,0
DA:57,0
DA:58,0
DA:59,0
DA:60,0
DA:61,0
DA:71,2
DA:72,2
DA:73,2
DA:98,0
DA:99,0
DA:100,0
DA:101,0
DA:102,0
DA:103,0
DA:105,0
DA:107,0
DA:108,0
DA:110,0
DA:113,0
DA:114,0
BRF:0
BRH:0
LF:37
LH:4
end_of_record
SF:/home/nenad/repos/rust-contracts-stylus/contracts/src/token/erc721/extensions/uri_storage.rs
FN:46,_RNvMNtNtNtNtCsa86sUp9HUqm_19openzeppelin_stylus5token6erc72110extensions11uri_storageNtB2_16Erc721UriStorage14__set_token_uri
FN:33,_RNvMs1_NtNtNtNtCsa86sUp9HUqm_19openzeppelin_stylus5token6erc72110extensions11uri_storageNtB5_16Erc721UriStorage14required_slots
FN:33,_RNvXs2_NtNtNtNtCsa86sUp9HUqm_19openzeppelin_stylus5token6erc72110extensions11uri_storageNtB5_16Erc721UriStorageNtNtNtCs8c3p7fi1c1U_10stylus_sdk7storage6traits11StorageType3new
FN:27,_RNvXs2_NtNtNtNtCsa86sUp9HUqm_19openzeppelin_stylus5token6erc72110extensions11uri_storageNtB5_16Erc721UriStorageNtNtNtCs8c3p7fi1c1U_10stylus_sdk7storage6traits11StorageType4load
FN:27,_RNvXs2_NtNtNtNtCsa86sUp9HUqm_19openzeppelin_stylus5token6erc72110extensions11uri_storageNtB5_16Erc721UriStorageNtNtNtCs8c3p7fi1c1U_10stylus_sdk7storage6traits11StorageType8load_mut
FN:25,_RNvXs_NvNtNtNtNtCsa86sUp9HUqm_19openzeppelin_stylus5token6erc72110extensions11uri_storage1__NtNtCs9yoxqfta9I2_16alloy_primitives3log7LogDataINtNtCshuVUGNokh5j_4core7convert4FromRNtB6_14MetadataUpdateE4fromBe_
FN:12,_RNCNvXs_NvNtNtNtNtCsa86sUp9HUqm_19openzeppelin_stylus5token6erc72110extensions11uri_storage1__NtNtCs9yoxqfta9I2_16alloy_primitives3log7LogDataINtNtCshuVUGNokh5j_4core7convert4FromRNtB8_14MetadataUpdateE4from0Bg_
FN:25,_RNvXs_NvNtNtNtNtCsa86sUp9HUqm_19openzeppelin_stylus5token6erc72110extensions11uri_storages_1__NtNtCs9yoxqfta9I2_16alloy_primitives3log7LogDataINtNtCshuVUGNokh5j_4core7convert4FromRNtB6_19BatchMetadataUpdateE4fromBe_
FN:12,_RNCNvXs_NvNtNtNtNtCsa86sUp9HUqm_19openzeppelin_stylus5token6erc72110extensions11uri_storages_1__NtNtCs9yoxqfta9I2_16alloy_primitives3log7LogDataINtNtCshuVUGNokh5j_4core7convert4FromRNtB8_19BatchMetadataUpdateE4from0Bg_
FN:79,_RINvMNtNtNtNtCsa86sUp9HUqm_19openzeppelin_stylus5token6erc72110extensions11uri_storageNtB3_16Erc721UriStorage9token_uripEBb_
FN:79,_RINvMNtNtNtNtCsa86sUp9HUqm_19openzeppelin_stylus5token6erc72110extensions11uri_storageNtB3_16Erc721UriStorage9token_uriNtB7_6Erc721ECshLDj1MwUje2_23erc721_metadata_example
FN:79,_RINvMNtNtNtNtCsa86sUp9HUqm_19openzeppelin_stylus5token6erc72110extensions11uri_storageNtB3_16Erc721UriStorage9token_uriNtB7_6Erc721ECsil9SubT3BB5_23erc721_metadata_example
FN:79,_RINvMNtNtNtNtCs6vaqcEMrLsG_19openzeppelin_stylus5token6erc72110extensions11uri_storageNtB3_16Erc721UriStorage9token_uriNtB7_6Erc721EBb_
FN:25,_RNvXs_NvNtNtNtNtCs6vaqcEMrLsG_19openzeppelin_stylus5token6erc72110extensions11uri_storage1__NtNtCs9yoxqfta9I2_16alloy_primitives3log7LogDataINtNtCshuVUGNokh5j_4core7convert4FromRNtB6_14MetadataUpdateE4fromBe_
FN:12,_RNCNvXs_NvNtNtNtNtCs6vaqcEMrLsG_19openzeppelin_stylus5token6erc72110extensions11uri_storage1__NtNtCs9yoxqfta9I2_16alloy_primitives3log7LogDataINtNtCshuVUGNokh5j_4core7convert4FromRNtB8_14MetadataUpdateE4from0Bg_
FN:25,_RNvXs_NvNtNtNtNtCs6vaqcEMrLsG_19openzeppelin_stylus5token6erc72110extensions11uri_storages_1__NtNtCs9yoxqfta9I2_16alloy_primitives3log7LogDataINtNtCshuVUGNokh5j_4core7convert4FromRNtB6_19BatchMetadataUpdateE4fromBe_
FN:12,_RNCNvXs_NvNtNtNtNtCs6vaqcEMrLsG_19openzeppelin_stylus5token6erc72110extensions11uri_storages_1__NtNtCs9yoxqfta9I2_16alloy_primitives3log7LogDataINtNtCshuVUGNokh5j_4core7convert4FromRNtB8_19BatchMetadataUpdateE4from0Bg_
FN:33,_RNvMs1_NtNtNtNtCs6vaqcEMrLsG_19openzeppelin_stylus5token6erc72110extensions11uri_storageNtB5_16Erc721UriStorage14required_slots
FN:27,_RNvXs2_NtNtNtNtCs6vaqcEMrLsG_19openzeppelin_stylus5token6erc72110extensions11uri_storageNtB5_16Erc721UriStorageNtNtNtCs8c3p7fi1c1U_10stylus_sdk7storage6traits11StorageType4load
FN:27,_RNvXs2_NtNtNtNtCs6vaqcEMrLsG_19openzeppelin_stylus5token6erc72110extensions11uri_storageNtB5_16Erc721UriStorageNtNtNtCs8c3p7fi1c1U_10stylus_sdk7storage6traits11StorageType8load_mut
FN:125,_RNvMNtNtNtNtNtCs6vaqcEMrLsG_19openzeppelin_stylus5token6erc72110extensions11uri_storage5testsNtB2_21Erc721MetadataExample14required_slots
FN:119,_RNvXs_NtNtNtNtNtCs6vaqcEMrLsG_19openzeppelin_stylus5token6erc72110extensions11uri_storage5testsNtB4_21Erc721MetadataExampleNtNtNtCs8c3p7fi1c1U_10stylus_sdk7storage6traits11StorageType4load
FN:119,_RNvXs_NtNtNtNtNtCs6vaqcEMrLsG_19openzeppelin_stylus5token6erc72110extensions11uri_storage5testsNtB4_21Erc721MetadataExampleNtNtNtCs8c3p7fi1c1U_10stylus_sdk7storage6traits11StorageType8load_mut
FN:114,_RNvNtNtNtNtNtCs6vaqcEMrLsG_19openzeppelin_stylus5token6erc72110extensions11uri_storage5tests15random_token_id
FN:125,_RNvXs_NtNtNtNtNtCs6vaqcEMrLsG_19openzeppelin_stylus5token6erc72110extensions11uri_storage5testsNtB4_21Erc721MetadataExampleNtNtNtCs8c3p7fi1c1U_10stylus_sdk7storage6traits11StorageType3new
FN:127,_RNvNtNtNtNtNtCs6vaqcEMrLsG_19openzeppelin_stylus5token6erc72110extensions11uri_storage5testss_19get_token_uri_works
FN:154,_RNvNtNtNtNtNtCs6vaqcEMrLsG_19openzeppelin_stylus5token6erc72110extensions11uri_storage5testss_19set_token_uri_works
FN:46,_RNvMNtNtNtNtCs6vaqcEMrLsG_19openzeppelin_stylus5token6erc72110extensions11uri_storageNtB2_16Erc721UriStorage14__set_token_uri
FN:33,_RNvXs2_NtNtNtNtCs6vaqcEMrLsG_19openzeppelin_stylus5token6erc72110extensions11uri_storageNtB5_16Erc721UriStorageNtNtNtCs8c3p7fi1c1U_10stylus_sdk7storage6traits11StorageType3new
FNDA:0,_RNvMNtNtNtNtCsa86sUp9HUqm_19openzeppelin_stylus5token6erc72110extensions11uri_storageNtB2_16Erc721UriStorage14__set_token_uri
FNDA:0,_RNvMs1_NtNtNtNtCsa86sUp9HUqm_19openzeppelin_stylus5token6erc72110extensions11uri_storageNtB5_16Erc721UriStorage14required_slots
FNDA:0,_RNvXs2_NtNtNtNtCsa86sUp9HUqm_19openzeppelin_stylus5token6erc72110extensions11uri_storageNtB5_16Erc721UriStorageNtNtNtCs8c3p7fi1c1U_10stylus_sdk7storage6traits11StorageType3new
FNDA:0,_RNvXs2_NtNtNtNtCsa86sUp9HUqm_19openzeppelin_stylus5token6erc72110extensions11uri_storageNtB5_16Erc721UriStorageNtNtNtCs8c3p7fi1c1U_10stylus_sdk7storage6traits11StorageType4load
FNDA:0,_RNvXs2_NtNtNtNtCsa86sUp9HUqm_19openzeppelin_stylus5token6erc72110extensions11uri_storageNtB5_16Erc721UriStorageNtNtNtCs8c3p7fi1c1U_10stylus_sdk7storage6traits11StorageType8load_mut
FNDA:0,_RNvXs_NvNtNtNtNtCsa86sUp9HUqm_19openzeppelin_stylus5token6erc72110extensions11uri_storage1__NtNtCs9yoxqfta9I2_16alloy_primitives3log7LogDataINtNtCshuVUGNokh5j_4core7convert4FromRNtB6_14MetadataUpdateE4fromBe_
FNDA:0,_RNCNvXs_NvNtNtNtNtCsa86sUp9HUqm_19openzeppelin_stylus5token6erc72110extensions11uri_storage1__NtNtCs9yoxqfta9I2_16alloy_primitives3log7LogDataINtNtCshuVUGNokh5j_4core7convert4FromRNtB8_14MetadataUpdateE4from0Bg_
FNDA:0,_RNvXs_NvNtNtNtNtCsa86sUp9HUqm_19openzeppelin_stylus5token6erc72110extensions11uri_storages_1__NtNtCs9yoxqfta9I2_16alloy_primitives3log7LogDataINtNtCshuVUGNokh5j_4core7convert4FromRNtB6_19BatchMetadataUpdateE4fromBe_
FNDA:0,_RNCNvXs_NvNtNtNtNtCsa86sUp9HUqm_19openzeppelin_stylus5token6erc72110extensions11uri_storages_1__NtNtCs9yoxqfta9I2_16alloy_primitives3log7LogDataINtNtCshuVUGNokh5j_4core7convert4FromRNtB8_19BatchMetadataUpdateE4from0Bg_
FNDA:0,_RINvMNtNtNtNtCsa86sUp9HUqm_19openzeppelin_stylus5token6erc72110extensions11uri_storageNtB3_16Erc721UriStorage9token_uripEBb_
FNDA:0,_RINvMNtNtNtNtCsa86sUp9HUqm_19openzeppelin_stylus5token6erc72110extensions11uri_storageNtB3_16Erc721UriStorage9token_uriNtB7_6Erc721ECshLDj1MwUje2_23erc721_metadata_example
FNDA:0,_RINvMNtNtNtNtCsa86sUp9HUqm_19openzeppelin_stylus5token6erc72110extensions11uri_storageNtB3_16Erc721UriStorage9token_uriNtB7_6Erc721ECsil9SubT3BB5_23erc721_metadata_example
FNDA:2,_RINvMNtNtNtNtCs6vaqcEMrLsG_19openzeppelin_stylus5token6erc72110extensions11uri_storageNtB3_16Erc721UriStorage9token_uriNtB7_6Erc721EBb_
FNDA:0,_RNvXs_NvNtNtNtNtCs6vaqcEMrLsG_19openzeppelin_stylus5token6erc72110extensions11uri_storage1__NtNtCs9yoxqfta9I2_16alloy_primitives3log7LogDataINtNtCshuVUGNokh5j_4core7convert4FromRNtB6_14MetadataUpdateE4fromBe_
FNDA:0,_RNCNvXs_NvNtNtNtNtCs6vaqcEMrLsG_19openzeppelin_stylus5token6erc72110extensions11uri_storage1__NtNtCs9yoxqfta9I2_16alloy_primitives3log7LogDataINtNtCshuVUGNokh5j_4core7convert4FromRNtB8_14MetadataUpdateE4from0Bg_
FNDA:0,_RNvXs_NvNtNtNtNtCs6vaqcEMrLsG_19openzeppelin_stylus5token6erc72110extensions11uri_storages_1__NtNtCs9yoxqfta9I2_16alloy_primitives3log7LogDataINtNtCshuVUGNokh5j_4core7convert4FromRNtB6_19BatchMetadataUpdateE4fromBe_
FNDA:0,_RNCNvXs_NvNtNtNtNtCs6vaqcEMrLsG_19openzeppelin_stylus5token6erc72110extensions11uri_storages_1__NtNtCs9yoxqfta9I2_16alloy_primitives3log7LogDataINtNtCshuVUGNokh5j_4core7convert4FromRNtB8_19BatchMetadataUpdateE4from0Bg_
FNDA:0,_RNvMs1_NtNtNtNtCs6vaqcEMrLsG_19openzeppelin_stylus5token6erc72110extensions11uri_storageNtB5_16Erc721UriStorage14required_slots
FNDA:0,_RNvXs2_NtNtNtNtCs6vaqcEMrLsG_19openzeppelin_stylus5token6erc72110extensions11uri_storageNtB5_16Erc721UriStorageNtNtNtCs8c3p7fi1c1U_10stylus_sdk7storage6traits11StorageType4load
FNDA:0,_RNvXs2_NtNtNtNtCs6vaqcEMrLsG_19openzeppelin_stylus5token6erc72110extensions11uri_storageNtB5_16Erc721UriStorageNtNtNtCs8c3p7fi1c1U_10stylus_sdk7storage6traits11StorageType8load_mut
FNDA:0,_RNvMNtNtNtNtNtCs6vaqcEMrLsG_19openzeppelin_stylus5token6erc72110extensions11uri_storage5testsNtB2_21Erc721MetadataExample14required_slots
FNDA:0,_RNvXs_NtNtNtNtNtCs6vaqcEMrLsG_19openzeppelin_stylus5token6erc72110extensions11uri_storage5testsNtB4_21Erc721MetadataExampleNtNtNtCs8c3p7fi1c1U_10stylus_sdk7storage6traits11StorageType4load
FNDA:0,_RNvXs_NtNtNtNtNtCs6vaqcEMrLsG_19openzeppelin_stylus5token6erc72110extensions11uri_storage5testsNtB4_21Erc721MetadataExampleNtNtNtCs8c3p7fi1c1U_10stylus_sdk7storage6traits11StorageType8load_mut
FNDA:2,_RNvNtNtNtNtNtCs6vaqcEMrLsG_19openzeppelin_stylus5token6erc72110extensions11uri_storage5tests15random_token_id
FNDA:2,_RNvXs_NtNtNtNtNtCs6vaqcEMrLsG_19openzeppelin_stylus5token6erc72110extensions11uri_storage5testsNtB4_21Erc721MetadataExampleNtNtNtCs8c3p7fi1c1U_10stylus_sdk7storage6traits11StorageType3new
FNDA:1,_RNvNtNtNtNtNtCs6vaqcEMrLsG_19openzeppelin_stylus5token6erc72110extensions11uri_storage5testss_19get_token_uri_works
FNDA:1,_RNvNtNtNtNtNtCs6vaqcEMrLsG_19openzeppelin_stylus5token6erc72110extensions11uri_storage5testss_19set_token_uri_works
FNDA:1,_RNvMNtNtNtNtCs6vaqcEMrLsG_19openzeppelin_stylus5token6erc72110extensions11uri_storageNtB2_16Erc721UriStorage14__set_token_uri
FNDA:2,_RNvXs2_NtNtNtNtCs6vaqcEMrLsG_19openzeppelin_stylus5token6erc72110extensions11uri_storageNtB5_16Erc721UriStorageNtNtNtCs8c3p7fi1c1U_10stylus_sdk7storage6traits11StorageType3new
FNF:11
FNH:7
DA:12,0
DA:13,0
DA:14,0
DA:15,0
DA:16,0
DA:17,0
DA:18,0
DA:19,0
DA:20,0
DA:21,0
DA:22,0
DA:23,0
DA:24,0
DA:25,0
DA:27,0
DA:28,0
DA:29,0
DA:30,0
DA:31,0
DA:32,0
DA:33,2
DA:46,1
DA:47,1
DA:48,1
DA:49,1
DA:79,2
DA:80,2
DA:81,2
DA:82,2
DA:83,2
DA:84,2
DA:85,2
DA:87,2
DA:88,2
DA:89,2
DA:90,2
DA:91,2
DA:92,2
DA:93,0
DA:96,0
DA:97,0
DA:99,0
DA:102,0
DA:103,2
DA:114,2
DA:115,2
DA:116,2
DA:117,2
DA:119,0
DA:120,0
DA:121,0
DA:122,0
DA:123,0
DA:124,0
DA:125,2
DA:127,1
DA:154,1
BRF:0
BRH:0
LF:60
LH:26
end_of_record
SF:/home/nenad/repos/rust-contracts-stylus/contracts/src/token/erc721/mod.rs
FN:129,_RNvXsu_NtNtCsa86sUp9HUqm_19openzeppelin_stylus5token6erc721INtNtCsdDMkpvQxPWz_5alloc3vec3VechEINtNtCshuVUGNokh5j_4core7convert4FromNtB5_5ErrorE4from
FN:56,_RNvXs_NvNtNtCsa86sUp9HUqm_19openzeppelin_stylus5token6erc7211__NtNtCs9yoxqfta9I2_16alloy_primitives3log7LogDataINtNtCshuVUGNokh5j_4core7convert4FromRNtB6_8TransferE4fromBa_
FN:21,_RNCNvXs_NvNtNtCsa86sUp9HUqm_19openzeppelin_stylus5token6erc7211__NtNtCs9yoxqfta9I2_16alloy_primitives3log7LogDataINtNtCshuVUGNokh5j_4core7convert4FromRNtB8_8TransferE4from0Bc_
FN:56,_RNvXs_NvNtNtCsa86sUp9HUqm_19openzeppelin_stylus5token6erc721s_1__NtNtCs9yoxqfta9I2_16alloy_primitives3log7LogDataINtNtCshuVUGNokh5j_4core7convert4FromRNtB6_8ApprovalE4fromBa_
FN:21,_RNCNvXs_NvNtNtCsa86sUp9HUqm_19openzeppelin_stylus5token6erc721s_1__NtNtCs9yoxqfta9I2_16alloy_primitives3log7LogDataINtNtCshuVUGNokh5j_4core7convert4FromRNtB8_8ApprovalE4from0Bc_
FN:56,_RNvXs_NvNtNtCsa86sUp9HUqm_19openzeppelin_stylus5token6erc721s0_1__NtNtCs9yoxqfta9I2_16alloy_primitives3log7LogDataINtNtCshuVUGNokh5j_4core7convert4FromRNtB6_14ApprovalForAllE4fromBa_
FN:21,_RNCNvXs_NvNtNtCsa86sUp9HUqm_19openzeppelin_stylus5token6erc721s0_1__NtNtCs9yoxqfta9I2_16alloy_primitives3log7LogDataINtNtCshuVUGNokh5j_4core7convert4FromRNtB8_14ApprovalForAllE4from0Bc_
FN:166,_RNvXs1_NtNtNtCsa86sUp9HUqm_19openzeppelin_stylus5token6erc7218receiverNtB5_15IERC721ReceiverINtNtCslo5yAywcNl4_15alloy_sol_types7private12SolTypeValueB16_E13stv_to_tokensBb_
FN:166,_RNvXs1_NtNtNtCsa86sUp9HUqm_19openzeppelin_stylus5token6erc7218receiverNtB5_15IERC721ReceiverINtNtCslo5yAywcNl4_15alloy_sol_types7private12SolTypeValueB16_E20stv_abi_encoded_sizeBb_
FN:166,_RNvXs1_NtNtNtCsa86sUp9HUqm_19openzeppelin_stylus5token6erc7218receiverNtB5_15IERC721ReceiverINtNtCslo5yAywcNl4_15alloy_sol_types7private12SolTypeValueB16_E20stv_eip712_data_wordBb_
FN:166,_RNvXs1_NtNtNtCsa86sUp9HUqm_19openzeppelin_stylus5token6erc7218receiverNtB5_15IERC721ReceiverINtNtCslo5yAywcNl4_15alloy_sol_types7private12SolTypeValueB16_E24stv_abi_encode_packed_toBb_
FN:475,_RNvXININtNtCsa86sUp9HUqm_19openzeppelin_stylus5token6erc721sz_0pENtB5_6Erc721INtNtCs8c3p7fi1c1U_10stylus_sdk3abi6RouterpE5routeB9_
FN:158,_RNvXNtNtCsa86sUp9HUqm_19openzeppelin_stylus5token6erc721NtB2_5ErrorNtNtNtCs8c3p7fi1c1U_10stylus_sdk4call5error11MethodError6encode
FN:561,_RNvXs0_NtNtCsa86sUp9HUqm_19openzeppelin_stylus5token6erc721NtB5_6Erc721NtNtNtNtB9_5utils13introspection6erc1657IErc16518supports_interface
FN:583,_RNvMs1_NtNtCsa86sUp9HUqm_19openzeppelin_stylus5token6erc721NtB5_6Erc7219__owner_of
FN:595,_RNvMs1_NtNtCsa86sUp9HUqm_19openzeppelin_stylus5token6erc721NtB5_6Erc72113__get_approved
FN:612,_RNvMs1_NtNtCsa86sUp9HUqm_19openzeppelin_stylus5token6erc721NtB5_6Erc72114__is_authorized
FN:645,_RNvMs1_NtNtCsa86sUp9HUqm_19openzeppelin_stylus5token6erc721NtB5_6Erc72117__check_authorized
FN:680,_RNvMs1_NtNtCsa86sUp9HUqm_19openzeppelin_stylus5token6erc721NtB5_6Erc72117__increase_balance
FN:713,_RNvMs1_NtNtCsa86sUp9HUqm_19openzeppelin_stylus5token6erc721NtB5_6Erc7217__update
FN:769,_RNvMs1_NtNtCsa86sUp9HUqm_19openzeppelin_stylus5token6erc721NtB5_6Erc7215__mint
FN:817,_RNvMs1_NtNtCsa86sUp9HUqm_19openzeppelin_stylus5token6erc721NtB5_6Erc72110__safe_mint
FN:856,_RNvMs1_NtNtCsa86sUp9HUqm_19openzeppelin_stylus5token6erc721NtB5_6Erc7215__burn
FN:894,_RNvMs1_NtNtCsa86sUp9HUqm_19openzeppelin_stylus5token6erc721NtB5_6Erc7219__transfer
FN:962,_RNvMs1_NtNtCsa86sUp9HUqm_19openzeppelin_stylus5token6erc721NtB5_6Erc72114__safe_transfer
FN:997,_RNvMs1_NtNtCsa86sUp9HUqm_19openzeppelin_stylus5token6erc721NtB5_6Erc7218__approve
FN:1047,_RNvMs1_NtNtCsa86sUp9HUqm_19openzeppelin_stylus5token6erc721NtB5_6Erc72121__set_approval_for_all
FN:1077,_RNvMs1_NtNtCsa86sUp9HUqm_19openzeppelin_stylus5token6erc721NtB5_6Erc72114__require_owned
FN:1110,_RNvMs1_NtNtCsa86sUp9HUqm_19openzeppelin_stylus5token6erc721NtB5_6Erc72125__check_on_erc721_received
FN:129,_RNvXsl_NtNtCsa86sUp9HUqm_19openzeppelin_stylus5token6erc721NtB5_5ErrorINtNtCshuVUGNokh5j_4core7convert4FromNtB5_18ERC721InvalidOwnerE4from
FN:129,_RNvXsm_NtNtCsa86sUp9HUqm_19openzeppelin_stylus5token6erc721NtB5_5ErrorINtNtCshuVUGNokh5j_4core7convert4FromNtB5_22ERC721NonexistentTokenE4from
FN:129,_RNvXsn_NtNtCsa86sUp9HUqm_19openzeppelin_stylus5token6erc721NtB5_5ErrorINtNtCshuVUGNokh5j_4core7convert4FromNtB5_20ERC721IncorrectOwnerE4from
FN:129,_RNvXso_NtNtCsa86sUp9HUqm_19openzeppelin_stylus5token6erc721NtB5_5ErrorINtNtCshuVUGNokh5j_4core7convert4FromNtB5_19ERC721InvalidSenderE4from
FN:129,_RNvXsp_NtNtCsa86sUp9HUqm_19openzeppelin_stylus5token6erc721NtB5_5ErrorINtNtCshuVUGNokh5j_4core7convert4FromNtB5_21ERC721InvalidReceiverE4from
FN:129,_RNvXsq_NtNtCsa86sUp9HUqm_19openzeppelin_stylus5token6erc721NtB5_5ErrorINtNtCshuVUGNokh5j_4core7convert4FromNtNtNtCs8c3p7fi1c1U_10stylus_sdk4call5error5ErrorE4from
FN:129,_RNvXsr_NtNtCsa86sUp9HUqm_19openzeppelin_stylus5token6erc721NtB5_5ErrorINtNtCshuVUGNokh5j_4core7convert4FromNtB5_26ERC721InsufficientApprovalE4from
FN:129,_RNvXss_NtNtCsa86sUp9HUqm_19openzeppelin_stylus5token6erc721NtB5_5ErrorINtNtCshuVUGNokh5j_4core7convert4FromNtB5_21ERC721InvalidApproverE4from
FN:129,_RNvXst_NtNtCsa86sUp9HUqm_19openzeppelin_stylus5token6erc721NtB5_5ErrorINtNtCshuVUGNokh5j_4core7convert4FromNtB5_21ERC721InvalidOperatorE4from
FN:201,_RNvMsw_NtNtCsa86sUp9HUqm_19openzeppelin_stylus5token6erc721NtB5_6Erc72114required_slots
FN:201,_RNvXsx_NtNtCsa86sUp9HUqm_19openzeppelin_stylus5token6erc721NtB5_6Erc721NtNtNtCs8c3p7fi1c1U_10stylus_sdk7storage6traits11StorageType3new
FN:189,_RNvXsx_NtNtCsa86sUp9HUqm_19openzeppelin_stylus5token6erc721NtB5_6Erc721NtNtNtCs8c3p7fi1c1U_10stylus_sdk7storage6traits11StorageType4load
FN:189,_RNvXsx_NtNtCsa86sUp9HUqm_19openzeppelin_stylus5token6erc721NtB5_6Erc721NtNtNtCs8c3p7fi1c1U_10stylus_sdk7storage6traits11StorageType8load_mut
FN:479,_RNvXsy_NtNtCsa86sUp9HUqm_19openzeppelin_stylus5token6erc721NtB5_6Erc721NtB5_7IErc72110balance_of
FN:486,_RNvXsy_NtNtCsa86sUp9HUqm_19openzeppelin_stylus5token6erc721NtB5_6Erc721NtB5_7IErc7218owner_of
FN:490,_RNvXsy_NtNtCsa86sUp9HUqm_19openzeppelin_stylus5token6erc721NtB5_6Erc721NtB5_7IErc72118safe_transfer_from
FN:500,_RNvXsy_NtNtCsa86sUp9HUqm_19openzeppelin_stylus5token6erc721NtB5_6Erc721NtB5_7IErc72128safe_transfer_from_with_data
FN:511,_RNvXsy_NtNtCsa86sUp9HUqm_19openzeppelin_stylus5token6erc721NtB5_6Erc721NtB5_7IErc72113transfer_from
FN:538,_RNvXsy_NtNtCsa86sUp9HUqm_19openzeppelin_stylus5token6erc721NtB5_6Erc721NtB5_7IErc7217approve
FN:542,_RNvXsy_NtNtCsa86sUp9HUqm_19openzeppelin_stylus5token6erc721NtB5_6Erc721NtB5_7IErc72120set_approval_for_all
FN:550,_RNvXsy_NtNtCsa86sUp9HUqm_19openzeppelin_stylus5token6erc721NtB5_6Erc721NtB5_7IErc72112get_approved
FN:555,_RNvXsy_NtNtCsa86sUp9HUqm_19openzeppelin_stylus5token6erc721NtB5_6Erc721NtB5_7IErc72119is_approved_for_all
FN:475,_RNvMsA_NtNtCsa86sUp9HUqm_19openzeppelin_stylus5token6erc721NtB5_6Erc72123___stylus_allow_override
FN:475,_RNvMsA_NtNtCsa86sUp9HUqm_19openzeppelin_stylus5token6erc721NtB5_6Erc72125___stylus_assert_overrides
FN:186,_RINvMNtNtNtCsa86sUp9HUqm_19openzeppelin_stylus5token6erc7218receiverNtB3_15IERC721Receiver19on_erc_721_receivedINtNtNtCs8c3p7fi1c1U_10stylus_sdk4call7context4CallQNtB5_6Erc721EEB9_
FN:166,_RNvMNtNtNtCsa86sUp9HUqm_19openzeppelin_stylus5token6erc7218receiverNtB2_15IERC721Receiver3new
FN:166,_RNvXs_NtNtNtCsa86sUp9HUqm_19openzeppelin_stylus5token6erc7218receiverNtB4_15IERC721ReceiverNtNtNtCshuVUGNokh5j_4core3ops5deref5Deref5deref
FN:166,_RNvXs2_NtNtNtCsa86sUp9HUqm_19openzeppelin_stylus5token6erc7218receiverNtB5_15IERC721ReceiverNtNtNtCslo5yAywcNl4_15alloy_sol_types5types2ty7SolType11valid_token
FN:166,_RNvXs2_NtNtNtCsa86sUp9HUqm_19openzeppelin_stylus5token6erc7218receiverNtB5_15IERC721ReceiverNtNtNtCslo5yAywcNl4_15alloy_sol_types5types2ty7SolType10detokenize
FN:475,_RNvXsz_NtNtCsa86sUp9HUqm_19openzeppelin_stylus5token6erc721NtB5_6Erc721INtNtCs8c3p7fi1c1U_10stylus_sdk3abi6RouterNtCsbY8cRU9egOl_14erc721_example13Erc721ExampleE5routeB1P_
FN:475,_RNvXsz_NtNtCsa86sUp9HUqm_19openzeppelin_stylus5token6erc721NtB5_6Erc721INtNtCs8c3p7fi1c1U_10stylus_sdk3abi6RouterNtCshLDj1MwUje2_23erc721_metadata_example21Erc721MetadataExampleE5routeB1P_
FN:475,_RNvXsz_NtNtCsa86sUp9HUqm_19openzeppelin_stylus5token6erc721NtB5_6Erc721INtNtCs8c3p7fi1c1U_10stylus_sdk3abi6RouterNtCslXfu2eZ1Tt1_14erc721_example13Erc721ExampleE5routeB1P_
FN:475,_RNvXsz_NtNtCsa86sUp9HUqm_19openzeppelin_stylus5token6erc721NtB5_6Erc721INtNtCs8c3p7fi1c1U_10stylus_sdk3abi6RouterNtCsil9SubT3BB5_23erc721_metadata_example21Erc721MetadataExampleE5routeB1P_
FN:583,_RNvMs1_NtNtCs6vaqcEMrLsG_19openzeppelin_stylus5token6erc721NtB5_6Erc7219__owner_of
FN:595,_RNvMs1_NtNtCs6vaqcEMrLsG_19openzeppelin_stylus5token6erc721NtB5_6Erc72113__get_approved
FN:612,_RNvMs1_NtNtCs6vaqcEMrLsG_19openzeppelin_stylus5token6erc721NtB5_6Erc72114__is_authorized
FN:645,_RNvMs1_NtNtCs6vaqcEMrLsG_19openzeppelin_stylus5token6erc721NtB5_6Erc72117__check_authorized
FN:680,_RNvMs1_NtNtCs6vaqcEMrLsG_19openzeppelin_stylus5token6erc721NtB5_6Erc72117__increase_balance
FN:713,_RNvMs1_NtNtCs6vaqcEMrLsG_19openzeppelin_stylus5token6erc721NtB5_6Erc7217__update
FN:769,_RNvMs1_NtNtCs6vaqcEMrLsG_19openzeppelin_stylus5token6erc721NtB5_6Erc7215__mint
FN:817,_RNvMs1_NtNtCs6vaqcEMrLsG_19openzeppelin_stylus5token6erc721NtB5_6Erc72110__safe_mint
FN:856,_RNvMs1_NtNtCs6vaqcEMrLsG_19openzeppelin_stylus5token6erc721NtB5_6Erc7215__burn
FN:894,_RNvMs1_NtNtCs6vaqcEMrLsG_19openzeppelin_stylus5token6erc721NtB5_6Erc7219__transfer
FN:962,_RNvMs1_NtNtCs6vaqcEMrLsG_19openzeppelin_stylus5token6erc721NtB5_6Erc72114__safe_transfer
FN:997,_RNvMs1_NtNtCs6vaqcEMrLsG_19openzeppelin_stylus5token6erc721NtB5_6Erc7218__approve
FN:1047,_RNvMs1_NtNtCs6vaqcEMrLsG_19openzeppelin_stylus5token6erc721NtB5_6Erc72121__set_approval_for_all
FN:1077,_RNvMs1_NtNtCs6vaqcEMrLsG_19openzeppelin_stylus5token6erc721NtB5_6Erc72114__require_owned
FN:1110,_RNvMs1_NtNtCs6vaqcEMrLsG_19openzeppelin_stylus5token6erc721NtB5_6Erc72125__check_on_erc721_received
FN:129,_RNvXsl_NtNtCs6vaqcEMrLsG_19openzeppelin_stylus5token6erc721NtB5_5ErrorINtNtCshuVUGNokh5j_4core7convert4FromNtB5_18ERC721InvalidOwnerE4from
FN:129,_RNvXsm_NtNtCs6vaqcEMrLsG_19openzeppelin_stylus5token6erc721NtB5_5ErrorINtNtCshuVUGNokh5j_4core7convert4FromNtB5_22ERC721NonexistentTokenE4from
FN:129,_RNvXsn_NtNtCs6vaqcEMrLsG_19openzeppelin_stylus5token6erc721NtB5_5ErrorINtNtCshuVUGNokh5j_4core7convert4FromNtB5_20ERC721IncorrectOwnerE4from
FN:129,_RNvXso_NtNtCs6vaqcEMrLsG_19openzeppelin_stylus5token6erc721NtB5_5ErrorINtNtCshuVUGNokh5j_4core7convert4FromNtB5_19ERC721InvalidSenderE4from
FN:129,_RNvXsp_NtNtCs6vaqcEMrLsG_19openzeppelin_stylus5token6erc721NtB5_5ErrorINtNtCshuVUGNokh5j_4core7convert4FromNtB5_21ERC721InvalidReceiverE4from
FN:129,_RNvXsr_NtNtCs6vaqcEMrLsG_19openzeppelin_stylus5token6erc721NtB5_5ErrorINtNtCshuVUGNokh5j_4core7convert4FromNtB5_26ERC721InsufficientApprovalE4from
FN:129,_RNvXss_NtNtCs6vaqcEMrLsG_19openzeppelin_stylus5token6erc721NtB5_5ErrorINtNtCshuVUGNokh5j_4core7convert4FromNtB5_21ERC721InvalidApproverE4from
FN:129,_RNvXst_NtNtCs6vaqcEMrLsG_19openzeppelin_stylus5token6erc721NtB5_5ErrorINtNtCshuVUGNokh5j_4core7convert4FromNtB5_21ERC721InvalidOperatorE4from
FN:201,_RNvXsx_NtNtCs6vaqcEMrLsG_19openzeppelin_stylus5token6erc721NtB5_6Erc721NtNtNtCs8c3p7fi1c1U_10stylus_sdk7storage6traits11StorageType3new
FN:479,_RNvXsy_NtNtCs6vaqcEMrLsG_19openzeppelin_stylus5token6erc721NtB5_6Erc721NtB5_7IErc72110balance_of
FN:486,_RNvXsy_NtNtCs6vaqcEMrLsG_19openzeppelin_stylus5token6erc721NtB5_6Erc721NtB5_7IErc7218owner_of
FN:490,_RNvXsy_NtNtCs6vaqcEMrLsG_19openzeppelin_stylus5token6erc721NtB5_6Erc721NtB5_7IErc72118safe_transfer_from
FN:500,_RNvXsy_NtNtCs6vaqcEMrLsG_19openzeppelin_stylus5token6erc721NtB5_6Erc721NtB5_7IErc72128safe_transfer_from_with_data
FN:511,_RNvXsy_NtNtCs6vaqcEMrLsG_19openzeppelin_stylus5token6erc721NtB5_6Erc721NtB5_7IErc72113transfer_from
FN:538,_RNvXsy_NtNtCs6vaqcEMrLsG_19openzeppelin_stylus5token6erc721NtB5_6Erc721NtB5_7IErc7217approve
FN:542,_RNvXsy_NtNtCs6vaqcEMrLsG_19openzeppelin_stylus5token6erc721NtB5_6Erc721NtB5_7IErc72120set_approval_for_all
FN:550,_RNvXsy_NtNtCs6vaqcEMrLsG_19openzeppelin_stylus5token6erc721NtB5_6Erc721NtB5_7IErc72112get_approved
FN:555,_RNvXsy_NtNtCs6vaqcEMrLsG_19openzeppelin_stylus5token6erc721NtB5_6Erc721NtB5_7IErc72119is_approved_for_all
FN:56,_RNvXs_NvNtNtCs6vaqcEMrLsG_19openzeppelin_stylus5token6erc7211__NtNtCs9yoxqfta9I2_16alloy_primitives3log7LogDataINtNtCshuVUGNokh5j_4core7convert4FromRNtB6_8TransferE4fromBa_
FN:21,_RNCNvXs_NvNtNtCs6vaqcEMrLsG_19openzeppelin_stylus5token6erc7211__NtNtCs9yoxqfta9I2_16alloy_primitives3log7LogDataINtNtCshuVUGNokh5j_4core7convert4FromRNtB8_8TransferE4from0Bc_
FN:56,_RNvXs_NvNtNtCs6vaqcEMrLsG_19openzeppelin_stylus5token6erc721s_1__NtNtCs9yoxqfta9I2_16alloy_primitives3log7LogDataINtNtCshuVUGNokh5j_4core7convert4FromRNtB6_8ApprovalE4fromBa_
FN:21,_RNCNvXs_NvNtNtCs6vaqcEMrLsG_19openzeppelin_stylus5token6erc721s_1__NtNtCs9yoxqfta9I2_16alloy_primitives3log7LogDataINtNtCshuVUGNokh5j_4core7convert4FromRNtB8_8ApprovalE4from0Bc_
FN:56,_RNvXs_NvNtNtCs6vaqcEMrLsG_19openzeppelin_stylus5token6erc721s0_1__NtNtCs9yoxqfta9I2_16alloy_primitives3log7LogDataINtNtCshuVUGNokh5j_4core7convert4FromRNtB6_14ApprovalForAllE4fromBa_
FN:21,_RNCNvXs_NvNtNtCs6vaqcEMrLsG_19openzeppelin_stylus5token6erc721s0_1__NtNtCs9yoxqfta9I2_16alloy_primitives3log7LogDataINtNtCshuVUGNokh5j_4core7convert4FromRNtB8_14ApprovalForAllE4from0Bc_
FN:58,_RNvNvNtNtCs6vaqcEMrLsG_19openzeppelin_stylus5token6erc721s1_1__15__type_assertion
FN:58,_RNvNvNtNtCs6vaqcEMrLsG_19openzeppelin_stylus5token6erc721s2_1__15__type_assertion
FN:58,_RNvNvNtNtCs6vaqcEMrLsG_19openzeppelin_stylus5token6erc721s3_1__15__type_assertion
FN:58,_RNvNvNtNtCs6vaqcEMrLsG_19openzeppelin_stylus5token6erc721s4_1__15__type_assertion
FN:58,_RNvNvNtNtCs6vaqcEMrLsG_19openzeppelin_stylus5token6erc721s5_1__15__type_assertion
FN:58,_RNvNvNtNtCs6vaqcEMrLsG_19openzeppelin_stylus5token6erc721s6_1__15__type_assertion
FN:58,_RNvNvNtNtCs6vaqcEMrLsG_19openzeppelin_stylus5token6erc721s7_1__15__type_assertion
FN:58,_RNvNvNtNtCs6vaqcEMrLsG_19openzeppelin_stylus5token6erc721s8_1__15__type_assertion
FN:129,_RNvXsq_NtNtCs6vaqcEMrLsG_19openzeppelin_stylus5token6erc721NtB5_5ErrorINtNtCshuVUGNokh5j_4core7convert4FromNtNtNtCs8c3p7fi1c1U_10stylus_sdk4call5error5ErrorE4from
FN:129,_RNvXsu_NtNtCs6vaqcEMrLsG_19openzeppelin_stylus5token6erc721INtNtCsdDMkpvQxPWz_5alloc3vec3VechEINtNtCshuVUGNokh5j_4core7convert4FromNtB5_5ErrorE4from
FN:158,_RNvXNtNtCs6vaqcEMrLsG_19openzeppelin_stylus5token6erc721NtB2_5ErrorNtNtNtCs8c3p7fi1c1U_10stylus_sdk4call5error11MethodError6encode
FN:166,_RNvXs_NtNtNtCs6vaqcEMrLsG_19openzeppelin_stylus5token6erc7218receiverNtB4_15IERC721ReceiverNtNtNtCshuVUGNokh5j_4core3ops5deref5Deref5deref
FN:166,_RNvXs1_NtNtNtCs6vaqcEMrLsG_19openzeppelin_stylus5token6erc7218receiverNtB5_15IERC721ReceiverINtNtCslo5yAywcNl4_15alloy_sol_types7private12SolTypeValueB16_E13stv_to_tokensBb_
FN:166,_RNvXs1_NtNtNtCs6vaqcEMrLsG_19openzeppelin_stylus5token6erc7218receiverNtB5_15IERC721ReceiverINtNtCslo5yAywcNl4_15alloy_sol_types7private12SolTypeValueB16_E20stv_abi_encoded_sizeBb_
FN:166,_RNvXs1_NtNtNtCs6vaqcEMrLsG_19openzeppelin_stylus5token6erc7218receiverNtB5_15IERC721ReceiverINtNtCslo5yAywcNl4_15alloy_sol_types7private12SolTypeValueB16_E20stv_eip712_data_wordBb_
FN:166,_RNvXs1_NtNtNtCs6vaqcEMrLsG_19openzeppelin_stylus5token6erc7218receiverNtB5_15IERC721ReceiverINtNtCslo5yAywcNl4_15alloy_sol_types7private12SolTypeValueB16_E24stv_abi_encode_packed_toBb_
FN:166,_RNvXs2_NtNtNtCs6vaqcEMrLsG_19openzeppelin_stylus5token6erc7218receiverNtB5_15IERC721ReceiverNtNtNtCslo5yAywcNl4_15alloy_sol_types5types2ty7SolType11valid_token
FN:166,_RNvXs2_NtNtNtCs6vaqcEMrLsG_19openzeppelin_stylus5token6erc7218receiverNtB5_15IERC721ReceiverNtNtNtCslo5yAywcNl4_15alloy_sol_types5types2ty7SolType10detokenize
FN:201,_RNvMsw_NtNtCs6vaqcEMrLsG_19openzeppelin_stylus5token6erc721NtB5_6Erc72114required_slots
FN:189,_RNvXsx_NtNtCs6vaqcEMrLsG_19openzeppelin_stylus5token6erc721NtB5_6Erc721NtNtNtCs8c3p7fi1c1U_10stylus_sdk7storage6traits11StorageType4load
FN:189,_RNvXsx_NtNtCs6vaqcEMrLsG_19openzeppelin_stylus5token6erc721NtB5_6Erc721NtNtNtCs8c3p7fi1c1U_10stylus_sdk7storage6traits11StorageType8load_mut
FN:475,_RNvXININtNtCs6vaqcEMrLsG_19openzeppelin_stylus5token6erc721sz_0pENtB5_6Erc721INtNtCs8c3p7fi1c1U_10stylus_sdk3abi6RouterpE5routeB9_
FN:475,_RNvMsA_NtNtCs6vaqcEMrLsG_19openzeppelin_stylus5token6erc721NtB5_6Erc72123___stylus_allow_override
FN:475,_RNvMsA_NtNtCs6vaqcEMrLsG_19openzeppelin_stylus5token6erc721NtB5_6Erc72125___stylus_assert_overrides
FN:561,_RNvXs0_NtNtCs6vaqcEMrLsG_19openzeppelin_stylus5token6erc721NtB5_6Erc721NtNtNtNtB9_5utils13introspection6erc1657IErc16518supports_interface
FN:166,_RNvMNtNtNtCs6vaqcEMrLsG_19openzeppelin_stylus5token6erc7218receiverNtB2_15IERC721Receiver3new
FN:1173,_RNvNtNtNtCs6vaqcEMrLsG_19openzeppelin_stylus5token6erc7215tests15random_token_id
FN:1178,_RNvNtNtNtCs6vaqcEMrLsG_19openzeppelin_stylus5token6erc7215testss_44error_when_checking_balance_of_invalid_owner
FN:1190,_RNvNtNtNtCs6vaqcEMrLsG_19openzeppelin_stylus5token6erc7215testss_23balance_of_zero_balance
FN:1198,_RNvNtNtNtCs6vaqcEMrLsG_19openzeppelin_stylus5token6erc7215testss_46error_when_checking_owner_of_nonexistent_token
FN:1214,_RNvNtNtNtCs6vaqcEMrLsG_19openzeppelin_stylus5token6erc7215testss_5mints
FN:1236,_RNvNtNtNtCs6vaqcEMrLsG_19openzeppelin_stylus5token6erc7215testss_33error_when_minting_token_id_twice
FN:1253,_RNvNtNtNtCs6vaqcEMrLsG_19openzeppelin_stylus5token6erc7215testss_41error_when_minting_token_invalid_receiver
FN:1271,_RNvNtNtNtCs6vaqcEMrLsG_19openzeppelin_stylus5token6erc7215testss_10safe_mints
FN:1296,_RNvNtNtNtCs6vaqcEMrLsG_19openzeppelin_stylus5token6erc7215testss_35error_when_safe_mint_token_id_twice
FN:1314,_RNvNtNtNtCs6vaqcEMrLsG_19openzeppelin_stylus5token6erc7215testss_37error_when_safe_mint_invalid_receiver
FN:1332,_RNvNtNtNtCs6vaqcEMrLsG_19openzeppelin_stylus5token6erc7215testss_14transfers_from
FN:1346,_RNvNtNtNtCs6vaqcEMrLsG_19openzeppelin_stylus5token6erc7215testss_29transfers_from_approved_token
FN:1361,_RNvNtNtNtCs6vaqcEMrLsG_19openzeppelin_stylus5token6erc7215testss_31transfers_from_approved_for_all
FN:1383,_RNvNtNtNtCs6vaqcEMrLsG_19openzeppelin_stylus5token6erc7215testss_54error_when_transfer_from_transfers_to_invalid_receiver
FN:1410,_RNvNtNtNtCs6vaqcEMrLsG_19openzeppelin_stylus5token6erc7215testss_55error_when_transfer_from_transfers_from_incorrect_owner
FN:1438,_RNvNtNtNtCs6vaqcEMrLsG_19openzeppelin_stylus5token6erc7215testss_61error_when_transfer_from_transfers_with_insufficient_approval
FN:1457,_RNvNtNtNtCs6vaqcEMrLsG_19openzeppelin_stylus5token6erc7215testss_52error_when_transfer_from_transfers_nonexistent_token
FN:1472,_RNvNtNtNtCs6vaqcEMrLsG_19openzeppelin_stylus5token6erc7215testss_19safe_transfers_from
FN:1489,_RNvNtNtNtCs6vaqcEMrLsG_19openzeppelin_stylus5token6erc7215testss_34safe_transfers_from_approved_token
FN:1504,_RNvNtNtNtCs6vaqcEMrLsG_19openzeppelin_stylus5token6erc7215testss_36safe_transfers_from_approved_for_all
FN:1526,_RNvNtNtNtCs6vaqcEMrLsG_19openzeppelin_stylus5token6erc7215testss_44error_when_safe_transfer_to_invalid_receiver
FN:1551,_RNvNtNtNtCs6vaqcEMrLsG_19openzeppelin_stylus5token6erc7215testss_60error_when_safe_transfer_from_transfers_from_incorrect_owner
FN:1579,_RNvNtNtNtCs6vaqcEMrLsG_19openzeppelin_stylus5token6erc7215testss_66error_when_safe_transfer_from_transfers_with_insufficient_approval
FN:1598,_RNvNtNtNtCs6vaqcEMrLsG_19openzeppelin_stylus5token6erc7215testss_57error_when_safe_transfer_from_transfers_nonexistent_token
FN:1615,_RNvNtNtNtCs6vaqcEMrLsG_19openzeppelin_stylus5token6erc7215testss_29safe_transfers_from_with_data
FN:1637,_RNvNtNtNtCs6vaqcEMrLsG_19openzeppelin_stylus5token6erc7215testss_44safe_transfers_from_with_data_approved_token
FN:1657,_RNvNtNtNtCs6vaqcEMrLsG_19openzeppelin_stylus5token6erc7215testss_46safe_transfers_from_with_data_approved_for_all
FN:1684,_RNvNtNtNtCs6vaqcEMrLsG_19openzeppelin_stylus5token6erc7215testss_69error_when_safe_transfer_from_with_data_transfers_to_invalid_receiver
FN:1716,_RNvNtNtNtCs6vaqcEMrLsG_19openzeppelin_stylus5token6erc7215testss_70error_when_safe_transfer_from_with_data_transfers_from_incorrect_owner
FN:1751,_RNvNtNtNtCs6vaqcEMrLsG_19openzeppelin_stylus5token6erc7215testss_76error_when_safe_transfer_from_with_data_transfers_with_insufficient_approval
FN:1775,_RNvNtNtNtCs6vaqcEMrLsG_19openzeppelin_stylus5token6erc7215testss_67error_when_safe_transfer_from_with_data_transfers_nonexistent_token
FN:1797,_RNvNtNtNtCs6vaqcEMrLsG_19openzeppelin_stylus5token6erc7215testss_8approves
FN:1808,_RNvNtNtNtCs6vaqcEMrLsG_19openzeppelin_stylus5token6erc7215testss_40error_when_approve_for_nonexistent_token
FN:1823,_RNvNtNtNtCs6vaqcEMrLsG_19openzeppelin_stylus5token6erc7215testss_38error_when_approve_by_invalid_approver
FN:1840,_RNvNtNtNtCs6vaqcEMrLsG_19openzeppelin_stylus5token6erc7215testss_16approval_for_all
FN:1856,_RNvNtNtNtCs6vaqcEMrLsG_19openzeppelin_stylus5token6erc7215testss_48error_when_approval_for_all_for_invalid_operator
FN:1872,_RNvNtNtNtCs6vaqcEMrLsG_19openzeppelin_stylus5token6erc7215testss_44error_when_get_approved_of_nonexistent_token
FN:1887,_RNvNtNtNtCs6vaqcEMrLsG_19openzeppelin_stylus5token6erc7215testss_14owner_of_works
FN:1896,_RNvNtNtNtCs6vaqcEMrLsG_19openzeppelin_stylus5token6erc7215testss_26owner_of_nonexistent_token
FN:1903,_RNvNtNtNtCs6vaqcEMrLsG_19openzeppelin_stylus5token6erc7215testss_30get_approved_nonexistent_token
FN:1910,_RNvNtNtNtCs6vaqcEMrLsG_19openzeppelin_stylus5token6erc7215testss_35get_approved_token_without_approval
FN:1920,_RNvNtNtNtCs6vaqcEMrLsG_19openzeppelin_stylus5token6erc7215testss_32get_approved_token_with_approval
FN:1934,_RNvNtNtNtCs6vaqcEMrLsG_19openzeppelin_stylus5token6erc7215testss_40get_approved_token_with_approval_for_all
FN:1948,_RNvNtNtNtCs6vaqcEMrLsG_19openzeppelin_stylus5token6erc7215testss_31is_authorized_nonexistent_token
FN:1956,_RNvNtNtNtCs6vaqcEMrLsG_19openzeppelin_stylus5token6erc7215testss_25is_authorized_token_owner
FN:1966,_RNvNtNtNtCs6vaqcEMrLsG_19openzeppelin_stylus5token6erc7215testss_30is_authorized_without_approval
FN:1976,_RNvNtNtNtCs6vaqcEMrLsG_19openzeppelin_stylus5token6erc7215testss_27is_authorized_with_approval
FN:1989,_RNvNtNtNtCs6vaqcEMrLsG_19openzeppelin_stylus5token6erc7215testss_35is_authorized_with_approval_for_all
FN:2002,_RNvNtNtNtCs6vaqcEMrLsG_19openzeppelin_stylus5token6erc7215testss_34check_authorized_nonexistent_token
FN:2018,_RNvNtNtNtCs6vaqcEMrLsG_19openzeppelin_stylus5token6erc7215testss_28check_authorized_token_owner
FN:2029,_RNvNtNtNtCs6vaqcEMrLsG_19openzeppelin_stylus5token6erc7215testss_33check_authorized_without_approval
FN:2048,_RNvNtNtNtCs6vaqcEMrLsG_19openzeppelin_stylus5token6erc7215testss_30check_authorized_with_approval
FN:2061,_RNvNtNtNtCs6vaqcEMrLsG_19openzeppelin_stylus5token6erc7215testss_38check_authorized_with_approval_for_all
FN:2074,_RNvNtNtNtCs6vaqcEMrLsG_19openzeppelin_stylus5token6erc7215testss_5burns
FN:2107,_RNvNtNtNtCs6vaqcEMrLsG_19openzeppelin_stylus5token6erc7215testss_51error_when_get_approved_of_previous_approval_burned
FN:2131,_RNvNtNtNtCs6vaqcEMrLsG_19openzeppelin_stylus5token6erc7215testss_33error_when_burn_nonexistent_token
FN:2147,_RNvNtNtNtCs6vaqcEMrLsG_19openzeppelin_stylus5token6erc7215testss_9transfers
FN:2161,_RNvNtNtNtCs6vaqcEMrLsG_19openzeppelin_stylus5token6erc7215testss_24transfers_approved_token
FN:2176,_RNvNtNtNtCs6vaqcEMrLsG_19openzeppelin_stylus5token6erc7215testss_26transfers_approved_for_all
FN:2198,_RNvNtNtNtCs6vaqcEMrLsG_19openzeppelin_stylus5token6erc7215testss_49error_when_transfer_transfers_to_invalid_receiver
FN:2223,_RNvNtNtNtCs6vaqcEMrLsG_19openzeppelin_stylus5token6erc7215testss_50error_when_transfer_transfers_from_incorrect_owner
FN:2250,_RNvNtNtNtCs6vaqcEMrLsG_19openzeppelin_stylus5token6erc7215testss_47error_when_transfer_transfers_nonexistent_token
FN:2265,_RNvNtNtNtCs6vaqcEMrLsG_19openzeppelin_stylus5token6erc7215testss_23safe_transfers_internal
FN:2282,_RNvNtNtNtCs6vaqcEMrLsG_19openzeppelin_stylus5token6erc7215testss_38safe_transfers_internal_approved_token
FN:2297,_RNvNtNtNtCs6vaqcEMrLsG_19openzeppelin_stylus5token6erc7215testss_40safe_transfers_internal_approved_for_all
FN:2319,_RNvNtNtNtCs6vaqcEMrLsG_19openzeppelin_stylus5token6erc7215testss_53error_when_internal_safe_transfer_to_invalid_receiver
FN:2349,_RNvNtNtNtCs6vaqcEMrLsG_19openzeppelin_stylus5token6erc7215testss_54error_when_internal_safe_transfer_from_incorrect_owner
FN:2377,_RNvNtNtNtCs6vaqcEMrLsG_19openzeppelin_stylus5token6erc7215testss_51error_when_internal_safe_transfer_nonexistent_token
FN:2393,_RNvNtNtNtCs6vaqcEMrLsG_19openzeppelin_stylus5token6erc7215testss_17approves_internal
FN:2404,_RNvNtNtNtCs6vaqcEMrLsG_19openzeppelin_stylus5token6erc7215testss_49error_when_approve_internal_for_nonexistent_token
FN:2419,_RNvNtNtNtCs6vaqcEMrLsG_19openzeppelin_stylus5token6erc7215testss_47error_when_approve_internal_by_invalid_approver
FN:2437,_RNvNtNtNtCs6vaqcEMrLsG_19openzeppelin_stylus5token6erc7215testss_25approval_for_all_internal
FN:2453,_RNvNtNtNtCs6vaqcEMrLsG_19openzeppelin_stylus5token6erc7215testss_57error_when_approval_for_all_internal_for_invalid_operator
FN:2471,_RNvNtNtNtCs6vaqcEMrLsG_19openzeppelin_stylus5token6erc7215testss_19require_owned_works
FN:2483,_RNvNtNtNtCs6vaqcEMrLsG_19openzeppelin_stylus5token6erc7215testss_46error_when_require_owned_for_nonexistent_token
FN:2498,_RNvNtNtNtCs6vaqcEMrLsG_19openzeppelin_stylus5token6erc7215testss_12interface_id
FN:186,_RINvMNtNtNtCs6vaqcEMrLsG_19openzeppelin_stylus5token6erc7218receiverNtB3_15IERC721Receiver19on_erc_721_receivedINtNtNtCs8c3p7fi1c1U_10stylus_sdk4call7context4CallQNtB5_6Erc721EEB9_
FNDA:0,_RNvXsu_NtNtCsa86sUp9HUqm_19openzeppelin_stylus5token6erc721INtNtCsdDMkpvQxPWz_5alloc3vec3VechEINtNtCshuVUGNokh5j_4core7convert4FromNtB5_5ErrorE4from
FNDA:0,_RNvXs_NvNtNtCsa86sUp9HUqm_19openzeppelin_stylus5token6erc7211__NtNtCs9yoxqfta9I2_16alloy_primitives3log7LogDataINtNtCshuVUGNokh5j_4core7convert4FromRNtB6_8TransferE4fromBa_
FNDA:0,_RNCNvXs_NvNtNtCsa86sUp9HUqm_19openzeppelin_stylus5token6erc7211__NtNtCs9yoxqfta9I2_16alloy_primitives3log7LogDataINtNtCshuVUGNokh5j_4core7convert4FromRNtB8_8TransferE4from0Bc_
FNDA:0,_RNvXs_NvNtNtCsa86sUp9HUqm_19openzeppelin_stylus5token6erc721s_1__NtNtCs9yoxqfta9I2_16alloy_primitives3log7LogDataINtNtCshuVUGNokh5j_4core7convert4FromRNtB6_8ApprovalE4fromBa_
FNDA:0,_RNCNvXs_NvNtNtCsa86sUp9HUqm_19openzeppelin_stylus5token6erc721s_1__NtNtCs9yoxqfta9I2_16alloy_primitives3log7LogDataINtNtCshuVUGNokh5j_4core7convert4FromRNtB8_8ApprovalE4from0Bc_
FNDA:0,_RNvXs_NvNtNtCsa86sUp9HUqm_19openzeppelin_stylus5token6erc721s0_1__NtNtCs9yoxqfta9I2_16alloy_primitives3log7LogDataINtNtCshuVUGNokh5j_4core7convert4FromRNtB6_14ApprovalForAllE4fromBa_
FNDA:0,_RNCNvXs_NvNtNtCsa86sUp9HUqm_19openzeppelin_stylus5token6erc721s0_1__NtNtCs9yoxqfta9I2_16alloy_primitives3log7LogDataINtNtCshuVUGNokh5j_4core7convert4FromRNtB8_14ApprovalForAllE4from0Bc_
FNDA:0,_RNvXs1_NtNtNtCsa86sUp9HUqm_19openzeppelin_stylus5token6erc7218receiverNtB5_15IERC721ReceiverINtNtCslo5yAywcNl4_15alloy_sol_types7private12SolTypeValueB16_E13stv_to_tokensBb_
FNDA:0,_RNvXs1_NtNtNtCsa86sUp9HUqm_19openzeppelin_stylus5token6erc7218receiverNtB5_15IERC721ReceiverINtNtCslo5yAywcNl4_15alloy_sol_types7private12SolTypeValueB16_E20stv_abi_encoded_sizeBb_
FNDA:0,_RNvXs1_NtNtNtCsa86sUp9HUqm_19openzeppelin_stylus5token6erc7218receiverNtB5_15IERC721ReceiverINtNtCslo5yAywcNl4_15alloy_sol_types7private12SolTypeValueB16_E20stv_eip712_data_wordBb_
FNDA:0,_RNvXs1_NtNtNtCsa86sUp9HUqm_19openzeppelin_stylus5token6erc7218receiverNtB5_15IERC721ReceiverINtNtCslo5yAywcNl4_15alloy_sol_types7private12SolTypeValueB16_E24stv_abi_encode_packed_toBb_
FNDA:0,_RNvXININtNtCsa86sUp9HUqm_19openzeppelin_stylus5token6erc721sz_0pENtB5_6Erc721INtNtCs8c3p7fi1c1U_10stylus_sdk3abi6RouterpE5routeB9_
FNDA:0,_RNvXNtNtCsa86sUp9HUqm_19openzeppelin_stylus5token6erc721NtB2_5ErrorNtNtNtCs8c3p7fi1c1U_10stylus_sdk4call5error11MethodError6encode
FNDA:0,_RNvXs0_NtNtCsa86sUp9HUqm_19openzeppelin_stylus5token6erc721NtB5_6Erc721NtNtNtNtB9_5utils13introspection6erc1657IErc16518supports_interface
FNDA:0,_RNvMs1_NtNtCsa86sUp9HUqm_19openzeppelin_stylus5token6erc721NtB5_6Erc7219__owner_of
FNDA:0,_RNvMs1_NtNtCsa86sUp9HUqm_19openzeppelin_stylus5token6erc721NtB5_6Erc72113__get_approved
FNDA:0,_RNvMs1_NtNtCsa86sUp9HUqm_19openzeppelin_stylus5token6erc721NtB5_6Erc72114__is_authorized
FNDA:0,_RNvMs1_NtNtCsa86sUp9HUqm_19openzeppelin_stylus5token6erc721NtB5_6Erc72117__check_authorized
FNDA:0,_RNvMs1_NtNtCsa86sUp9HUqm_19openzeppelin_stylus5token6erc721NtB5_6Erc72117__increase_balance
FNDA:0,_RNvMs1_NtNtCsa86sUp9HUqm_19openzeppelin_stylus5token6erc721NtB5_6Erc7217__update
FNDA:0,_RNvMs1_NtNtCsa86sUp9HUqm_19openzeppelin_stylus5token6erc721NtB5_6Erc7215__mint
FNDA:0,_RNvMs1_NtNtCsa86sUp9HUqm_19openzeppelin_stylus5token6erc721NtB5_6Erc72110__safe_mint
FNDA:0,_RNvMs1_NtNtCsa86sUp9HUqm_19openzeppelin_stylus5token6erc721NtB5_6Erc7215__burn
FNDA:0,_RNvMs1_NtNtCsa86sUp9HUqm_19openzeppelin_stylus5token6erc721NtB5_6Erc7219__transfer
FNDA:0,_RNvMs1_NtNtCsa86sUp9HUqm_19openzeppelin_stylus5token6erc721NtB5_6Erc72114__safe_transfer
FNDA:0,_RNvMs1_NtNtCsa86sUp9HUqm_19openzeppelin_stylus5token6erc721NtB5_6Erc7218__approve
FNDA:0,_RNvMs1_NtNtCsa86sUp9HUqm_19openzeppelin_stylus5token6erc721NtB5_6Erc72121__set_approval_for_all
FNDA:0,_RNvMs1_NtNtCsa86sUp9HUqm_19openzeppelin_stylus5token6erc721NtB5_6Erc72114__require_owned
FNDA:0,_RNvMs1_NtNtCsa86sUp9HUqm_19openzeppelin_stylus5token6erc721NtB5_6Erc72125__check_on_erc721_received
FNDA:0,_RNvXsl_NtNtCsa86sUp9HUqm_19openzeppelin_stylus5token6erc721NtB5_5ErrorINtNtCshuVUGNokh5j_4core7convert4FromNtB5_18ERC721InvalidOwnerE4from
FNDA:0,_RNvXsm_NtNtCsa86sUp9HUqm_19openzeppelin_stylus5token6erc721NtB5_5ErrorINtNtCshuVUGNokh5j_4core7convert4FromNtB5_22ERC721NonexistentTokenE4from
FNDA:0,_RNvXsn_NtNtCsa86sUp9HUqm_19openzeppelin_stylus5token6erc721NtB5_5ErrorINtNtCshuVUGNokh5j_4core7convert4FromNtB5_20ERC721IncorrectOwnerE4from
FNDA:0,_RNvXso_NtNtCsa86sUp9HUqm_19openzeppelin_stylus5token6erc721NtB5_5ErrorINtNtCshuVUGNokh5j_4core7convert4FromNtB5_19ERC721InvalidSenderE4from
FNDA:0,_RNvXsp_NtNtCsa86sUp9HUqm_19openzeppelin_stylus5token6erc721NtB5_5ErrorINtNtCshuVUGNokh5j_4core7convert4FromNtB5_21ERC721InvalidReceiverE4from
FNDA:0,_RNvXsq_NtNtCsa86sUp9HUqm_19openzeppelin_stylus5token6erc721NtB5_5ErrorINtNtCshuVUGNokh5j_4core7convert4FromNtNtNtCs8c3p7fi1c1U_10stylus_sdk4call5error5ErrorE4from
FNDA:0,_RNvXsr_NtNtCsa86sUp9HUqm_19openzeppelin_stylus5token6erc721NtB5_5ErrorINtNtCshuVUGNokh5j_4core7convert4FromNtB5_26ERC721InsufficientApprovalE4from
FNDA:0,_RNvXss_NtNtCsa86sUp9HUqm_19openzeppelin_stylus5token6erc721NtB5_5ErrorINtNtCshuVUGNokh5j_4core7convert4FromNtB5_21ERC721InvalidApproverE4from
FNDA:0,_RNvXst_NtNtCsa86sUp9HUqm_19openzeppelin_stylus5token6erc721NtB5_5ErrorINtNtCshuVUGNokh5j_4core7convert4FromNtB5_21ERC721InvalidOperatorE4from
FNDA:0,_RNvMsw_NtNtCsa86sUp9HUqm_19openzeppelin_stylus5token6erc721NtB5_6Erc72114required_slots
FNDA:0,_RNvXsx_NtNtCsa86sUp9HUqm_19openzeppelin_stylus5token6erc721NtB5_6Erc721NtNtNtCs8c3p7fi1c1U_10stylus_sdk7storage6traits11StorageType3new
FNDA:0,_RNvXsx_NtNtCsa86sUp9HUqm_19openzeppelin_stylus5token6erc721NtB5_6Erc721NtNtNtCs8c3p7fi1c1U_10stylus_sdk7storage6traits11StorageType4load
FNDA:0,_RNvXsx_NtNtCsa86sUp9HUqm_19openzeppelin_stylus5token6erc721NtB5_6Erc721NtNtNtCs8c3p7fi1c1U_10stylus_sdk7storage6traits11StorageType8load_mut
FNDA:0,_RNvXsy_NtNtCsa86sUp9HUqm_19openzeppelin_stylus5token6erc721NtB5_6Erc721NtB5_7IErc72110balance_of
FNDA:0,_RNvXsy_NtNtCsa86sUp9HUqm_19openzeppelin_stylus5token6erc721NtB5_6Erc721NtB5_7IErc7218owner_of
FNDA:0,_RNvXsy_NtNtCsa86sUp9HUqm_19openzeppelin_stylus5token6erc721NtB5_6Erc721NtB5_7IErc72118safe_transfer_from
FNDA:0,_RNvXsy_NtNtCsa86sUp9HUqm_19openzeppelin_stylus5token6erc721NtB5_6Erc721NtB5_7IErc72128safe_transfer_from_with_data
FNDA:0,_RNvXsy_NtNtCsa86sUp9HUqm_19openzeppelin_stylus5token6erc721NtB5_6Erc721NtB5_7IErc72113transfer_from
FNDA:0,_RNvXsy_NtNtCsa86sUp9HUqm_19openzeppelin_stylus5token6erc721NtB5_6Erc721NtB5_7IErc7217approve
FNDA:0,_RNvXsy_NtNtCsa86sUp9HUqm_19openzeppelin_stylus5token6erc721NtB5_6Erc721NtB5_7IErc72120set_approval_for_all
FNDA:0,_RNvXsy_NtNtCsa86sUp9HUqm_19openzeppelin_stylus5token6erc721NtB5_6Erc721NtB5_7IErc72112get_approved
FNDA:0,_RNvXsy_NtNtCsa86sUp9HUqm_19openzeppelin_stylus5token6erc721NtB5_6Erc721NtB5_7IErc72119is_approved_for_all
FNDA:0,_RNvMsA_NtNtCsa86sUp9HUqm_19openzeppelin_stylus5token6erc721NtB5_6Erc72123___stylus_allow_override
FNDA:0,_RNvMsA_NtNtCsa86sUp9HUqm_19openzeppelin_stylus5token6erc721NtB5_6Erc72125___stylus_assert_overrides
FNDA:0,_RINvMNtNtNtCsa86sUp9HUqm_19openzeppelin_stylus5token6erc7218receiverNtB3_15IERC721Receiver19on_erc_721_receivedINtNtNtCs8c3p7fi1c1U_10stylus_sdk4call7context4CallQNtB5_6Erc721EEB9_
FNDA:0,_RNvMNtNtNtCsa86sUp9HUqm_19openzeppelin_stylus5token6erc7218receiverNtB2_15IERC721Receiver3new
FNDA:0,_RNvXs_NtNtNtCsa86sUp9HUqm_19openzeppelin_stylus5token6erc7218receiverNtB4_15IERC721ReceiverNtNtNtCshuVUGNokh5j_4core3ops5deref5Deref5deref
FNDA:0,_RNvXs2_NtNtNtCsa86sUp9HUqm_19openzeppelin_stylus5token6erc7218receiverNtB5_15IERC721ReceiverNtNtNtCslo5yAywcNl4_15alloy_sol_types5types2ty7SolType11valid_token
FNDA:0,_RNvXs2_NtNtNtCsa86sUp9HUqm_19openzeppelin_stylus5token6erc7218receiverNtB5_15IERC721ReceiverNtNtNtCslo5yAywcNl4_15alloy_sol_types5types2ty7SolType10detokenize
FNDA:0,_RNvXsz_NtNtCsa86sUp9HUqm_19openzeppelin_stylus5token6erc721NtB5_6Erc721INtNtCs8c3p7fi1c1U_10stylus_sdk3abi6RouterNtCsbY8cRU9egOl_14erc721_example13Erc721ExampleE5routeB1P_
FNDA:0,_RNvXsz_NtNtCsa86sUp9HUqm_19openzeppelin_stylus5token6erc721NtB5_6Erc721INtNtCs8c3p7fi1c1U_10stylus_sdk3abi6RouterNtCshLDj1MwUje2_23erc721_metadata_example21Erc721MetadataExampleE5routeB1P_
FNDA:0,_RNvXsz_NtNtCsa86sUp9HUqm_19openzeppelin_stylus5token6erc721NtB5_6Erc721INtNtCs8c3p7fi1c1U_10stylus_sdk3abi6RouterNtCslXfu2eZ1Tt1_14erc721_example13Erc721ExampleE5routeB1P_
FNDA:0,_RNvXsz_NtNtCsa86sUp9HUqm_19openzeppelin_stylus5token6erc721NtB5_6Erc721INtNtCs8c3p7fi1c1U_10stylus_sdk3abi6RouterNtCsil9SubT3BB5_23erc721_metadata_example21Erc721MetadataExampleE5routeB1P_
FNDA:193,_RNvMs1_NtNtCs6vaqcEMrLsG_19openzeppelin_stylus5token6erc721NtB5_6Erc7219__owner_of
FNDA:23,_RNvMs1_NtNtCs6vaqcEMrLsG_19openzeppelin_stylus5token6erc721NtB5_6Erc72113__get_approved
FNDA:41,_RNvMs1_NtNtCs6vaqcEMrLsG_19openzeppelin_stylus5token6erc721NtB5_6Erc72114__is_authorized
FNDA:36,_RNvMs1_NtNtCs6vaqcEMrLsG_19openzeppelin_stylus5token6erc721NtB5_6Erc72117__check_authorized
FNDA:4,_RNvMs1_NtNtCs6vaqcEMrLsG_19openzeppelin_stylus5token6erc721NtB5_6Erc72117__increase_balance
FNDA:101,_RNvMs1_NtNtCs6vaqcEMrLsG_19openzeppelin_stylus5token6erc721NtB5_6Erc7217__update
FNDA:65,_RNvMs1_NtNtCs6vaqcEMrLsG_19openzeppelin_stylus5token6erc721NtB5_6Erc7215__mint
FNDA:3,_RNvMs1_NtNtCs6vaqcEMrLsG_19openzeppelin_stylus5token6erc721NtB5_6Erc72110__safe_mint
FNDA:3,_RNvMs1_NtNtCs6vaqcEMrLsG_19openzeppelin_stylus5token6erc721NtB5_6Erc7215__burn
FNDA:12,_RNvMs1_NtNtCs6vaqcEMrLsG_19openzeppelin_stylus5token6erc721NtB5_6Erc7219__transfer
FNDA:6,_RNvMs1_NtNtCs6vaqcEMrLsG_19openzeppelin_stylus5token6erc721NtB5_6Erc72114__safe_transfer
FNDA:40,_RNvMs1_NtNtCs6vaqcEMrLsG_19openzeppelin_stylus5token6erc721NtB5_6Erc7218__approve
FNDA:11,_RNvMs1_NtNtCs6vaqcEMrLsG_19openzeppelin_stylus5token6erc721NtB5_6Erc72121__set_approval_for_all
FNDA:49,_RNvMs1_NtNtCs6vaqcEMrLsG_19openzeppelin_stylus5token6erc721NtB5_6Erc72114__require_owned
FNDA:14,_RNvMs1_NtNtCs6vaqcEMrLsG_19openzeppelin_stylus5token6erc721NtB5_6Erc72125__check_on_erc721_received
FNDA:1,_RNvXsl_NtNtCs6vaqcEMrLsG_19openzeppelin_stylus5token6erc721NtB5_5ErrorINtNtCshuVUGNokh5j_4core7convert4FromNtB5_18ERC721InvalidOwnerE4from
FNDA:19,_RNvXsm_NtNtCs6vaqcEMrLsG_19openzeppelin_stylus5token6erc721NtB5_5ErrorINtNtCshuVUGNokh5j_4core7convert4FromNtB5_22ERC721NonexistentTokenE4from
FNDA:5,_RNvXsn_NtNtCs6vaqcEMrLsG_19openzeppelin_stylus5token6erc721NtB5_5ErrorINtNtCshuVUGNokh5j_4core7convert4FromNtB5_20ERC721IncorrectOwnerE4from
FNDA:2,_RNvXso_NtNtCs6vaqcEMrLsG_19openzeppelin_stylus5token6erc721NtB5_5ErrorINtNtCshuVUGNokh5j_4core7convert4FromNtB5_19ERC721InvalidSenderE4from
FNDA:7,_RNvXsp_NtNtCs6vaqcEMrLsG_19openzeppelin_stylus5token6erc721NtB5_5ErrorINtNtCshuVUGNokh5j_4core7convert4FromNtB5_21ERC721InvalidReceiverE4from
FNDA:5,_RNvXsr_NtNtCs6vaqcEMrLsG_19openzeppelin_stylus5token6erc721NtB5_5ErrorINtNtCshuVUGNokh5j_4core7convert4FromNtB5_26ERC721InsufficientApprovalE4from
FNDA:2,_RNvXss_NtNtCs6vaqcEMrLsG_19openzeppelin_stylus5token6erc721NtB5_5ErrorINtNtCshuVUGNokh5j_4core7convert4FromNtB5_21ERC721InvalidApproverE4from
FNDA:2,_RNvXst_NtNtCs6vaqcEMrLsG_19openzeppelin_stylus5token6erc721NtB5_5ErrorINtNtCshuVUGNokh5j_4core7convert4FromNtB5_21ERC721InvalidOperatorE4from
FNDA:107,_RNvXsx_NtNtCs6vaqcEMrLsG_19openzeppelin_stylus5token6erc721NtB5_6Erc721NtNtNtCs8c3p7fi1c1U_10stylus_sdk7storage6traits11StorageType3new
FNDA:34,_RNvXsy_NtNtCs6vaqcEMrLsG_19openzeppelin_stylus5token6erc721NtB5_6Erc721NtB5_7IErc72110balance_of
FNDA:33,_RNvXsy_NtNtCs6vaqcEMrLsG_19openzeppelin_stylus5token6erc721NtB5_6Erc721NtB5_7IErc7218owner_of
FNDA:7,_RNvXsy_NtNtCs6vaqcEMrLsG_19openzeppelin_stylus5token6erc721NtB5_6Erc721NtB5_7IErc72118safe_transfer_from
FNDA:14,_RNvXsy_NtNtCs6vaqcEMrLsG_19openzeppelin_stylus5token6erc721NtB5_6Erc721NtB5_7IErc72128safe_transfer_from_with_data
FNDA:22,_RNvXsy_NtNtCs6vaqcEMrLsG_19openzeppelin_stylus5token6erc721NtB5_6Erc721NtB5_7IErc72113transfer_from
FNDA:8,_RNvXsy_NtNtCs6vaqcEMrLsG_19openzeppelin_stylus5token6erc721NtB5_6Erc721NtB5_7IErc7217approve
FNDA:8,_RNvXsy_NtNtCs6vaqcEMrLsG_19openzeppelin_stylus5token6erc721NtB5_6Erc721NtB5_7IErc72120set_approval_for_all
FNDA:3,_RNvXsy_NtNtCs6vaqcEMrLsG_19openzeppelin_stylus5token6erc721NtB5_6Erc721NtB5_7IErc72112get_approved
FNDA:39,_RNvXsy_NtNtCs6vaqcEMrLsG_19openzeppelin_stylus5token6erc721NtB5_6Erc721NtB5_7IErc72119is_approved_for_all
FNDA:0,_RNvXs_NvNtNtCs6vaqcEMrLsG_19openzeppelin_stylus5token6erc7211__NtNtCs9yoxqfta9I2_16alloy_primitives3log7LogDataINtNtCshuVUGNokh5j_4core7convert4FromRNtB6_8TransferE4fromBa_
FNDA:0,_RNCNvXs_NvNtNtCs6vaqcEMrLsG_19openzeppelin_stylus5token6erc7211__NtNtCs9yoxqfta9I2_16alloy_primitives3log7LogDataINtNtCshuVUGNokh5j_4core7convert4FromRNtB8_8TransferE4from0Bc_
FNDA:0,_RNvXs_NvNtNtCs6vaqcEMrLsG_19openzeppelin_stylus5token6erc721s_1__NtNtCs9yoxqfta9I2_16alloy_primitives3log7LogDataINtNtCshuVUGNokh5j_4core7convert4FromRNtB6_8ApprovalE4fromBa_
FNDA:0,_RNCNvXs_NvNtNtCs6vaqcEMrLsG_19openzeppelin_stylus5token6erc721s_1__NtNtCs9yoxqfta9I2_16alloy_primitives3log7LogDataINtNtCshuVUGNokh5j_4core7convert4FromRNtB8_8ApprovalE4from0Bc_
FNDA:0,_RNvXs_NvNtNtCs6vaqcEMrLsG_19openzeppelin_stylus5token6erc721s0_1__NtNtCs9yoxqfta9I2_16alloy_primitives3log7LogDataINtNtCshuVUGNokh5j_4core7convert4FromRNtB6_14ApprovalForAllE4fromBa_
FNDA:0,_RNCNvXs_NvNtNtCs6vaqcEMrLsG_19openzeppelin_stylus5token6erc721s0_1__NtNtCs9yoxqfta9I2_16alloy_primitives3log7LogDataINtNtCshuVUGNokh5j_4core7convert4FromRNtB8_14ApprovalForAllE4from0Bc_
FNDA:0,_RNvNvNtNtCs6vaqcEMrLsG_19openzeppelin_stylus5token6erc721s1_1__15__type_assertion
FNDA:0,_RNvNvNtNtCs6vaqcEMrLsG_19openzeppelin_stylus5token6erc721s2_1__15__type_assertion
FNDA:0,_RNvNvNtNtCs6vaqcEMrLsG_19openzeppelin_stylus5token6erc721s3_1__15__type_assertion
FNDA:0,_RNvNvNtNtCs6vaqcEMrLsG_19openzeppelin_stylus5token6erc721s4_1__15__type_assertion
FNDA:0,_RNvNvNtNtCs6vaqcEMrLsG_19openzeppelin_stylus5token6erc721s5_1__15__type_assertion
FNDA:0,_RNvNvNtNtCs6vaqcEMrLsG_19openzeppelin_stylus5token6erc721s6_1__15__type_assertion
FNDA:0,_RNvNvNtNtCs6vaqcEMrLsG_19openzeppelin_stylus5token6erc721s7_1__15__type_assertion
FNDA:0,_RNvNvNtNtCs6vaqcEMrLsG_19openzeppelin_stylus5token6erc721s8_1__15__type_assertion
FNDA:0,_RNvXsq_NtNtCs6vaqcEMrLsG_19openzeppelin_stylus5token6erc721NtB5_5ErrorINtNtCshuVUGNokh5j_4core7convert4FromNtNtNtCs8c3p7fi1c1U_10stylus_sdk4call5error5ErrorE4from
FNDA:0,_RNvXsu_NtNtCs6vaqcEMrLsG_19openzeppelin_stylus5token6erc721INtNtCsdDMkpvQxPWz_5alloc3vec3VechEINtNtCshuVUGNokh5j_4core7convert4FromNtB5_5ErrorE4from
FNDA:0,_RNvXNtNtCs6vaqcEMrLsG_19openzeppelin_stylus5token6erc721NtB2_5ErrorNtNtNtCs8c3p7fi1c1U_10stylus_sdk4call5error11MethodError6encode
FNDA:0,_RNvXs_NtNtNtCs6vaqcEMrLsG_19openzeppelin_stylus5token6erc7218receiverNtB4_15IERC721ReceiverNtNtNtCshuVUGNokh5j_4core3ops5deref5Deref5deref
FNDA:0,_RNvXs1_NtNtNtCs6vaqcEMrLsG_19openzeppelin_stylus5token6erc7218receiverNtB5_15IERC721ReceiverINtNtCslo5yAywcNl4_15alloy_sol_types7private12SolTypeValueB16_E13stv_to_tokensBb_
FNDA:0,_RNvXs1_NtNtNtCs6vaqcEMrLsG_19openzeppelin_stylus5token6erc7218receiverNtB5_15IERC721ReceiverINtNtCslo5yAywcNl4_15alloy_sol_types7private12SolTypeValueB16_E20stv_abi_encoded_sizeBb_
FNDA:0,_RNvXs1_NtNtNtCs6vaqcEMrLsG_19openzeppelin_stylus5token6erc7218receiverNtB5_15IERC721ReceiverINtNtCslo5yAywcNl4_15alloy_sol_types7private12SolTypeValueB16_E20stv_eip712_data_wordBb_
FNDA:0,_RNvXs1_NtNtNtCs6vaqcEMrLsG_19openzeppelin_stylus5token6erc7218receiverNtB5_15IERC721ReceiverINtNtCslo5yAywcNl4_15alloy_sol_types7private12SolTypeValueB16_E24stv_abi_encode_packed_toBb_
FNDA:0,_RNvXs2_NtNtNtCs6vaqcEMrLsG_19openzeppelin_stylus5token6erc7218receiverNtB5_15IERC721ReceiverNtNtNtCslo5yAywcNl4_15alloy_sol_types5types2ty7SolType11valid_token
FNDA:0,_RNvXs2_NtNtNtCs6vaqcEMrLsG_19openzeppelin_stylus5token6erc7218receiverNtB5_15IERC721ReceiverNtNtNtCslo5yAywcNl4_15alloy_sol_types5types2ty7SolType10detokenize
FNDA:0,_RNvMsw_NtNtCs6vaqcEMrLsG_19openzeppelin_stylus5token6erc721NtB5_6Erc72114required_slots
FNDA:0,_RNvXsx_NtNtCs6vaqcEMrLsG_19openzeppelin_stylus5token6erc721NtB5_6Erc721NtNtNtCs8c3p7fi1c1U_10stylus_sdk7storage6traits11StorageType4load
FNDA:0,_RNvXsx_NtNtCs6vaqcEMrLsG_19openzeppelin_stylus5token6erc721NtB5_6Erc721NtNtNtCs8c3p7fi1c1U_10stylus_sdk7storage6traits11StorageType8load_mut
FNDA:0,_RNvXININtNtCs6vaqcEMrLsG_19openzeppelin_stylus5token6erc721sz_0pENtB5_6Erc721INtNtCs8c3p7fi1c1U_10stylus_sdk3abi6RouterpE5routeB9_
FNDA:0,_RNvMsA_NtNtCs6vaqcEMrLsG_19openzeppelin_stylus5token6erc721NtB5_6Erc72123___stylus_allow_override
FNDA:0,_RNvMsA_NtNtCs6vaqcEMrLsG_19openzeppelin_stylus5token6erc721NtB5_6Erc72125___stylus_assert_overrides
FNDA:0,_RNvXs0_NtNtCs6vaqcEMrLsG_19openzeppelin_stylus5token6erc721NtB5_6Erc721NtNtNtNtB9_5utils13introspection6erc1657IErc16518supports_interface
FNDA:0,_RNvMNtNtNtCs6vaqcEMrLsG_19openzeppelin_stylus5token6erc7218receiverNtB2_15IERC721Receiver3new
FNDA:116,_RNvNtNtNtCs6vaqcEMrLsG_19openzeppelin_stylus5token6erc7215tests15random_token_id
FNDA:1,_RNvNtNtNtCs6vaqcEMrLsG_19openzeppelin_stylus5token6erc7215testss_44error_when_checking_balance_of_invalid_owner
FNDA:1,_RNvNtNtNtCs6vaqcEMrLsG_19openzeppelin_stylus5token6erc7215testss_23balance_of_zero_balance
FNDA:1,_RNvNtNtNtCs6vaqcEMrLsG_19openzeppelin_stylus5token6erc7215testss_46error_when_checking_owner_of_nonexistent_token
FNDA:1,_RNvNtNtNtCs6vaqcEMrLsG_19openzeppelin_stylus5token6erc7215testss_5mints
FNDA:1,_RNvNtNtNtCs6vaqcEMrLsG_19openzeppelin_stylus5token6erc7215testss_33error_when_minting_token_id_twice
FNDA:1,_RNvNtNtNtCs6vaqcEMrLsG_19openzeppelin_stylus5token6erc7215testss_41error_when_minting_token_invalid_receiver
FNDA:1,_RNvNtNtNtCs6vaqcEMrLsG_19openzeppelin_stylus5token6erc7215testss_10safe_mints
FNDA:1,_RNvNtNtNtCs6vaqcEMrLsG_19openzeppelin_stylus5token6erc7215testss_35error_when_safe_mint_token_id_twice
FNDA:1,_RNvNtNtNtCs6vaqcEMrLsG_19openzeppelin_stylus5token6erc7215testss_37error_when_safe_mint_invalid_receiver
FNDA:1,_RNvNtNtNtCs6vaqcEMrLsG_19openzeppelin_stylus5token6erc7215testss_14transfers_from
FNDA:1,_RNvNtNtNtCs6vaqcEMrLsG_19openzeppelin_stylus5token6erc7215testss_29transfers_from_approved_token
FNDA:1,_RNvNtNtNtCs6vaqcEMrLsG_19openzeppelin_stylus5token6erc7215testss_31transfers_from_approved_for_all
FNDA:1,_RNvNtNtNtCs6vaqcEMrLsG_19openzeppelin_stylus5token6erc7215testss_54error_when_transfer_from_transfers_to_invalid_receiver
FNDA:1,_RNvNtNtNtCs6vaqcEMrLsG_19openzeppelin_stylus5token6erc7215testss_55error_when_transfer_from_transfers_from_incorrect_owner
FNDA:1,_RNvNtNtNtCs6vaqcEMrLsG_19openzeppelin_stylus5token6erc7215testss_61error_when_transfer_from_transfers_with_insufficient_approval
FNDA:1,_RNvNtNtNtCs6vaqcEMrLsG_19openzeppelin_stylus5token6erc7215testss_52error_when_transfer_from_transfers_nonexistent_token
FNDA:1,_RNvNtNtNtCs6vaqcEMrLsG_19openzeppelin_stylus5token6erc7215testss_19safe_transfers_from
FNDA:1,_RNvNtNtNtCs6vaqcEMrLsG_19openzeppelin_stylus5token6erc7215testss_34safe_transfers_from_approved_token
FNDA:1,_RNvNtNtNtCs6vaqcEMrLsG_19openzeppelin_stylus5token6erc7215testss_36safe_transfers_from_approved_for_all
FNDA:1,_RNvNtNtNtCs6vaqcEMrLsG_19openzeppelin_stylus5token6erc7215testss_44error_when_safe_transfer_to_invalid_receiver
FNDA:1,_RNvNtNtNtCs6vaqcEMrLsG_19openzeppelin_stylus5token6erc7215testss_60error_when_safe_transfer_from_transfers_from_incorrect_owner
FNDA:1,_RNvNtNtNtCs6vaqcEMrLsG_19openzeppelin_stylus5token6erc7215testss_66error_when_safe_transfer_from_transfers_with_insufficient_approval
FNDA:1,_RNvNtNtNtCs6vaqcEMrLsG_19openzeppelin_stylus5token6erc7215testss_57error_when_safe_transfer_from_transfers_nonexistent_token
FNDA:1,_RNvNtNtNtCs6vaqcEMrLsG_19openzeppelin_stylus5token6erc7215testss_29safe_transfers_from_with_data
FNDA:1,_RNvNtNtNtCs6vaqcEMrLsG_19openzeppelin_stylus5token6erc7215testss_44safe_transfers_from_with_data_approved_token
FNDA:1,_RNvNtNtNtCs6vaqcEMrLsG_19openzeppelin_stylus5token6erc7215testss_46safe_transfers_from_with_data_approved_for_all
FNDA:1,_RNvNtNtNtCs6vaqcEMrLsG_19openzeppelin_stylus5token6erc7215testss_69error_when_safe_transfer_from_with_data_transfers_to_invalid_receiver
FNDA:1,_RNvNtNtNtCs6vaqcEMrLsG_19openzeppelin_stylus5token6erc7215testss_70error_when_safe_transfer_from_with_data_transfers_from_incorrect_owner
FNDA:1,_RNvNtNtNtCs6vaqcEMrLsG_19openzeppelin_stylus5token6erc7215testss_76error_when_safe_transfer_from_with_data_transfers_with_insufficient_approval
FNDA:1,_RNvNtNtNtCs6vaqcEMrLsG_19openzeppelin_stylus5token6erc7215testss_67error_when_safe_transfer_from_with_data_transfers_nonexistent_token
FNDA:1,_RNvNtNtNtCs6vaqcEMrLsG_19openzeppelin_stylus5token6erc7215testss_8approves
FNDA:1,_RNvNtNtNtCs6vaqcEMrLsG_19openzeppelin_stylus5token6erc7215testss_40error_when_approve_for_nonexistent_token
FNDA:1,_RNvNtNtNtCs6vaqcEMrLsG_19openzeppelin_stylus5token6erc7215testss_38error_when_approve_by_invalid_approver
FNDA:1,_RNvNtNtNtCs6vaqcEMrLsG_19openzeppelin_stylus5token6erc7215testss_16approval_for_all
FNDA:1,_RNvNtNtNtCs6vaqcEMrLsG_19openzeppelin_stylus5token6erc7215testss_48error_when_approval_for_all_for_invalid_operator
FNDA:1,_RNvNtNtNtCs6vaqcEMrLsG_19openzeppelin_stylus5token6erc7215testss_44error_when_get_approved_of_nonexistent_token
FNDA:1,_RNvNtNtNtCs6vaqcEMrLsG_19openzeppelin_stylus5token6erc7215testss_14owner_of_works
FNDA:1,_RNvNtNtNtCs6vaqcEMrLsG_19openzeppelin_stylus5token6erc7215testss_26owner_of_nonexistent_token
FNDA:1,_RNvNtNtNtCs6vaqcEMrLsG_19openzeppelin_stylus5token6erc7215testss_30get_approved_nonexistent_token
FNDA:1,_RNvNtNtNtCs6vaqcEMrLsG_19openzeppelin_stylus5token6erc7215testss_35get_approved_token_without_approval
FNDA:1,_RNvNtNtNtCs6vaqcEMrLsG_19openzeppelin_stylus5token6erc7215testss_32get_approved_token_with_approval
FNDA:1,_RNvNtNtNtCs6vaqcEMrLsG_19openzeppelin_stylus5token6erc7215testss_40get_approved_token_with_approval_for_all
FNDA:1,_RNvNtNtNtCs6vaqcEMrLsG_19openzeppelin_stylus5token6erc7215testss_31is_authorized_nonexistent_token
FNDA:1,_RNvNtNtNtCs6vaqcEMrLsG_19openzeppelin_stylus5token6erc7215testss_25is_authorized_token_owner
FNDA:1,_RNvNtNtNtCs6vaqcEMrLsG_19openzeppelin_stylus5token6erc7215testss_30is_authorized_without_approval
FNDA:1,_RNvNtNtNtCs6vaqcEMrLsG_19openzeppelin_stylus5token6erc7215testss_27is_authorized_with_approval
FNDA:1,_RNvNtNtNtCs6vaqcEMrLsG_19openzeppelin_stylus5token6erc7215testss_35is_authorized_with_approval_for_all
FNDA:1,_RNvNtNtNtCs6vaqcEMrLsG_19openzeppelin_stylus5token6erc7215testss_34check_authorized_nonexistent_token
FNDA:1,_RNvNtNtNtCs6vaqcEMrLsG_19openzeppelin_stylus5token6erc7215testss_28check_authorized_token_owner
FNDA:1,_RNvNtNtNtCs6vaqcEMrLsG_19openzeppelin_stylus5token6erc7215testss_33check_authorized_without_approval
FNDA:1,_RNvNtNtNtCs6vaqcEMrLsG_19openzeppelin_stylus5token6erc7215testss_30check_authorized_with_approval
FNDA:1,_RNvNtNtNtCs6vaqcEMrLsG_19openzeppelin_stylus5token6erc7215testss_38check_authorized_with_approval_for_all
FNDA:1,_RNvNtNtNtCs6vaqcEMrLsG_19openzeppelin_stylus5token6erc7215testss_5burns
FNDA:1,_RNvNtNtNtCs6vaqcEMrLsG_19openzeppelin_stylus5token6erc7215testss_51error_when_get_approved_of_previous_approval_burned
FNDA:1,_RNvNtNtNtCs6vaqcEMrLsG_19openzeppelin_stylus5token6erc7215testss_33error_when_burn_nonexistent_token
FNDA:1,_RNvNtNtNtCs6vaqcEMrLsG_19openzeppelin_stylus5token6erc7215testss_9transfers
FNDA:1,_RNvNtNtNtCs6vaqcEMrLsG_19openzeppelin_stylus5token6erc7215testss_24transfers_approved_token
FNDA:1,_RNvNtNtNtCs6vaqcEMrLsG_19openzeppelin_stylus5token6erc7215testss_26transfers_approved_for_all
FNDA:1,_RNvNtNtNtCs6vaqcEMrLsG_19openzeppelin_stylus5token6erc7215testss_49error_when_transfer_transfers_to_invalid_receiver
FNDA:1,_RNvNtNtNtCs6vaqcEMrLsG_19openzeppelin_stylus5token6erc7215testss_50error_when_transfer_transfers_from_incorrect_owner
FNDA:1,_RNvNtNtNtCs6vaqcEMrLsG_19openzeppelin_stylus5token6erc7215testss_47error_when_transfer_transfers_nonexistent_token
FNDA:1,_RNvNtNtNtCs6vaqcEMrLsG_19openzeppelin_stylus5token6erc7215testss_23safe_transfers_internal
FNDA:1,_RNvNtNtNtCs6vaqcEMrLsG_19openzeppelin_stylus5token6erc7215testss_38safe_transfers_internal_approved_token
FNDA:1,_RNvNtNtNtCs6vaqcEMrLsG_19openzeppelin_stylus5token6erc7215testss_40safe_transfers_internal_approved_for_all
FNDA:1,_RNvNtNtNtCs6vaqcEMrLsG_19openzeppelin_stylus5token6erc7215testss_53error_when_internal_safe_transfer_to_invalid_receiver
FNDA:1,_RNvNtNtNtCs6vaqcEMrLsG_19openzeppelin_stylus5token6erc7215testss_54error_when_internal_safe_transfer_from_incorrect_owner
FNDA:1,_RNvNtNtNtCs6vaqcEMrLsG_19openzeppelin_stylus5token6erc7215testss_51error_when_internal_safe_transfer_nonexistent_token
FNDA:1,_RNvNtNtNtCs6vaqcEMrLsG_19openzeppelin_stylus5token6erc7215testss_17approves_internal
FNDA:1,_RNvNtNtNtCs6vaqcEMrLsG_19openzeppelin_stylus5token6erc7215testss_49error_when_approve_internal_for_nonexistent_token
FNDA:1,_RNvNtNtNtCs6vaqcEMrLsG_19openzeppelin_stylus5token6erc7215testss_47error_when_approve_internal_by_invalid_approver
FNDA:1,_RNvNtNtNtCs6vaqcEMrLsG_19openzeppelin_stylus5token6erc7215testss_25approval_for_all_internal
FNDA:1,_RNvNtNtNtCs6vaqcEMrLsG_19openzeppelin_stylus5token6erc7215testss_57error_when_approval_for_all_internal_for_invalid_operator
FNDA:1,_RNvNtNtNtCs6vaqcEMrLsG_19openzeppelin_stylus5token6erc7215testss_19require_owned_works
FNDA:1,_RNvNtNtNtCs6vaqcEMrLsG_19openzeppelin_stylus5token6erc7215testss_46error_when_require_owned_for_nonexistent_token
FNDA:1,_RNvNtNtNtCs6vaqcEMrLsG_19openzeppelin_stylus5token6erc7215testss_12interface_id
FNDA:0,_RINvMNtNtNtCs6vaqcEMrLsG_19openzeppelin_stylus5token6erc7218receiverNtB3_15IERC721Receiver19on_erc_721_receivedINtNtNtCs8c3p7fi1c1U_10stylus_sdk4call7context4CallQNtB5_6Erc721EEB9_
FNF:111
FNH:102
DA:21,0
DA:22,0
DA:23,0
DA:24,0
DA:25,0
DA:26,0
DA:27,0
DA:28,0
DA:29,0
DA:30,0
DA:31,0
DA:32,0
DA:33,0
DA:34,0
DA:35,0
DA:36,0
DA:37,0
DA:38,0
DA:39,0
DA:40,0
DA:41,0
DA:42,0
DA:43,0
DA:44,0
DA:45,0
DA:46,0
DA:47,0
DA:48,0
DA:49,0
DA:50,0
DA:51,0
DA:52,0
DA:53,0
DA:54,0
DA:55,0
DA:56,0
DA:58,0
DA:59,0
DA:60,0
DA:61,0
DA:62,0
DA:63,0
DA:64,0
DA:65,0
DA:66,0
DA:67,0
DA:68,0
DA:69,0
DA:70,0
DA:71,0
DA:72,0
DA:73,0
DA:74,0
DA:75,0
DA:76,0
DA:77,0
DA:78,0
DA:79,0
DA:80,0
DA:81,0
DA:82,0
DA:83,0
DA:84,0
DA:85,0
DA:86,0
DA:87,0
DA:88,0
DA:89,0
DA:90,0
DA:91,0
DA:92,0
DA:93,0
DA:94,0
DA:95,0
DA:96,0
DA:97,0
DA:98,0
DA:99,0
DA:100,0
DA:101,0
DA:102,0
DA:103,0
DA:104,0
DA:105,0
DA:106,0
DA:107,0
DA:108,0
DA:109,0
DA:110,0
DA:111,0
DA:112,0
DA:113,0
DA:114,0
DA:115,0
DA:116,0
DA:117,0
DA:118,0
DA:119,0
DA:120,0
DA:121,0
DA:122,0
DA:123,0
DA:124,0
DA:129,0
DA:158,0
DA:159,0
DA:160,0
DA:166,0
DA:167,0
DA:168,0
DA:169,0
DA:170,0
DA:171,0
DA:172,0
DA:173,0
DA:174,0
DA:175,0
DA:176,0
DA:177,0
DA:178,0
DA:179,0
DA:180,0
DA:181,0
DA:182,0
DA:183,0
DA:184,0
DA:185,0
DA:186,0
DA:189,0
DA:190,0
DA:191,0
DA:192,0
DA:193,0
DA:194,0
DA:195,0
DA:196,0
DA:197,0
DA:198,0
DA:199,0
DA:200,0
DA:201,107
DA:475,0
DA:479,34
DA:480,34
DA:481,1
DA:482,33
DA:483,33
DA:484,34
DA:486,33
DA:487,33
DA:488,33
DA:490,7
DA:491,7
DA:492,7
DA:493,7
DA:494,7
DA:495,7
DA:496,7
DA:497,7
DA:500,14
DA:501,14
DA:502,14
DA:503,14
DA:504,14
DA:505,14
DA:506,14
DA:507,14
DA:508,6
DA:509,14
DA:511,22
DA:512,22
DA:513,22
DA:514,22
DA:515,22
DA:516,22
DA:517,22
DA:518,3
DA:519,3
DA:520,3
DA:521,19
DA:526,19
DA:527,13
DA:528,3
DA:529,3
DA:530,3
DA:531,3
DA:532,3
DA:533,3
DA:534,10
DA:535,10
DA:536,22
DA:538,8
DA:539,8
DA:540,8
DA:542,8
DA:543,8
DA:544,8
DA:545,8
DA:546,8
DA:547,8
DA:548,8
DA:550,3
DA:551,3
DA:552,0
DA:553,3
DA:555,39
DA:556,39
DA:557,39
DA:561,0
DA:562,0
DA:563,0
DA:564,0
DA:583,193
DA:584,193
DA:585,193
DA:595,23
DA:596,23
DA:597,23
DA:612,41
DA:613,41
DA:614,41
DA:615,41
DA:616,41
DA:617,41
DA:618,41
DA:619,41
DA:620,25
DA:621,19
DA:622,41
DA:645,36
DA:646,36
DA:647,36
DA:648,36
DA:649,36
DA:650,36
DA:651,36
DA:652,26
DA:653,10
DA:654,10
DA:655,10
DA:656,5
DA:658,5
DA:660,36
DA:680,4
DA:681,4
DA:682,4
DA:713,101
DA:714,101
DA:715,101
DA:716,101
DA:717,101
DA:718,101
DA:719,101
DA:720,101
DA:721,101
DA:722,101
DA:723,25
DA:724,76
DA:727,93
DA:730,29
DA:731,29
DA:732,64
DA:734,93
DA:735,86
DA:736,86
DA:738,93
DA:739,93
DA:740,93
DA:741,101
DA:769,65
DA:770,65
DA:771,2
DA:772,2
DA:773,2
DA:774,63
DA:776,63
DA:777,63
DA:778,2
DA:779,61
DA:780,61
DA:781,65
DA:817,3
DA:818,3
DA:819,3
DA:820,3
DA:821,3
DA:822,3
DA:823,3
DA:824,1
DA:825,1
DA:826,1
DA:827,1
DA:828,1
DA:829,1
DA:830,1
DA:831,3
DA:856,3
DA:857,3
DA:858,3
DA:859,3
DA:860,1
DA:861,2
DA:862,2
DA:863,3
DA:894,12
DA:895,12
DA:896,12
DA:897,12
DA:898,12
DA:899,12
DA:900,12
DA:901,2
DA:902,2
DA:903,2
DA:904,10
DA:906,10
DA:907,10
DA:908,2
DA:909,8
DA:910,2
DA:911,2
DA:912,2
DA:913,2
DA:914,2
DA:915,2
DA:916,6
DA:917,6
DA:918,6
DA:919,12
DA:962,6
DA:963,6
DA:964,6
DA:965,6
DA:966,6
DA:967,6
DA:968,6
DA:969,6
DA:970,3
DA:971,6
DA:997,40
DA:998,40
DA:999,40
DA:1000,40
DA:1001,40
DA:1002,40
DA:1003,40
DA:1004,40
DA:1005,40
DA:1006,11
DA:1010,9
DA:1011,9
DA:1012,2
DA:1014,2
DA:1015,7
DA:1016,7
DA:1017,7
DA:1018,6
DA:1019,6
DA:1020,29
DA:1022,36
DA:1023,36
DA:1024,40
DA:1047,11
DA:1048,11
DA:1049,11
DA:1050,11
DA:1051,11
DA:1052,11
DA:1053,11
DA:1054,2
DA:1055,9
DA:1056,9
DA:1057,9
DA:1058,9
DA:1059,9
DA:1060,11
DA:1077,49
DA:1078,49
DA:1079,49
DA:1080,11
DA:1081,38
DA:1082,38
DA:1083,49
DA:1110,14
DA:1111,14
DA:1112,14
DA:1113,14
DA:1114,14
DA:1115,14
DA:1116,14
DA:1117,14
DA:1120,14
DA:1121,14
DA:1122,0
DA:1123,0
DA:1124,0
DA:1125,0
DA:1126,0
DA:1127,0
DA:1128,0
DA:1129,0
DA:1130,0
DA:1131,0
DA:1132,0
DA:1134,0
DA:1135,0
DA:1136,0
DA:1137,0
DA:1138,0
DA:1140,0
DA:1141,0
DA:1142,0
DA:1144,0
DA:1149,0
DA:1150,0
DA:1151,0
DA:1152,0
DA:1153,0
DA:1154,14
DA:1173,116
DA:1174,116
DA:1175,116
DA:1176,116
DA:1178,1
DA:1190,1
DA:1198,1
DA:1214,1
DA:1236,1
DA:1253,1
DA:1271,1
DA:1296,1
DA:1314,1
DA:1332,1
DA:1346,1
DA:1361,1
DA:1383,1
DA:1410,1
DA:1438,1
DA:1457,1
DA:1472,1
DA:1489,1
DA:1504,1
DA:1526,1
DA:1551,1
DA:1579,1
DA:1598,1
DA:1615,1
DA:1637,1
DA:1657,1
DA:1684,1
DA:1716,1
DA:1751,1
DA:1775,1
DA:1797,1
DA:1808,1
DA:1823,1
DA:1840,1
DA:1856,1
DA:1872,1
DA:1887,1
DA:1896,1
DA:1903,1
DA:1910,1
DA:1920,1
DA:1934,1
DA:1948,1
DA:1956,1
DA:1966,1
DA:1976,1
DA:1989,1
DA:2002,1
DA:2018,1
DA:2029,1
DA:2048,1
DA:2061,1
DA:2074,1
DA:2107,1
DA:2131,1
DA:2147,1
DA:2161,1
DA:2176,1
DA:2198,1
DA:2223,1
DA:2250,1
DA:2265,1
DA:2282,1
DA:2297,1
DA:2319,1
DA:2349,1
DA:2377,1
DA:2393,1
DA:2404,1
DA:2419,1
DA:2437,1
DA:2453,1
DA:2471,1
DA:2483,1
DA:2498,1
BRF:0
BRH:0
LF:501
LH:328
end_of_record
SF:/home/nenad/repos/rust-contracts-stylus/contracts/src/utils/cryptography/ecdsa.rs
FN:42,_RNvXs5_NtNtNtCsa86sUp9HUqm_19openzeppelin_stylus5utils12cryptography5ecdsaINtNtCsdDMkpvQxPWz_5alloc3vec3VechEINtNtCshuVUGNokh5j_4core7convert4FromNtB5_5ErrorE4from
FN:51,_RNvXNtNtNtCsa86sUp9HUqm_19openzeppelin_stylus5utils12cryptography5ecdsaNtB2_5ErrorNtNtNtCs8c3p7fi1c1U_10stylus_sdk4call5error11MethodError6encode
FN:163,_RNvNtNtNtCsa86sUp9HUqm_19openzeppelin_stylus5utils12cryptography5ecdsa15encode_calldata
FN:198,_RNvNtNtNtCsa86sUp9HUqm_19openzeppelin_stylus5utils12cryptography5ecdsa18check_if_malleable
FN:42,_RNvXs3_NtNtNtCsa86sUp9HUqm_19openzeppelin_stylus5utils12cryptography5ecdsaNtB5_5ErrorINtNtCshuVUGNokh5j_4core7convert4FromNtB5_21ECDSAInvalidSignatureE4from
FN:42,_RNvXs4_NtNtNtCsa86sUp9HUqm_19openzeppelin_stylus5utils12cryptography5ecdsaNtB5_5ErrorINtNtCshuVUGNokh5j_4core7convert4FromNtB5_22ECDSAInvalidSignatureSE4from
FN:91,_RINvNtNtNtCsa86sUp9HUqm_19openzeppelin_stylus5utils12cryptography5ecdsa7recoverpEB8_
FN:126,_RINvNtNtNtCsa86sUp9HUqm_19openzeppelin_stylus5utils12cryptography5ecdsa8__recoverpEB8_
FN:91,_RINvNtNtNtCsa86sUp9HUqm_19openzeppelin_stylus5utils12cryptography5ecdsa7recoverNtCsfOYoaKeNY6d_20cryptography_example12ECDSAExampleEB1h_
FN:126,_RINvNtNtNtCsa86sUp9HUqm_19openzeppelin_stylus5utils12cryptography5ecdsa8__recoverNtCsfOYoaKeNY6d_20cryptography_example12ECDSAExampleEB1j_
FN:91,_RINvNtNtNtCsa86sUp9HUqm_19openzeppelin_stylus5utils12cryptography5ecdsa7recoverINtNtNtNtNtB8_5token5erc2010extensions6permit11Erc20PermitNtCs2fSegj5ukpe_20erc20_permit_example6Eip712EEB2d_
FN:126,_RINvNtNtNtCsa86sUp9HUqm_19openzeppelin_stylus5utils12cryptography5ecdsa8__recoverINtNtNtNtNtB8_5token5erc2010extensions6permit11Erc20PermitNtCs2fSegj5ukpe_20erc20_permit_example6Eip712EEB2f_
FN:91,_RINvNtNtNtCsa86sUp9HUqm_19openzeppelin_stylus5utils12cryptography5ecdsa7recoverNtCs8fJA37oU0vQ_20cryptography_example12ECDSAExampleEB1h_
FN:126,_RINvNtNtNtCsa86sUp9HUqm_19openzeppelin_stylus5utils12cryptography5ecdsa8__recoverNtCs8fJA37oU0vQ_20cryptography_example12ECDSAExampleEB1j_
FN:91,_RINvNtNtNtCsa86sUp9HUqm_19openzeppelin_stylus5utils12cryptography5ecdsa7recoverINtNtNtNtNtB8_5token5erc2010extensions6permit11Erc20PermitNtCs4grWTwdL5S6_20erc20_permit_example6Eip712EEB2d_
FN:126,_RINvNtNtNtCsa86sUp9HUqm_19openzeppelin_stylus5utils12cryptography5ecdsa8__recoverINtNtNtNtNtB8_5token5erc2010extensions6permit11Erc20PermitNtCs4grWTwdL5S6_20erc20_permit_example6Eip712EEB2f_
FN:27,_RNvNvNtNtNtCs6vaqcEMrLsG_19openzeppelin_stylus5utils12cryptography5ecdsa1__15__type_assertion
FN:27,_RNvNvNtNtNtCs6vaqcEMrLsG_19openzeppelin_stylus5utils12cryptography5ecdsas_1__15__type_assertion
FN:42,_RNvXs3_NtNtNtCs6vaqcEMrLsG_19openzeppelin_stylus5utils12cryptography5ecdsaNtB5_5ErrorINtNtCshuVUGNokh5j_4core7convert4FromNtB5_21ECDSAInvalidSignatureE4from
FN:42,_RNvXs5_NtNtNtCs6vaqcEMrLsG_19openzeppelin_stylus5utils12cryptography5ecdsaINtNtCsdDMkpvQxPWz_5alloc3vec3VechEINtNtCshuVUGNokh5j_4core7convert4FromNtB5_5ErrorE4from
FN:51,_RNvXNtNtNtCs6vaqcEMrLsG_19openzeppelin_stylus5utils12cryptography5ecdsaNtB2_5ErrorNtNtNtCs8c3p7fi1c1U_10stylus_sdk4call5error11MethodError6encode
FN:56,_RNvNvNtNtNtCs6vaqcEMrLsG_19openzeppelin_stylus5utils12cryptography5ecdsas0_1__15__type_assertion
FN:91,_RINvNtNtNtCs6vaqcEMrLsG_19openzeppelin_stylus5utils12cryptography5ecdsa7recoverpEB8_
FN:126,_RINvNtNtNtCs6vaqcEMrLsG_19openzeppelin_stylus5utils12cryptography5ecdsa8__recoverpEB8_
FN:163,_RNvNtNtNtCs6vaqcEMrLsG_19openzeppelin_stylus5utils12cryptography5ecdsa15encode_calldata
FN:198,_RNvNtNtNtCs6vaqcEMrLsG_19openzeppelin_stylus5utils12cryptography5ecdsa18check_if_malleable
FN:42,_RNvXs4_NtNtNtCs6vaqcEMrLsG_19openzeppelin_stylus5utils12cryptography5ecdsaNtB5_5ErrorINtNtCshuVUGNokh5j_4core7convert4FromNtB5_22ECDSAInvalidSignatureSE4from
FN:224,_RNvNtNtNtNtCs6vaqcEMrLsG_19openzeppelin_stylus5utils12cryptography5ecdsa5testss_17prepares_calldata
FN:231,_RNvNtNtNtNtCs6vaqcEMrLsG_19openzeppelin_stylus5utils12cryptography5ecdsa5testss_17rejects_invalid_s
FN:245,_RNvNtNtNtNtCs6vaqcEMrLsG_19openzeppelin_stylus5utils12cryptography5ecdsa5testss_11validates_s
FNDA:0,_RNvXs5_NtNtNtCsa86sUp9HUqm_19openzeppelin_stylus5utils12cryptography5ecdsaINtNtCsdDMkpvQxPWz_5alloc3vec3VechEINtNtCshuVUGNokh5j_4core7convert4FromNtB5_5ErrorE4from
FNDA:0,_RNvXNtNtNtCsa86sUp9HUqm_19openzeppelin_stylus5utils12cryptography5ecdsaNtB2_5ErrorNtNtNtCs8c3p7fi1c1U_10stylus_sdk4call5error11MethodError6encode
FNDA:0,_RNvNtNtNtCsa86sUp9HUqm_19openzeppelin_stylus5utils12cryptography5ecdsa15encode_calldata
FNDA:0,_RNvNtNtNtCsa86sUp9HUqm_19openzeppelin_stylus5utils12cryptography5ecdsa18check_if_malleable
FNDA:0,_RNvXs3_NtNtNtCsa86sUp9HUqm_19openzeppelin_stylus5utils12cryptography5ecdsaNtB5_5ErrorINtNtCshuVUGNokh5j_4core7convert4FromNtB5_21ECDSAInvalidSignatureE4from
FNDA:0,_RNvXs4_NtNtNtCsa86sUp9HUqm_19openzeppelin_stylus5utils12cryptography5ecdsaNtB5_5ErrorINtNtCshuVUGNokh5j_4core7convert4FromNtB5_22ECDSAInvalidSignatureSE4from
FNDA:0,_RINvNtNtNtCsa86sUp9HUqm_19openzeppelin_stylus5utils12cryptography5ecdsa7recoverpEB8_
FNDA:0,_RINvNtNtNtCsa86sUp9HUqm_19openzeppelin_stylus5utils12cryptography5ecdsa8__recoverpEB8_
FNDA:0,_RINvNtNtNtCsa86sUp9HUqm_19openzeppelin_stylus5utils12cryptography5ecdsa7recoverNtCsfOYoaKeNY6d_20cryptography_example12ECDSAExampleEB1h_
FNDA:0,_RINvNtNtNtCsa86sUp9HUqm_19openzeppelin_stylus5utils12cryptography5ecdsa8__recoverNtCsfOYoaKeNY6d_20cryptography_example12ECDSAExampleEB1j_
FNDA:0,_RINvNtNtNtCsa86sUp9HUqm_19openzeppelin_stylus5utils12cryptography5ecdsa7recoverINtNtNtNtNtB8_5token5erc2010extensions6permit11Erc20PermitNtCs2fSegj5ukpe_20erc20_permit_example6Eip712EEB2d_
FNDA:0,_RINvNtNtNtCsa86sUp9HUqm_19openzeppelin_stylus5utils12cryptography5ecdsa8__recoverINtNtNtNtNtB8_5token5erc2010extensions6permit11Erc20PermitNtCs2fSegj5ukpe_20erc20_permit_example6Eip712EEB2f_
FNDA:0,_RINvNtNtNtCsa86sUp9HUqm_19openzeppelin_stylus5utils12cryptography5ecdsa7recoverNtCs8fJA37oU0vQ_20cryptography_example12ECDSAExampleEB1h_
FNDA:0,_RINvNtNtNtCsa86sUp9HUqm_19openzeppelin_stylus5utils12cryptography5ecdsa8__recoverNtCs8fJA37oU0vQ_20cryptography_example12ECDSAExampleEB1j_
FNDA:0,_RINvNtNtNtCsa86sUp9HUqm_19openzeppelin_stylus5utils12cryptography5ecdsa7recoverINtNtNtNtNtB8_5token5erc2010extensions6permit11Erc20PermitNtCs4grWTwdL5S6_20erc20_permit_example6Eip712EEB2d_
FNDA:0,_RINvNtNtNtCsa86sUp9HUqm_19openzeppelin_stylus5utils12cryptography5ecdsa8__recoverINtNtNtNtNtB8_5token5erc2010extensions6permit11Erc20PermitNtCs4grWTwdL5S6_20erc20_permit_example6Eip712EEB2f_
FNDA:0,_RNvNvNtNtNtCs6vaqcEMrLsG_19openzeppelin_stylus5utils12cryptography5ecdsa1__15__type_assertion
FNDA:0,_RNvNvNtNtNtCs6vaqcEMrLsG_19openzeppelin_stylus5utils12cryptography5ecdsas_1__15__type_assertion
FNDA:0,_RNvXs3_NtNtNtCs6vaqcEMrLsG_19openzeppelin_stylus5utils12cryptography5ecdsaNtB5_5ErrorINtNtCshuVUGNokh5j_4core7convert4FromNtB5_21ECDSAInvalidSignatureE4from
FNDA:0,_RNvXs5_NtNtNtCs6vaqcEMrLsG_19openzeppelin_stylus5utils12cryptography5ecdsaINtNtCsdDMkpvQxPWz_5alloc3vec3VechEINtNtCshuVUGNokh5j_4core7convert4FromNtB5_5ErrorE4from
FNDA:0,_RNvXNtNtNtCs6vaqcEMrLsG_19openzeppelin_stylus5utils12cryptography5ecdsaNtB2_5ErrorNtNtNtCs8c3p7fi1c1U_10stylus_sdk4call5error11MethodError6encode
FNDA:0,_RNvNvNtNtNtCs6vaqcEMrLsG_19openzeppelin_stylus5utils12cryptography5ecdsas0_1__15__type_assertion
FNDA:0,_RINvNtNtNtCs6vaqcEMrLsG_19openzeppelin_stylus5utils12cryptography5ecdsa7recoverpEB8_
FNDA:0,_RINvNtNtNtCs6vaqcEMrLsG_19openzeppelin_stylus5utils12cryptography5ecdsa8__recoverpEB8_
FNDA:1,_RNvNtNtNtCs6vaqcEMrLsG_19openzeppelin_stylus5utils12cryptography5ecdsa15encode_calldata
FNDA:2,_RNvNtNtNtCs6vaqcEMrLsG_19openzeppelin_stylus5utils12cryptography5ecdsa18check_if_malleable
FNDA:1,_RNvXs4_NtNtNtCs6vaqcEMrLsG_19openzeppelin_stylus5utils12cryptography5ecdsaNtB5_5ErrorINtNtCshuVUGNokh5j_4core7convert4FromNtB5_22ECDSAInvalidSignatureSE4from
FNDA:1,_RNvNtNtNtNtCs6vaqcEMrLsG_19openzeppelin_stylus5utils12cryptography5ecdsa5testss_17prepares_calldata
FNDA:1,_RNvNtNtNtNtCs6vaqcEMrLsG_19openzeppelin_stylus5utils12cryptography5ecdsa5testss_17rejects_invalid_s
FNDA:1,_RNvNtNtNtNtCs6vaqcEMrLsG_19openzeppelin_stylus5utils12cryptography5ecdsa5testss_11validates_s
FNF:11
FNH:6
DA:27,0
DA:28,0
DA:29,0
DA:30,0
DA:31,0
DA:32,0
DA:33,0
DA:34,0
DA:35,0
DA:36,0
DA:37,0
DA:38,0
DA:39,0
DA:42,0
DA:51,0
DA:52,0
DA:53,0
DA:56,0
DA:57,0
DA:58,0
DA:59,0
DA:60,0
DA:61,0
DA:62,0
DA:63,0
DA:64,0
DA:65,0
DA:66,0
DA:67,0
DA:68,0
DA:69,0
DA:91,0
DA:92,0
DA:93,0
DA:94,0
DA:95,0
DA:96,0
DA:97,0
DA:98,0
DA:100,0
DA:101,0
DA:126,0
DA:127,0
DA:128,0
DA:129,0
DA:130,0
DA:131,0
DA:132,0
DA:133,0
DA:134,0
DA:135,0
DA:140,0
DA:141,0
DA:142,0
DA:143,0
DA:144,0
DA:145,0
DA:146,0
DA:147,0
DA:148,0
DA:149,0
DA:150,0
DA:151,0
DA:152,0
DA:153,0
DA:163,1
DA:164,1
DA:165,1
DA:166,1
DA:198,2
DA:199,2
DA:200,2
DA:201,1
DA:202,1
DA:203,1
DA:204,2
DA:224,1
DA:225,1
DA:226,1
DA:227,1
DA:228,1
DA:231,1
DA:232,1
DA:233,1
DA:234,1
DA:235,1
DA:236,1
DA:237,1
DA:239,1
DA:240,1
DA:242,1
DA:245,1
DA:246,1
DA:247,1
DA:248,1
DA:249,1
DA:250,1
BRF:0
BRH:0
LF:97
LH:33
end_of_record
SF:/home/nenad/repos/rust-contracts-stylus/contracts/src/utils/cryptography/eip712.rs
FN:78,_RNvYpNtNtNtNtCsa86sUp9HUqm_19openzeppelin_stylus5utils12cryptography6eip7127IEip7128chain_idBb_
FN:83,_RNvYpNtNtNtNtCsa86sUp9HUqm_19openzeppelin_stylus5utils12cryptography6eip7127IEip71216contract_addressBb_
FN:93,_RNvYpNtNtNtNtCsa86sUp9HUqm_19openzeppelin_stylus5utils12cryptography6eip7127IEip71213eip712_domainBb_
FN:112,_RNvYpNtNtNtNtCsa86sUp9HUqm_19openzeppelin_stylus5utils12cryptography6eip7127IEip71219domain_separator_v4Bb_
FN:132,_RNvYpNtNtNtNtCsa86sUp9HUqm_19openzeppelin_stylus5utils12cryptography6eip7127IEip71218hash_typed_data_v4Bb_
FN:83,_RNvYNtCs2fSegj5ukpe_20erc20_permit_example6Eip712NtNtNtNtCsa86sUp9HUqm_19openzeppelin_stylus5utils12cryptography6eip7127IEip71216contract_addressB4_
FN:132,_RNvYNtCs2fSegj5ukpe_20erc20_permit_example6Eip712NtNtNtNtCsa86sUp9HUqm_19openzeppelin_stylus5utils12cryptography6eip7127IEip71218hash_typed_data_v4B4_
FN:112,_RNvYNtCs2fSegj5ukpe_20erc20_permit_example6Eip712NtNtNtNtCsa86sUp9HUqm_19openzeppelin_stylus5utils12cryptography6eip7127IEip71219domain_separator_v4B4_
FN:78,_RNvYNtCs2fSegj5ukpe_20erc20_permit_example6Eip712NtNtNtNtCsa86sUp9HUqm_19openzeppelin_stylus5utils12cryptography6eip7127IEip7128chain_idB4_
FN:51,_RNvNtNtNtCsa86sUp9HUqm_19openzeppelin_stylus5utils12cryptography6eip71218to_typed_data_hash
FN:83,_RNvYNtCs4grWTwdL5S6_20erc20_permit_example6Eip712NtNtNtNtCsa86sUp9HUqm_19openzeppelin_stylus5utils12cryptography6eip7127IEip71216contract_addressB4_
FN:132,_RNvYNtCs4grWTwdL5S6_20erc20_permit_example6Eip712NtNtNtNtCsa86sUp9HUqm_19openzeppelin_stylus5utils12cryptography6eip7127IEip71218hash_typed_data_v4B4_
FN:112,_RNvYNtCs4grWTwdL5S6_20erc20_permit_example6Eip712NtNtNtNtCsa86sUp9HUqm_19openzeppelin_stylus5utils12cryptography6eip7127IEip71219domain_separator_v4B4_
FN:78,_RNvYNtCs4grWTwdL5S6_20erc20_permit_example6Eip712NtNtNtNtCsa86sUp9HUqm_19openzeppelin_stylus5utils12cryptography6eip7127IEip7128chain_idB4_
FN:78,_RNvYpNtNtNtNtCs6vaqcEMrLsG_19openzeppelin_stylus5utils12cryptography6eip7127IEip7128chain_idBb_
FN:83,_RNvYpNtNtNtNtCs6vaqcEMrLsG_19openzeppelin_stylus5utils12cryptography6eip7127IEip71216contract_addressBb_
FN:112,_RNvYpNtNtNtNtCs6vaqcEMrLsG_19openzeppelin_stylus5utils12cryptography6eip7127IEip71219domain_separator_v4Bb_
FN:132,_RNvYpNtNtNtNtCs6vaqcEMrLsG_19openzeppelin_stylus5utils12cryptography6eip7127IEip71218hash_typed_data_v4Bb_
FN:93,_RNvYNtNtNtNtNtCs6vaqcEMrLsG_19openzeppelin_stylus5utils12cryptography6eip7125tests10TestEIP712NtB6_7IEip71213eip712_domainBc_
FN:51,_RNvNtNtNtCs6vaqcEMrLsG_19openzeppelin_stylus5utils12cryptography6eip71218to_typed_data_hash
FN:156,_RNvXNtNtNtNtCs6vaqcEMrLsG_19openzeppelin_stylus5utils12cryptography6eip7125testsNtB2_10TestEIP712NtB4_7IEip7128chain_id
FN:160,_RNvXNtNtNtNtCs6vaqcEMrLsG_19openzeppelin_stylus5utils12cryptography6eip7125testsNtB2_10TestEIP712NtB4_7IEip71216contract_address
FN:166,_RNvNtNtNtNtCs6vaqcEMrLsG_19openzeppelin_stylus5utils12cryptography6eip7125testss_11domain_test
FN:179,_RNvNtNtNtNtCs6vaqcEMrLsG_19openzeppelin_stylus5utils12cryptography6eip7125testss_23test_to_typed_data_hash
FNDA:0,_RNvYpNtNtNtNtCsa86sUp9HUqm_19openzeppelin_stylus5utils12cryptography6eip7127IEip7128chain_idBb_
FNDA:0,_RNvYpNtNtNtNtCsa86sUp9HUqm_19openzeppelin_stylus5utils12cryptography6eip7127IEip71216contract_addressBb_
FNDA:0,_RNvYpNtNtNtNtCsa86sUp9HUqm_19openzeppelin_stylus5utils12cryptography6eip7127IEip71213eip712_domainBb_
FNDA:0,_RNvYpNtNtNtNtCsa86sUp9HUqm_19openzeppelin_stylus5utils12cryptography6eip7127IEip71219domain_separator_v4Bb_
FNDA:0,_RNvYpNtNtNtNtCsa86sUp9HUqm_19openzeppelin_stylus5utils12cryptography6eip7127IEip71218hash_typed_data_v4Bb_
FNDA:0,_RNvYNtCs2fSegj5ukpe_20erc20_permit_example6Eip712NtNtNtNtCsa86sUp9HUqm_19openzeppelin_stylus5utils12cryptography6eip7127IEip71216contract_addressB4_
FNDA:0,_RNvYNtCs2fSegj5ukpe_20erc20_permit_example6Eip712NtNtNtNtCsa86sUp9HUqm_19openzeppelin_stylus5utils12cryptography6eip7127IEip71218hash_typed_data_v4B4_
FNDA:0,_RNvYNtCs2fSegj5ukpe_20erc20_permit_example6Eip712NtNtNtNtCsa86sUp9HUqm_19openzeppelin_stylus5utils12cryptography6eip7127IEip71219domain_separator_v4B4_
FNDA:0,_RNvYNtCs2fSegj5ukpe_20erc20_permit_example6Eip712NtNtNtNtCsa86sUp9HUqm_19openzeppelin_stylus5utils12cryptography6eip7127IEip7128chain_idB4_
FNDA:0,_RNvNtNtNtCsa86sUp9HUqm_19openzeppelin_stylus5utils12cryptography6eip71218to_typed_data_hash
FNDA:0,_RNvYNtCs4grWTwdL5S6_20erc20_permit_example6Eip712NtNtNtNtCsa86sUp9HUqm_19openzeppelin_stylus5utils12cryptography6eip7127IEip71216contract_addressB4_
FNDA:0,_RNvYNtCs4grWTwdL5S6_20erc20_permit_example6Eip712NtNtNtNtCsa86sUp9HUqm_19openzeppelin_stylus5utils12cryptography6eip7127IEip71218hash_typed_data_v4B4_
FNDA:0,_RNvYNtCs4grWTwdL5S6_20erc20_permit_example6Eip712NtNtNtNtCsa86sUp9HUqm_19openzeppelin_stylus5utils12cryptography6eip7127IEip71219domain_separator_v4B4_
FNDA:0,_RNvYNtCs4grWTwdL5S6_20erc20_permit_example6Eip712NtNtNtNtCsa86sUp9HUqm_19openzeppelin_stylus5utils12cryptography6eip7127IEip7128chain_idB4_
FNDA:0,_RNvYpNtNtNtNtCs6vaqcEMrLsG_19openzeppelin_stylus5utils12cryptography6eip7127IEip7128chain_idBb_
FNDA:0,_RNvYpNtNtNtNtCs6vaqcEMrLsG_19openzeppelin_stylus5utils12cryptography6eip7127IEip71216contract_addressBb_
FNDA:0,_RNvYpNtNtNtNtCs6vaqcEMrLsG_19openzeppelin_stylus5utils12cryptography6eip7127IEip71219domain_separator_v4Bb_
FNDA:0,_RNvYpNtNtNtNtCs6vaqcEMrLsG_19openzeppelin_stylus5utils12cryptography6eip7127IEip71218hash_typed_data_v4Bb_
FNDA:1,_RNvYNtNtNtNtNtCs6vaqcEMrLsG_19openzeppelin_stylus5utils12cryptography6eip7125tests10TestEIP712NtB6_7IEip71213eip712_domainBc_
FNDA:1,_RNvNtNtNtCs6vaqcEMrLsG_19openzeppelin_stylus5utils12cryptography6eip71218to_typed_data_hash
FNDA:1,_RNvXNtNtNtNtCs6vaqcEMrLsG_19openzeppelin_stylus5utils12cryptography6eip7125testsNtB2_10TestEIP712NtB4_7IEip7128chain_id
FNDA:1,_RNvXNtNtNtNtCs6vaqcEMrLsG_19openzeppelin_stylus5utils12cryptography6eip7125testsNtB2_10TestEIP712NtB4_7IEip71216contract_address
FNDA:1,_RNvNtNtNtNtCs6vaqcEMrLsG_19openzeppelin_stylus5utils12cryptography6eip7125testss_11domain_test
FNDA:1,_RNvNtNtNtNtCs6vaqcEMrLsG_19openzeppelin_stylus5utils12cryptography6eip7125testss_23test_to_typed_data_hash
FNF:10
FNH:6
DA:51,1
DA:52,1
DA:53,1
DA:54,1
DA:55,1
DA:56,1
DA:57,1
DA:58,1
DA:59,1
DA:60,1
DA:78,0
DA:79,0
DA:80,0
DA:83,0
DA:84,0
DA:85,0
DA:93,1
DA:94,1
DA:95,1
DA:96,1
DA:97,1
DA:98,1
DA:99,1
DA:100,1
DA:101,1
DA:102,1
DA:103,1
DA:104,1
DA:105,1
DA:112,0
DA:113,0
DA:114,0
DA:115,0
DA:116,0
DA:117,0
DA:118,0
DA:119,0
DA:120,0
DA:121,0
DA:122,0
DA:132,0
DA:133,0
DA:134,0
DA:135,0
DA:156,1
DA:157,1
DA:158,1
DA:160,1
DA:161,1
DA:162,1
DA:166,1
DA:167,1
DA:168,1
DA:169,1
DA:170,1
DA:171,1
DA:172,1
DA:173,1
DA:174,1
DA:175,1
DA:176,1
DA:179,1
DA:180,1
DA:181,1
DA:182,1
DA:183,1
DA:184,1
DA:185,1
DA:186,1
DA:187,1
DA:188,1
DA:189,1
DA:190,1
DA:191,1
DA:192,1
DA:193,1
DA:194,1
DA:195,1
DA:196,1
BRF:0
BRH:0
LF:79
LH:58
end_of_record
SF:/home/nenad/repos/rust-contracts-stylus/contracts/src/utils/introspection/erc165.rs
FN:61,_RNvXNtNtNtCsa86sUp9HUqm_19openzeppelin_stylus5utils13introspection6erc165NtB2_6Erc165NtB2_7IErc16518supports_interface
FN:61,_RNvXNtNtNtCs6vaqcEMrLsG_19openzeppelin_stylus5utils13introspection6erc165NtB2_6Erc165NtB2_7IErc16518supports_interface
FNDA:0,_RNvXNtNtNtCsa86sUp9HUqm_19openzeppelin_stylus5utils13introspection6erc165NtB2_6Erc165NtB2_7IErc16518supports_interface
FNDA:0,_RNvXNtNtNtCs6vaqcEMrLsG_19openzeppelin_stylus5utils13introspection6erc165NtB2_6Erc165NtB2_7IErc16518supports_interface
FNF:1
FNH:0
DA:61,0
DA:62,0
DA:63,0
BRF:0
BRH:0
LF:3
LH:0
end_of_record
SF:/home/nenad/repos/rust-contracts-stylus/contracts/src/utils/math/alloy.rs
FN:28,_RNvXNtNtNtCsa86sUp9HUqm_19openzeppelin_stylus5utils4math5alloyINtCs1K7JgRVbVtq_5ruint4UintKj100_Kj4_ENtB2_4Math4sqrt
FN:139,_RNvXNtNtNtCsa86sUp9HUqm_19openzeppelin_stylus5utils4math5alloyINtCs1K7JgRVbVtq_5ruint4UintKj100_Kj4_ENtB2_4Math7average
FN:157,_RNvNtNtNtNtCs6vaqcEMrLsG_19openzeppelin_stylus5utils4math5alloy5testss_10check_sqrt
FN:165,_RNvNtNtNtNtCs6vaqcEMrLsG_19openzeppelin_stylus5utils4math5alloy5testss_13check_average
FN:28,_RNvXNtNtNtCs6vaqcEMrLsG_19openzeppelin_stylus5utils4math5alloyINtCs1K7JgRVbVtq_5ruint4UintKj100_Kj4_ENtB2_4Math4sqrt
FN:139,_RNvXNtNtNtCs6vaqcEMrLsG_19openzeppelin_stylus5utils4math5alloyINtCs1K7JgRVbVtq_5ruint4UintKj100_Kj4_ENtB2_4Math7average
FNDA:0,_RNvXNtNtNtCsa86sUp9HUqm_19openzeppelin_stylus5utils4math5alloyINtCs1K7JgRVbVtq_5ruint4UintKj100_Kj4_ENtB2_4Math4sqrt
FNDA:0,_RNvXNtNtNtCsa86sUp9HUqm_19openzeppelin_stylus5utils4math5alloyINtCs1K7JgRVbVtq_5ruint4UintKj100_Kj4_ENtB2_4Math7average
FNDA:1,_RNvNtNtNtNtCs6vaqcEMrLsG_19openzeppelin_stylus5utils4math5alloy5testss_10check_sqrt
FNDA:1,_RNvNtNtNtNtCs6vaqcEMrLsG_19openzeppelin_stylus5utils4math5alloy5testss_13check_average
FNDA:260,_RNvXNtNtNtCs6vaqcEMrLsG_19openzeppelin_stylus5utils4math5alloyINtCs1K7JgRVbVtq_5ruint4UintKj100_Kj4_ENtB2_4Math4sqrt
FNDA:293,_RNvXNtNtNtCs6vaqcEMrLsG_19openzeppelin_stylus5utils4math5alloyINtCs1K7JgRVbVtq_5ruint4UintKj100_Kj4_ENtB2_4Math7average
FNF:4
FNH:4
DA:28,260
DA:29,260
DA:30,260
DA:31,260
DA:32,0
DA:33,260
DA:34,260
DA:35,260
DA:36,260
DA:37,260
DA:38,260
DA:39,260
DA:40,260
DA:41,260
DA:42,260
DA:43,260
DA:44,260
DA:45,260
DA:46,260
DA:47,260
DA:48,260
DA:49,260
DA:50,260
DA:51,260
DA:52,260
DA:53,260
DA:54,256
DA:55,256
DA:56,256
DA:57,260
DA:58,256
DA:59,256
DA:60,256
DA:61,260
DA:62,256
DA:63,256
DA:64,256
DA:65,260
DA:66,256
DA:67,256
DA:68,256
DA:69,260
DA:70,256
DA:71,256
DA:72,256
DA:73,260
DA:74,240
DA:75,240
DA:76,240
DA:77,260
DA:78,209
DA:79,209
DA:88,260
DA:89,260
DA:90,260
DA:91,260
DA:92,260
DA:93,260
DA:94,260
DA:95,260
DA:96,260
DA:97,260
DA:98,260
DA:99,260
DA:100,260
DA:101,260
DA:102,260
DA:103,260
DA:104,260
DA:105,260
DA:106,260
DA:107,260
DA:108,260
DA:109,260
DA:110,260
DA:111,260
DA:112,260
DA:113,260
DA:114,260
DA:115,260
DA:116,260
DA:117,260
DA:118,260
DA:119,260
DA:120,260
DA:121,260
DA:122,260
DA:123,260
DA:124,260
DA:125,260
DA:126,260
DA:127,260
DA:128,260
DA:129,260
DA:130,260
DA:131,260
DA:132,260
DA:133,260
DA:134,260
DA:135,260
DA:136,260
DA:137,260
DA:139,293
DA:140,293
DA:141,293
DA:142,293
DA:143,293
DA:144,293
DA:145,293
DA:146,293
DA:147,293
DA:157,1
DA:158,1
DA:159,1
DA:160,1
DA:161,1
DA:162,1
DA:165,1
DA:166,1
DA:167,1
DA:168,1
DA:169,1
DA:170,1
DA:171,1
BRF:0
BRH:0
LF:124
LH:123
end_of_record
SF:/home/nenad/repos/rust-contracts-stylus/contracts/src/utils/math/storage.rs
FN:12,_RNvXNtNtNtCsa86sUp9HUqm_19openzeppelin_stylus5utils4math7storageINtNtNtCs8c3p7fi1c1U_10stylus_sdk7storage6traits15StorageGuardMutINtB15_11StorageUintKj100_Kj4_EEINtB2_18AddAssignUncheckedINtCs1K7JgRVbVtq_5ruint4UintKB2o_KB2u_EE20add_assign_uncheckedB8_
FN:25,_RNvXs_NtNtNtCsa86sUp9HUqm_19openzeppelin_stylus5utils4math7storageINtNtNtCs8c3p7fi1c1U_10stylus_sdk7storage6traits15StorageGuardMutINtB17_11StorageUintKj100_Kj4_EEINtB4_18SubAssignUncheckedINtCs1K7JgRVbVtq_5ruint4UintKB2q_KB2w_EE20sub_assign_uncheckedBa_
FN:12,_RNvXNtNtNtCs6vaqcEMrLsG_19openzeppelin_stylus5utils4math7storageINtNtNtCs8c3p7fi1c1U_10stylus_sdk7storage6traits15StorageGuardMutINtB15_11StorageUintKj100_Kj4_EEINtB2_18AddAssignUncheckedINtCs1K7JgRVbVtq_5ruint4UintKB2o_KB2u_EE20add_assign_uncheckedB8_
FN:25,_RNvXs_NtNtNtCs6vaqcEMrLsG_19openzeppelin_stylus5utils4math7storageINtNtNtCs8c3p7fi1c1U_10stylus_sdk7storage6traits15StorageGuardMutINtB17_11StorageUintKj100_Kj4_EEINtB4_18SubAssignUncheckedINtCs1K7JgRVbVtq_5ruint4UintKB2q_KB2w_EE20sub_assign_uncheckedBa_
FNDA:0,_RNvXNtNtNtCsa86sUp9HUqm_19openzeppelin_stylus5utils4math7storageINtNtNtCs8c3p7fi1c1U_10stylus_sdk7storage6traits15StorageGuardMutINtB15_11StorageUintKj100_Kj4_EEINtB2_18AddAssignUncheckedINtCs1K7JgRVbVtq_5ruint4UintKB2o_KB2u_EE20add_assign_uncheckedB8_
FNDA:0,_RNvXs_NtNtNtCsa86sUp9HUqm_19openzeppelin_stylus5utils4math7storageINtNtNtCs8c3p7fi1c1U_10stylus_sdk7storage6traits15StorageGuardMutINtB17_11StorageUintKj100_Kj4_EEINtB4_18SubAssignUncheckedINtCs1K7JgRVbVtq_5ruint4UintKB2q_KB2w_EE20sub_assign_uncheckedBa_
FNDA:113,_RNvXNtNtNtCs6vaqcEMrLsG_19openzeppelin_stylus5utils4math7storageINtNtNtCs8c3p7fi1c1U_10stylus_sdk7storage6traits15StorageGuardMutINtB15_11StorageUintKj100_Kj4_EEINtB2_18AddAssignUncheckedINtCs1K7JgRVbVtq_5ruint4UintKB2o_KB2u_EE20add_assign_uncheckedB8_
FNDA:65,_RNvXs_NtNtNtCs6vaqcEMrLsG_19openzeppelin_stylus5utils4math7storageINtNtNtCs8c3p7fi1c1U_10stylus_sdk7storage6traits15StorageGuardMutINtB17_11StorageUintKj100_Kj4_EEINtB4_18SubAssignUncheckedINtCs1K7JgRVbVtq_5ruint4UintKB2q_KB2w_EE20sub_assign_uncheckedBa_
FNF:2
FNH:2
DA:12,113
DA:13,113
DA:14,113
DA:15,113
DA:25,65
DA:26,65
DA:27,65
DA:28,65
BRF:0
BRH:0
LF:8
LH:8
end_of_record
SF:/home/nenad/repos/rust-contracts-stylus/contracts/src/utils/metadata.rs
FN:16,_RNvXININtNtCsa86sUp9HUqm_19openzeppelin_stylus5utils8metadatas1_0pENtB5_8MetadataINtNtCs8c3p7fi1c1U_10stylus_sdk3abi6RouterpE5routeB9_
FN:14,_RNvMNtNtCsa86sUp9HUqm_19openzeppelin_stylus5utils8metadataNtB2_8Metadata14required_slots
FN:14,_RNvXs_NtNtCsa86sUp9HUqm_19openzeppelin_stylus5utils8metadataNtB4_8MetadataNtNtNtCs8c3p7fi1c1U_10stylus_sdk7storage6traits11StorageType3new
FN:6,_RNvXs_NtNtCsa86sUp9HUqm_19openzeppelin_stylus5utils8metadataNtB4_8MetadataNtNtNtCs8c3p7fi1c1U_10stylus_sdk7storage6traits11StorageType4load
FN:6,_RNvXs_NtNtCsa86sUp9HUqm_19openzeppelin_stylus5utils8metadataNtB4_8MetadataNtNtNtCs8c3p7fi1c1U_10stylus_sdk7storage6traits11StorageType8load_mut
FN:23,_RNvMs0_NtNtCsa86sUp9HUqm_19openzeppelin_stylus5utils8metadataNtB5_8Metadata4name
FN:32,_RNvMs0_NtNtCsa86sUp9HUqm_19openzeppelin_stylus5utils8metadataNtB5_8Metadata6symbol
FN:16,_RNvMs2_NtNtCsa86sUp9HUqm_19openzeppelin_stylus5utils8metadataNtB5_8Metadata23___stylus_allow_override
FN:16,_RNvMs2_NtNtCsa86sUp9HUqm_19openzeppelin_stylus5utils8metadataNtB5_8Metadata25___stylus_assert_overrides
FN:14,_RNvMNtNtCs6vaqcEMrLsG_19openzeppelin_stylus5utils8metadataNtB2_8Metadata14required_slots
FN:6,_RNvXs_NtNtCs6vaqcEMrLsG_19openzeppelin_stylus5utils8metadataNtB4_8MetadataNtNtNtCs8c3p7fi1c1U_10stylus_sdk7storage6traits11StorageType4load
FN:6,_RNvXs_NtNtCs6vaqcEMrLsG_19openzeppelin_stylus5utils8metadataNtB4_8MetadataNtNtNtCs8c3p7fi1c1U_10stylus_sdk7storage6traits11StorageType8load_mut
FN:23,_RNvMs0_NtNtCs6vaqcEMrLsG_19openzeppelin_stylus5utils8metadataNtB5_8Metadata4name
FN:32,_RNvMs0_NtNtCs6vaqcEMrLsG_19openzeppelin_stylus5utils8metadataNtB5_8Metadata6symbol
FN:16,_RNvXININtNtCs6vaqcEMrLsG_19openzeppelin_stylus5utils8metadatas1_0pENtB5_8MetadataINtNtCs8c3p7fi1c1U_10stylus_sdk3abi6RouterpE5routeB9_
FN:16,_RNvMs2_NtNtCs6vaqcEMrLsG_19openzeppelin_stylus5utils8metadataNtB5_8Metadata23___stylus_allow_override
FN:16,_RNvMs2_NtNtCs6vaqcEMrLsG_19openzeppelin_stylus5utils8metadataNtB5_8Metadata25___stylus_assert_overrides
FN:14,_RNvXs_NtNtCs6vaqcEMrLsG_19openzeppelin_stylus5utils8metadataNtB4_8MetadataNtNtNtCs8c3p7fi1c1U_10stylus_sdk7storage6traits11StorageType3new
FNDA:0,_RNvXININtNtCsa86sUp9HUqm_19openzeppelin_stylus5utils8metadatas1_0pENtB5_8MetadataINtNtCs8c3p7fi1c1U_10stylus_sdk3abi6RouterpE5routeB9_
FNDA:0,_RNvMNtNtCsa86sUp9HUqm_19openzeppelin_stylus5utils8metadataNtB2_8Metadata14required_slots
FNDA:0,_RNvXs_NtNtCsa86sUp9HUqm_19openzeppelin_stylus5utils8metadataNtB4_8MetadataNtNtNtCs8c3p7fi1c1U_10stylus_sdk7storage6traits11StorageType3new
FNDA:0,_RNvXs_NtNtCsa86sUp9HUqm_19openzeppelin_stylus5utils8metadataNtB4_8MetadataNtNtNtCs8c3p7fi1c1U_10stylus_sdk7storage6traits11StorageType4load
FNDA:0,_RNvXs_NtNtCsa86sUp9HUqm_19openzeppelin_stylus5utils8metadataNtB4_8MetadataNtNtNtCs8c3p7fi1c1U_10stylus_sdk7storage6traits11StorageType8load_mut
FNDA:0,_RNvMs0_NtNtCsa86sUp9HUqm_19openzeppelin_stylus5utils8metadataNtB5_8Metadata4name
FNDA:0,_RNvMs0_NtNtCsa86sUp9HUqm_19openzeppelin_stylus5utils8metadataNtB5_8Metadata6symbol
FNDA:0,_RNvMs2_NtNtCsa86sUp9HUqm_19openzeppelin_stylus5utils8metadataNtB5_8Metadata23___stylus_allow_override
FNDA:0,_RNvMs2_NtNtCsa86sUp9HUqm_19openzeppelin_stylus5utils8metadataNtB5_8Metadata25___stylus_assert_overrides
FNDA:0,_RNvMNtNtCs6vaqcEMrLsG_19openzeppelin_stylus5utils8metadataNtB2_8Metadata14required_slots
FNDA:0,_RNvXs_NtNtCs6vaqcEMrLsG_19openzeppelin_stylus5utils8metadataNtB4_8MetadataNtNtNtCs8c3p7fi1c1U_10stylus_sdk7storage6traits11StorageType4load
FNDA:0,_RNvXs_NtNtCs6vaqcEMrLsG_19openzeppelin_stylus5utils8metadataNtB4_8MetadataNtNtNtCs8c3p7fi1c1U_10stylus_sdk7storage6traits11StorageType8load_mut
FNDA:0,_RNvMs0_NtNtCs6vaqcEMrLsG_19openzeppelin_stylus5utils8metadataNtB5_8Metadata4name
FNDA:0,_RNvMs0_NtNtCs6vaqcEMrLsG_19openzeppelin_stylus5utils8metadataNtB5_8Metadata6symbol
FNDA:0,_RNvXININtNtCs6vaqcEMrLsG_19openzeppelin_stylus5utils8metadatas1_0pENtB5_8MetadataINtNtCs8c3p7fi1c1U_10stylus_sdk3abi6RouterpE5routeB9_
FNDA:0,_RNvMs2_NtNtCs6vaqcEMrLsG_19openzeppelin_stylus5utils8metadataNtB5_8Metadata23___stylus_allow_override
FNDA:0,_RNvMs2_NtNtCs6vaqcEMrLsG_19openzeppelin_stylus5utils8metadataNtB5_8Metadata25___stylus_assert_overrides
FNDA:2,_RNvXs_NtNtCs6vaqcEMrLsG_19openzeppelin_stylus5utils8metadataNtB4_8MetadataNtNtNtCs8c3p7fi1c1U_10stylus_sdk7storage6traits11StorageType3new
FNF:5
FNH:1
DA:6,0
DA:7,0
DA:8,0
DA:9,0
DA:10,0
DA:11,0
DA:12,0
DA:13,0
DA:14,2
DA:16,0
DA:23,0
DA:24,0
DA:25,0
DA:32,0
DA:33,0
DA:34,0
BRF:0
BRH:0
LF:17
LH:1
end_of_record
SF:/home/nenad/repos/rust-contracts-stylus/contracts/src/utils/nonces.rs
FN:19,_RNvXs2_NtNtCsa86sUp9HUqm_19openzeppelin_stylus5utils6noncesINtNtCsdDMkpvQxPWz_5alloc3vec3VechEINtNtCshuVUGNokh5j_4core7convert4FromNtB5_5ErrorE4from
FN:60,_RNvMNtNtCsa86sUp9HUqm_19openzeppelin_stylus5utils6noncesNtB2_6Nonces9use_nonce
FN:88,_RNvMNtNtCsa86sUp9HUqm_19openzeppelin_stylus5utils6noncesNtB2_6Nonces17use_checked_nonce
FN:19,_RNvXs1_NtNtCsa86sUp9HUqm_19openzeppelin_stylus5utils6noncesNtB5_5ErrorINtNtCshuVUGNokh5j_4core7convert4FromNtB5_19InvalidAccountNonceE4from
FN:31,_RNvMs4_NtNtCsa86sUp9HUqm_19openzeppelin_stylus5utils6noncesNtB5_6Nonces14required_slots
FN:31,_RNvXs5_NtNtCsa86sUp9HUqm_19openzeppelin_stylus5utils6noncesNtB5_6NoncesNtNtNtCs8c3p7fi1c1U_10stylus_sdk7storage6traits11StorageType3new
FN:25,_RNvXs5_NtNtCsa86sUp9HUqm_19openzeppelin_stylus5utils6noncesNtB5_6NoncesNtNtNtCs8c3p7fi1c1U_10stylus_sdk7storage6traits11StorageType4load
FN:25,_RNvXs5_NtNtCsa86sUp9HUqm_19openzeppelin_stylus5utils6noncesNtB5_6NoncesNtNtNtCs8c3p7fi1c1U_10stylus_sdk7storage6traits11StorageType8load_mut
FN:42,_RNvMs6_NtNtCsa86sUp9HUqm_19openzeppelin_stylus5utils6noncesNtB5_6Nonces6nonces
FN:33,_RNvMs8_NtNtCsa86sUp9HUqm_19openzeppelin_stylus5utils6noncesNtB5_6Nonces23___stylus_allow_override
FN:33,_RNvMs8_NtNtCsa86sUp9HUqm_19openzeppelin_stylus5utils6noncesNtB5_6Nonces25___stylus_assert_overrides
FN:33,_RNvXININtNtCsa86sUp9HUqm_19openzeppelin_stylus5utils6noncess7_0pENtB5_6NoncesINtNtCs8c3p7fi1c1U_10stylus_sdk3abi6RouterpE5routeB9_
FN:118,_RNvNtNtNtCs6vaqcEMrLsG_19openzeppelin_stylus5utils6nonces5testss_14initiate_nonce
FN:123,_RNvNtNtNtCs6vaqcEMrLsG_19openzeppelin_stylus5utils6nonces5testss_9use_nonce
FN:134,_RNvNtNtNtCs6vaqcEMrLsG_19openzeppelin_stylus5utils6nonces5testss_17use_checked_nonce
FN:145,_RNvNtNtNtCs6vaqcEMrLsG_19openzeppelin_stylus5utils6nonces5testss_31use_checked_nonce_invalid_nonce
FN:11,_RNvNvNtNtCs6vaqcEMrLsG_19openzeppelin_stylus5utils6nonces1__15__type_assertion
FN:19,_RNvXs1_NtNtCs6vaqcEMrLsG_19openzeppelin_stylus5utils6noncesNtB5_5ErrorINtNtCshuVUGNokh5j_4core7convert4FromNtB5_19InvalidAccountNonceE4from
FN:19,_RNvXs2_NtNtCs6vaqcEMrLsG_19openzeppelin_stylus5utils6noncesINtNtCsdDMkpvQxPWz_5alloc3vec3VechEINtNtCshuVUGNokh5j_4core7convert4FromNtB5_5ErrorE4from
FN:31,_RNvMs4_NtNtCs6vaqcEMrLsG_19openzeppelin_stylus5utils6noncesNtB5_6Nonces14required_slots
FN:25,_RNvXs5_NtNtCs6vaqcEMrLsG_19openzeppelin_stylus5utils6noncesNtB5_6NoncesNtNtNtCs8c3p7fi1c1U_10stylus_sdk7storage6traits11StorageType4load
FN:25,_RNvXs5_NtNtCs6vaqcEMrLsG_19openzeppelin_stylus5utils6noncesNtB5_6NoncesNtNtNtCs8c3p7fi1c1U_10stylus_sdk7storage6traits11StorageType8load_mut
FN:33,_RNvXININtNtCs6vaqcEMrLsG_19openzeppelin_stylus5utils6noncess7_0pENtB5_6NoncesINtNtCs8c3p7fi1c1U_10stylus_sdk3abi6RouterpE5routeB9_
FN:33,_RNvMs8_NtNtCs6vaqcEMrLsG_19openzeppelin_stylus5utils6noncesNtB5_6Nonces23___stylus_allow_override
FN:33,_RNvMs8_NtNtCs6vaqcEMrLsG_19openzeppelin_stylus5utils6noncesNtB5_6Nonces25___stylus_assert_overrides
FN:60,_RNvMNtNtCs6vaqcEMrLsG_19openzeppelin_stylus5utils6noncesNtB2_6Nonces9use_nonce
FN:88,_RNvMNtNtCs6vaqcEMrLsG_19openzeppelin_stylus5utils6noncesNtB2_6Nonces17use_checked_nonce
FN:31,_RNvXs5_NtNtCs6vaqcEMrLsG_19openzeppelin_stylus5utils6noncesNtB5_6NoncesNtNtNtCs8c3p7fi1c1U_10stylus_sdk7storage6traits11StorageType3new
FN:42,_RNvMs6_NtNtCs6vaqcEMrLsG_19openzeppelin_stylus5utils6noncesNtB5_6Nonces6nonces
FNDA:0,_RNvXs2_NtNtCsa86sUp9HUqm_19openzeppelin_stylus5utils6noncesINtNtCsdDMkpvQxPWz_5alloc3vec3VechEINtNtCshuVUGNokh5j_4core7convert4FromNtB5_5ErrorE4from
FNDA:0,_RNvMNtNtCsa86sUp9HUqm_19openzeppelin_stylus5utils6noncesNtB2_6Nonces9use_nonce
FNDA:0,_RNvMNtNtCsa86sUp9HUqm_19openzeppelin_stylus5utils6noncesNtB2_6Nonces17use_checked_nonce
FNDA:0,_RNvXs1_NtNtCsa86sUp9HUqm_19openzeppelin_stylus5utils6noncesNtB5_5ErrorINtNtCshuVUGNokh5j_4core7convert4FromNtB5_19InvalidAccountNonceE4from
FNDA:0,_RNvMs4_NtNtCsa86sUp9HUqm_19openzeppelin_stylus5utils6noncesNtB5_6Nonces14required_slots
FNDA:0,_RNvXs5_NtNtCsa86sUp9HUqm_19openzeppelin_stylus5utils6noncesNtB5_6NoncesNtNtNtCs8c3p7fi1c1U_10stylus_sdk7storage6traits11StorageType3new
FNDA:0,_RNvXs5_NtNtCsa86sUp9HUqm_19openzeppelin_stylus5utils6noncesNtB5_6NoncesNtNtNtCs8c3p7fi1c1U_10stylus_sdk7storage6traits11StorageType4load
FNDA:0,_RNvXs5_NtNtCsa86sUp9HUqm_19openzeppelin_stylus5utils6noncesNtB5_6NoncesNtNtNtCs8c3p7fi1c1U_10stylus_sdk7storage6traits11StorageType8load_mut
FNDA:0,_RNvMs6_NtNtCsa86sUp9HUqm_19openzeppelin_stylus5utils6noncesNtB5_6Nonces6nonces
FNDA:0,_RNvMs8_NtNtCsa86sUp9HUqm_19openzeppelin_stylus5utils6noncesNtB5_6Nonces23___stylus_allow_override
FNDA:0,_RNvMs8_NtNtCsa86sUp9HUqm_19openzeppelin_stylus5utils6noncesNtB5_6Nonces25___stylus_assert_overrides
FNDA:0,_RNvXININtNtCsa86sUp9HUqm_19openzeppelin_stylus5utils6noncess7_0pENtB5_6NoncesINtNtCs8c3p7fi1c1U_10stylus_sdk3abi6RouterpE5routeB9_
FNDA:1,_RNvNtNtNtCs6vaqcEMrLsG_19openzeppelin_stylus5utils6nonces5testss_14initiate_nonce
FNDA:1,_RNvNtNtNtCs6vaqcEMrLsG_19openzeppelin_stylus5utils6nonces5testss_9use_nonce
FNDA:1,_RNvNtNtNtCs6vaqcEMrLsG_19openzeppelin_stylus5utils6nonces5testss_17use_checked_nonce
FNDA:1,_RNvNtNtNtCs6vaqcEMrLsG_19openzeppelin_stylus5utils6nonces5testss_31use_checked_nonce_invalid_nonce
FNDA:0,_RNvNvNtNtCs6vaqcEMrLsG_19openzeppelin_stylus5utils6nonces1__15__type_assertion
FNDA:0,_RNvXs1_NtNtCs6vaqcEMrLsG_19openzeppelin_stylus5utils6noncesNtB5_5ErrorINtNtCshuVUGNokh5j_4core7convert4FromNtB5_19InvalidAccountNonceE4from
FNDA:0,_RNvXs2_NtNtCs6vaqcEMrLsG_19openzeppelin_stylus5utils6noncesINtNtCsdDMkpvQxPWz_5alloc3vec3VechEINtNtCshuVUGNokh5j_4core7convert4FromNtB5_5ErrorE4from
FNDA:0,_RNvMs4_NtNtCs6vaqcEMrLsG_19openzeppelin_stylus5utils6noncesNtB5_6Nonces14required_slots
FNDA:0,_RNvXs5_NtNtCs6vaqcEMrLsG_19openzeppelin_stylus5utils6noncesNtB5_6NoncesNtNtNtCs8c3p7fi1c1U_10stylus_sdk7storage6traits11StorageType4load
FNDA:0,_RNvXs5_NtNtCs6vaqcEMrLsG_19openzeppelin_stylus5utils6noncesNtB5_6NoncesNtNtNtCs8c3p7fi1c1U_10stylus_sdk7storage6traits11StorageType8load_mut
FNDA:0,_RNvXININtNtCs6vaqcEMrLsG_19openzeppelin_stylus5utils6noncess7_0pENtB5_6NoncesINtNtCs8c3p7fi1c1U_10stylus_sdk3abi6RouterpE5routeB9_
FNDA:0,_RNvMs8_NtNtCs6vaqcEMrLsG_19openzeppelin_stylus5utils6noncesNtB5_6Nonces23___stylus_allow_override
FNDA:0,_RNvMs8_NtNtCs6vaqcEMrLsG_19openzeppelin_stylus5utils6noncesNtB5_6Nonces25___stylus_assert_overrides
FNDA:1,_RNvMNtNtCs6vaqcEMrLsG_19openzeppelin_stylus5utils6noncesNtB2_6Nonces9use_nonce
FNDA:2,_RNvMNtNtCs6vaqcEMrLsG_19openzeppelin_stylus5utils6noncesNtB2_6Nonces17use_checked_nonce
FNDA:4,_RNvXs5_NtNtCs6vaqcEMrLsG_19openzeppelin_stylus5utils6noncesNtB5_6NoncesNtNtNtCs8c3p7fi1c1U_10stylus_sdk7storage6traits11StorageType3new
FNDA:3,_RNvMs6_NtNtCs6vaqcEMrLsG_19openzeppelin_stylus5utils6noncesNtB5_6Nonces6nonces
FNF:12
FNH:8
DA:11,0
DA:12,0
DA:13,0
DA:14,0
DA:15,0
DA:16,0
DA:19,0
DA:25,0
DA:26,0
DA:27,0
DA:28,0
DA:29,0
DA:30,0
DA:31,4
DA:33,0
DA:42,3
DA:43,3
DA:44,3
DA:60,1
DA:61,1
DA:62,1
DA:63,1
DA:64,1
DA:65,1
DA:66,1
DA:67,1
DA:88,2
DA:89,2
DA:90,2
DA:91,2
DA:92,2
DA:93,2
DA:94,2
DA:95,2
DA:96,1
DA:97,1
DA:98,1
DA:99,1
DA:100,1
DA:101,1
DA:102,1
DA:103,1
DA:104,1
DA:105,1
DA:106,1
DA:107,2
DA:118,1
DA:123,1
DA:134,1
DA:145,1
BRF:0
BRH:0
LF:51
LH:36
end_of_record
SF:/home/nenad/repos/rust-contracts-stylus/contracts/src/utils/pausable.rs
FN:48,_RNvXs7_NtNtCsa86sUp9HUqm_19openzeppelin_stylus5utils8pausableINtNtCsdDMkpvQxPWz_5alloc3vec3VechEINtNtCshuVUGNokh5j_4core7convert4FromNtB5_5ErrorE4from
FN:31,_RNvXs_NvNtNtCsa86sUp9HUqm_19openzeppelin_stylus5utils8pausable1__NtNtCs9yoxqfta9I2_16alloy_primitives3log7LogDataINtNtCshuVUGNokh5j_4core7convert4FromRNtB6_6PausedE4fromBa_
FN:23,_RNCNvXs_NvNtNtCsa86sUp9HUqm_19openzeppelin_stylus5utils8pausable1__NtNtCs9yoxqfta9I2_16alloy_primitives3log7LogDataINtNtCshuVUGNokh5j_4core7convert4FromRNtB8_6PausedE4from0Bc_
FN:31,_RNvXs_NvNtNtCsa86sUp9HUqm_19openzeppelin_stylus5utils8pausables_1__NtNtCs9yoxqfta9I2_16alloy_primitives3log7LogDataINtNtCshuVUGNokh5j_4core7convert4FromRNtB6_8UnpausedE4fromBa_
FN:23,_RNCNvXs_NvNtNtCsa86sUp9HUqm_19openzeppelin_stylus5utils8pausables_1__NtNtCs9yoxqfta9I2_16alloy_primitives3log7LogDataINtNtCshuVUGNokh5j_4core7convert4FromRNtB8_8UnpausedE4from0Bc_
FN:66,_RNvXININtNtCsa86sUp9HUqm_19openzeppelin_stylus5utils8pausablesc_0pENtB5_8PausableINtNtCs8c3p7fi1c1U_10stylus_sdk3abi6RouterpE5routeB9_
FN:89,_RNvMNtNtCsa86sUp9HUqm_19openzeppelin_stylus5utils8pausableNtB2_8Pausable5pause
FN:106,_RNvMNtNtCsa86sUp9HUqm_19openzeppelin_stylus5utils8pausableNtB2_8Pausable7unpause
FN:124,_RNvMNtNtCsa86sUp9HUqm_19openzeppelin_stylus5utils8pausableNtB2_8Pausable15when_not_paused
FN:142,_RNvMNtNtCsa86sUp9HUqm_19openzeppelin_stylus5utils8pausableNtB2_8Pausable11when_paused
FN:48,_RNvXs5_NtNtCsa86sUp9HUqm_19openzeppelin_stylus5utils8pausableNtB5_5ErrorINtNtCshuVUGNokh5j_4core7convert4FromNtB5_13EnforcedPauseE4from
FN:48,_RNvXs6_NtNtCsa86sUp9HUqm_19openzeppelin_stylus5utils8pausableNtB5_5ErrorINtNtCshuVUGNokh5j_4core7convert4FromNtB5_13ExpectedPauseE4from
FN:64,_RNvMs9_NtNtCsa86sUp9HUqm_19openzeppelin_stylus5utils8pausableNtB5_8Pausable14required_slots
FN:64,_RNvXsa_NtNtCsa86sUp9HUqm_19openzeppelin_stylus5utils8pausableNtB5_8PausableNtNtNtCs8c3p7fi1c1U_10stylus_sdk7storage6traits11StorageType3new
FN:58,_RNvXsa_NtNtCsa86sUp9HUqm_19openzeppelin_stylus5utils8pausableNtB5_8PausableNtNtNtCs8c3p7fi1c1U_10stylus_sdk7storage6traits11StorageType4load
FN:58,_RNvXsa_NtNtCsa86sUp9HUqm_19openzeppelin_stylus5utils8pausableNtB5_8PausableNtNtNtCs8c3p7fi1c1U_10stylus_sdk7storage6traits11StorageType8load_mut
FN:73,_RNvMsb_NtNtCsa86sUp9HUqm_19openzeppelin_stylus5utils8pausableNtB5_8Pausable6paused
FN:66,_RNvMsd_NtNtCsa86sUp9HUqm_19openzeppelin_stylus5utils8pausableNtB5_8Pausable23___stylus_allow_override
FN:66,_RNvMsd_NtNtCsa86sUp9HUqm_19openzeppelin_stylus5utils8pausableNtB5_8Pausable25___stylus_assert_overrides
FN:66,_RNvXsc_NtNtCsa86sUp9HUqm_19openzeppelin_stylus5utils8pausableNtB5_8PausableINtNtCs8c3p7fi1c1U_10stylus_sdk3abi6RouterNtCsjg4xJ1d9oPS_13erc20_example12Erc20ExampleE5routeB1T_
FN:66,_RNvXsc_NtNtCsa86sUp9HUqm_19openzeppelin_stylus5utils8pausableNtB5_8PausableINtNtCs8c3p7fi1c1U_10stylus_sdk3abi6RouterNtCsbY8cRU9egOl_14erc721_example13Erc721ExampleE5routeB1T_
FN:66,_RNvXsc_NtNtCsa86sUp9HUqm_19openzeppelin_stylus5utils8pausableNtB5_8PausableINtNtCs8c3p7fi1c1U_10stylus_sdk3abi6RouterNtCsfgI69mdyflo_13erc20_example12Erc20ExampleE5routeB1T_
FN:66,_RNvXsc_NtNtCsa86sUp9HUqm_19openzeppelin_stylus5utils8pausableNtB5_8PausableINtNtCs8c3p7fi1c1U_10stylus_sdk3abi6RouterNtCslXfu2eZ1Tt1_14erc721_example13Erc721ExampleE5routeB1T_
FN:31,_RNvXs_NvNtNtCs6vaqcEMrLsG_19openzeppelin_stylus5utils8pausable1__NtNtCs9yoxqfta9I2_16alloy_primitives3log7LogDataINtNtCshuVUGNokh5j_4core7convert4FromRNtB6_6PausedE4fromBa_
FN:23,_RNCNvXs_NvNtNtCs6vaqcEMrLsG_19openzeppelin_stylus5utils8pausable1__NtNtCs9yoxqfta9I2_16alloy_primitives3log7LogDataINtNtCshuVUGNokh5j_4core7convert4FromRNtB8_6PausedE4from0Bc_
FN:31,_RNvXs_NvNtNtCs6vaqcEMrLsG_19openzeppelin_stylus5utils8pausables_1__NtNtCs9yoxqfta9I2_16alloy_primitives3log7LogDataINtNtCshuVUGNokh5j_4core7convert4FromRNtB6_8UnpausedE4fromBa_
FN:23,_RNCNvXs_NvNtNtCs6vaqcEMrLsG_19openzeppelin_stylus5utils8pausables_1__NtNtCs9yoxqfta9I2_16alloy_primitives3log7LogDataINtNtCshuVUGNokh5j_4core7convert4FromRNtB8_8UnpausedE4from0Bc_
FN:33,_RNvNvNtNtCs6vaqcEMrLsG_19openzeppelin_stylus5utils8pausables0_1__15__type_assertion
FN:33,_RNvNvNtNtCs6vaqcEMrLsG_19openzeppelin_stylus5utils8pausables1_1__15__type_assertion
FN:48,_RNvXs5_NtNtCs6vaqcEMrLsG_19openzeppelin_stylus5utils8pausableNtB5_5ErrorINtNtCshuVUGNokh5j_4core7convert4FromNtB5_13EnforcedPauseE4from
FN:48,_RNvXs6_NtNtCs6vaqcEMrLsG_19openzeppelin_stylus5utils8pausableNtB5_5ErrorINtNtCshuVUGNokh5j_4core7convert4FromNtB5_13ExpectedPauseE4from
FN:48,_RNvXs7_NtNtCs6vaqcEMrLsG_19openzeppelin_stylus5utils8pausableINtNtCsdDMkpvQxPWz_5alloc3vec3VechEINtNtCshuVUGNokh5j_4core7convert4FromNtB5_5ErrorE4from
FN:64,_RNvMs9_NtNtCs6vaqcEMrLsG_19openzeppelin_stylus5utils8pausableNtB5_8Pausable14required_slots
FN:58,_RNvXsa_NtNtCs6vaqcEMrLsG_19openzeppelin_stylus5utils8pausableNtB5_8PausableNtNtNtCs8c3p7fi1c1U_10stylus_sdk7storage6traits11StorageType4load
FN:58,_RNvXsa_NtNtCs6vaqcEMrLsG_19openzeppelin_stylus5utils8pausableNtB5_8PausableNtNtNtCs8c3p7fi1c1U_10stylus_sdk7storage6traits11StorageType8load_mut
FN:66,_RNvXININtNtCs6vaqcEMrLsG_19openzeppelin_stylus5utils8pausablesc_0pENtB5_8PausableINtNtCs8c3p7fi1c1U_10stylus_sdk3abi6RouterpE5routeB9_
FN:66,_RNvMsd_NtNtCs6vaqcEMrLsG_19openzeppelin_stylus5utils8pausableNtB5_8Pausable23___stylus_allow_override
FN:66,_RNvMsd_NtNtCs6vaqcEMrLsG_19openzeppelin_stylus5utils8pausableNtB5_8Pausable25___stylus_assert_overrides
FN:89,_RNvMNtNtCs6vaqcEMrLsG_19openzeppelin_stylus5utils8pausableNtB2_8Pausable5pause
FN:106,_RNvMNtNtCs6vaqcEMrLsG_19openzeppelin_stylus5utils8pausableNtB2_8Pausable7unpause
FN:124,_RNvMNtNtCs6vaqcEMrLsG_19openzeppelin_stylus5utils8pausableNtB2_8Pausable15when_not_paused
FN:142,_RNvMNtNtCs6vaqcEMrLsG_19openzeppelin_stylus5utils8pausableNtB2_8Pausable11when_paused
FN:64,_RNvXsa_NtNtCs6vaqcEMrLsG_19openzeppelin_stylus5utils8pausableNtB5_8PausableNtNtNtCs8c3p7fi1c1U_10stylus_sdk7storage6traits11StorageType3new
FN:73,_RNvMsb_NtNtCs6vaqcEMrLsG_19openzeppelin_stylus5utils8pausableNtB5_8Pausable6paused
FN:154,_RNvNtNtNtCs6vaqcEMrLsG_19openzeppelin_stylus5utils8pausable5testss_12paused_works
FN:162,_RNvNtNtNtCs6vaqcEMrLsG_19openzeppelin_stylus5utils8pausable5testss_21when_not_paused_works
FN:171,_RNvNtNtNtCs6vaqcEMrLsG_19openzeppelin_stylus5utils8pausable5testss_34when_not_paused_errors_when_paused
FN:180,_RNvNtNtNtCs6vaqcEMrLsG_19openzeppelin_stylus5utils8pausable5testss_17when_paused_works
FN:189,_RNvNtNtNtCs6vaqcEMrLsG_19openzeppelin_stylus5utils8pausable5testss_34when_paused_errors_when_not_paused
FN:198,_RNvNtNtNtCs6vaqcEMrLsG_19openzeppelin_stylus5utils8pausable5testss_11pause_works
FN:209,_RNvNtNtNtCs6vaqcEMrLsG_19openzeppelin_stylus5utils8pausable5testss_32pause_errors_when_already_paused
FN:219,_RNvNtNtNtCs6vaqcEMrLsG_19openzeppelin_stylus5utils8pausable5testss_13unpause_works
FN:230,_RNvNtNtNtCs6vaqcEMrLsG_19openzeppelin_stylus5utils8pausable5testss_36unpause_errors_when_already_unpaused
FNDA:0,_RNvXs7_NtNtCsa86sUp9HUqm_19openzeppelin_stylus5utils8pausableINtNtCsdDMkpvQxPWz_5alloc3vec3VechEINtNtCshuVUGNokh5j_4core7convert4FromNtB5_5ErrorE4from
FNDA:0,_RNvXs_NvNtNtCsa86sUp9HUqm_19openzeppelin_stylus5utils8pausable1__NtNtCs9yoxqfta9I2_16alloy_primitives3log7LogDataINtNtCshuVUGNokh5j_4core7convert4FromRNtB6_6PausedE4fromBa_
FNDA:0,_RNCNvXs_NvNtNtCsa86sUp9HUqm_19openzeppelin_stylus5utils8pausable1__NtNtCs9yoxqfta9I2_16alloy_primitives3log7LogDataINtNtCshuVUGNokh5j_4core7convert4FromRNtB8_6PausedE4from0Bc_
FNDA:0,_RNvXs_NvNtNtCsa86sUp9HUqm_19openzeppelin_stylus5utils8pausables_1__NtNtCs9yoxqfta9I2_16alloy_primitives3log7LogDataINtNtCshuVUGNokh5j_4core7convert4FromRNtB6_8UnpausedE4fromBa_
FNDA:0,_RNCNvXs_NvNtNtCsa86sUp9HUqm_19openzeppelin_stylus5utils8pausables_1__NtNtCs9yoxqfta9I2_16alloy_primitives3log7LogDataINtNtCshuVUGNokh5j_4core7convert4FromRNtB8_8UnpausedE4from0Bc_
FNDA:0,_RNvXININtNtCsa86sUp9HUqm_19openzeppelin_stylus5utils8pausablesc_0pENtB5_8PausableINtNtCs8c3p7fi1c1U_10stylus_sdk3abi6RouterpE5routeB9_
FNDA:0,_RNvMNtNtCsa86sUp9HUqm_19openzeppelin_stylus5utils8pausableNtB2_8Pausable5pause
FNDA:0,_RNvMNtNtCsa86sUp9HUqm_19openzeppelin_stylus5utils8pausableNtB2_8Pausable7unpause
FNDA:0,_RNvMNtNtCsa86sUp9HUqm_19openzeppelin_stylus5utils8pausableNtB2_8Pausable15when_not_paused
FNDA:0,_RNvMNtNtCsa86sUp9HUqm_19openzeppelin_stylus5utils8pausableNtB2_8Pausable11when_paused
FNDA:0,_RNvXs5_NtNtCsa86sUp9HUqm_19openzeppelin_stylus5utils8pausableNtB5_5ErrorINtNtCshuVUGNokh5j_4core7convert4FromNtB5_13EnforcedPauseE4from
FNDA:0,_RNvXs6_NtNtCsa86sUp9HUqm_19openzeppelin_stylus5utils8pausableNtB5_5ErrorINtNtCshuVUGNokh5j_4core7convert4FromNtB5_13ExpectedPauseE4from
FNDA:0,_RNvMs9_NtNtCsa86sUp9HUqm_19openzeppelin_stylus5utils8pausableNtB5_8Pausable14required_slots
FNDA:0,_RNvXsa_NtNtCsa86sUp9HUqm_19openzeppelin_stylus5utils8pausableNtB5_8PausableNtNtNtCs8c3p7fi1c1U_10stylus_sdk7storage6traits11StorageType3new
FNDA:0,_RNvXsa_NtNtCsa86sUp9HUqm_19openzeppelin_stylus5utils8pausableNtB5_8PausableNtNtNtCs8c3p7fi1c1U_10stylus_sdk7storage6traits11StorageType4load
FNDA:0,_RNvXsa_NtNtCsa86sUp9HUqm_19openzeppelin_stylus5utils8pausableNtB5_8PausableNtNtNtCs8c3p7fi1c1U_10stylus_sdk7storage6traits11StorageType8load_mut
FNDA:0,_RNvMsb_NtNtCsa86sUp9HUqm_19openzeppelin_stylus5utils8pausableNtB5_8Pausable6paused
FNDA:0,_RNvMsd_NtNtCsa86sUp9HUqm_19openzeppelin_stylus5utils8pausableNtB5_8Pausable23___stylus_allow_override
FNDA:0,_RNvMsd_NtNtCsa86sUp9HUqm_19openzeppelin_stylus5utils8pausableNtB5_8Pausable25___stylus_assert_overrides
FNDA:0,_RNvXsc_NtNtCsa86sUp9HUqm_19openzeppelin_stylus5utils8pausableNtB5_8PausableINtNtCs8c3p7fi1c1U_10stylus_sdk3abi6RouterNtCsjg4xJ1d9oPS_13erc20_example12Erc20ExampleE5routeB1T_
FNDA:0,_RNvXsc_NtNtCsa86sUp9HUqm_19openzeppelin_stylus5utils8pausableNtB5_8PausableINtNtCs8c3p7fi1c1U_10stylus_sdk3abi6RouterNtCsbY8cRU9egOl_14erc721_example13Erc721ExampleE5routeB1T_
FNDA:0,_RNvXsc_NtNtCsa86sUp9HUqm_19openzeppelin_stylus5utils8pausableNtB5_8PausableINtNtCs8c3p7fi1c1U_10stylus_sdk3abi6RouterNtCsfgI69mdyflo_13erc20_example12Erc20ExampleE5routeB1T_
FNDA:0,_RNvXsc_NtNtCsa86sUp9HUqm_19openzeppelin_stylus5utils8pausableNtB5_8PausableINtNtCs8c3p7fi1c1U_10stylus_sdk3abi6RouterNtCslXfu2eZ1Tt1_14erc721_example13Erc721ExampleE5routeB1T_
FNDA:0,_RNvXs_NvNtNtCs6vaqcEMrLsG_19openzeppelin_stylus5utils8pausable1__NtNtCs9yoxqfta9I2_16alloy_primitives3log7LogDataINtNtCshuVUGNokh5j_4core7convert4FromRNtB6_6PausedE4fromBa_
FNDA:0,_RNCNvXs_NvNtNtCs6vaqcEMrLsG_19openzeppelin_stylus5utils8pausable1__NtNtCs9yoxqfta9I2_16alloy_primitives3log7LogDataINtNtCshuVUGNokh5j_4core7convert4FromRNtB8_6PausedE4from0Bc_
FNDA:0,_RNvXs_NvNtNtCs6vaqcEMrLsG_19openzeppelin_stylus5utils8pausables_1__NtNtCs9yoxqfta9I2_16alloy_primitives3log7LogDataINtNtCshuVUGNokh5j_4core7convert4FromRNtB6_8UnpausedE4fromBa_
FNDA:0,_RNCNvXs_NvNtNtCs6vaqcEMrLsG_19openzeppelin_stylus5utils8pausables_1__NtNtCs9yoxqfta9I2_16alloy_primitives3log7LogDataINtNtCshuVUGNokh5j_4core7convert4FromRNtB8_8UnpausedE4from0Bc_
FNDA:0,_RNvNvNtNtCs6vaqcEMrLsG_19openzeppelin_stylus5utils8pausables0_1__15__type_assertion
FNDA:0,_RNvNvNtNtCs6vaqcEMrLsG_19openzeppelin_stylus5utils8pausables1_1__15__type_assertion
FNDA:0,_RNvXs5_NtNtCs6vaqcEMrLsG_19openzeppelin_stylus5utils8pausableNtB5_5ErrorINtNtCshuVUGNokh5j_4core7convert4FromNtB5_13EnforcedPauseE4from
FNDA:0,_RNvXs6_NtNtCs6vaqcEMrLsG_19openzeppelin_stylus5utils8pausableNtB5_5ErrorINtNtCshuVUGNokh5j_4core7convert4FromNtB5_13ExpectedPauseE4from
FNDA:0,_RNvXs7_NtNtCs6vaqcEMrLsG_19openzeppelin_stylus5utils8pausableINtNtCsdDMkpvQxPWz_5alloc3vec3VechEINtNtCshuVUGNokh5j_4core7convert4FromNtB5_5ErrorE4from
FNDA:0,_RNvMs9_NtNtCs6vaqcEMrLsG_19openzeppelin_stylus5utils8pausableNtB5_8Pausable14required_slots
FNDA:0,_RNvXsa_NtNtCs6vaqcEMrLsG_19openzeppelin_stylus5utils8pausableNtB5_8PausableNtNtNtCs8c3p7fi1c1U_10stylus_sdk7storage6traits11StorageType4load
FNDA:0,_RNvXsa_NtNtCs6vaqcEMrLsG_19openzeppelin_stylus5utils8pausableNtB5_8PausableNtNtNtCs8c3p7fi1c1U_10stylus_sdk7storage6traits11StorageType8load_mut
FNDA:0,_RNvXININtNtCs6vaqcEMrLsG_19openzeppelin_stylus5utils8pausablesc_0pENtB5_8PausableINtNtCs8c3p7fi1c1U_10stylus_sdk3abi6RouterpE5routeB9_
FNDA:0,_RNvMsd_NtNtCs6vaqcEMrLsG_19openzeppelin_stylus5utils8pausableNtB5_8Pausable23___stylus_allow_override
FNDA:0,_RNvMsd_NtNtCs6vaqcEMrLsG_19openzeppelin_stylus5utils8pausableNtB5_8Pausable25___stylus_assert_overrides
FNDA:2,_RNvMNtNtCs6vaqcEMrLsG_19openzeppelin_stylus5utils8pausableNtB2_8Pausable5pause
FNDA:2,_RNvMNtNtCs6vaqcEMrLsG_19openzeppelin_stylus5utils8pausableNtB2_8Pausable7unpause
FNDA:4,_RNvMNtNtCs6vaqcEMrLsG_19openzeppelin_stylus5utils8pausableNtB2_8Pausable15when_not_paused
FNDA:4,_RNvMNtNtCs6vaqcEMrLsG_19openzeppelin_stylus5utils8pausableNtB2_8Pausable11when_paused
FNDA:9,_RNvXsa_NtNtCs6vaqcEMrLsG_19openzeppelin_stylus5utils8pausableNtB5_8PausableNtNtNtCs8c3p7fi1c1U_10stylus_sdk7storage6traits11StorageType3new
FNDA:14,_RNvMsb_NtNtCs6vaqcEMrLsG_19openzeppelin_stylus5utils8pausableNtB5_8Pausable6paused
FNDA:1,_RNvNtNtNtCs6vaqcEMrLsG_19openzeppelin_stylus5utils8pausable5testss_12paused_works
FNDA:1,_RNvNtNtNtCs6vaqcEMrLsG_19openzeppelin_stylus5utils8pausable5testss_21when_not_paused_works
FNDA:1,_RNvNtNtNtCs6vaqcEMrLsG_19openzeppelin_stylus5utils8pausable5testss_34when_not_paused_errors_when_paused
FNDA:1,_RNvNtNtNtCs6vaqcEMrLsG_19openzeppelin_stylus5utils8pausable5testss_17when_paused_works
FNDA:1,_RNvNtNtNtCs6vaqcEMrLsG_19openzeppelin_stylus5utils8pausable5testss_34when_paused_errors_when_not_paused
FNDA:1,_RNvNtNtNtCs6vaqcEMrLsG_19openzeppelin_stylus5utils8pausable5testss_11pause_works
FNDA:1,_RNvNtNtNtCs6vaqcEMrLsG_19openzeppelin_stylus5utils8pausable5testss_32pause_errors_when_already_paused
FNDA:1,_RNvNtNtNtCs6vaqcEMrLsG_19openzeppelin_stylus5utils8pausable5testss_13unpause_works
FNDA:1,_RNvNtNtNtCs6vaqcEMrLsG_19openzeppelin_stylus5utils8pausable5testss_36unpause_errors_when_already_unpaused
FNF:21
FNH:15
DA:23,0
DA:24,0
DA:25,0
DA:26,0
DA:27,0
DA:28,0
DA:29,0
DA:30,0
DA:31,0
DA:33,0
DA:34,0
DA:35,0
DA:36,0
DA:37,0
DA:38,0
DA:39,0
DA:40,0
DA:41,0
DA:42,0
DA:43,0
DA:44,0
DA:45,0
DA:48,0
DA:58,0
DA:59,0
DA:60,0
DA:61,0
DA:62,0
DA:63,0
DA:64,9
DA:66,0
DA:73,14
DA:74,14
DA:75,14
DA:89,2
DA:90,2
DA:91,1
DA:92,1
DA:93,1
DA:94,2
DA:106,2
DA:107,2
DA:108,1
DA:109,1
DA:110,1
DA:111,2
DA:124,4
DA:125,4
DA:126,2
DA:127,2
DA:128,2
DA:129,4
DA:142,4
DA:143,4
DA:144,2
DA:145,2
DA:146,2
DA:147,4
DA:154,1
DA:162,1
DA:171,1
DA:180,1
DA:189,1
DA:198,1
DA:209,1
DA:219,1
DA:230,1
BRF:0
BRH:0
LF:69
LH:37
end_of_record
SF:/home/nenad/repos/rust-contracts-stylus/contracts/src/utils/structs/bitmap.rs
FN:37,_RNvMNtNtNtCsa86sUp9HUqm_19openzeppelin_stylus5utils7structs6bitmapNtB2_6BitMap3get
FN:50,_RNvMNtNtNtCsa86sUp9HUqm_19openzeppelin_stylus5utils7structs6bitmapNtB2_6BitMap6set_to
FN:63,_RNvMNtNtNtCsa86sUp9HUqm_19openzeppelin_stylus5utils7structs6bitmapNtB2_6BitMap3set
FN:76,_RNvMNtNtNtCsa86sUp9HUqm_19openzeppelin_stylus5utils7structs6bitmapNtB2_6BitMap5unset
FN:85,_RNvMNtNtNtCsa86sUp9HUqm_19openzeppelin_stylus5utils7structs6bitmapNtB2_6BitMap8get_mask
FN:90,_RNvMNtNtNtCsa86sUp9HUqm_19openzeppelin_stylus5utils7structs6bitmapNtB2_6BitMap10get_bucket
FN:28,_RNvMs_NtNtNtCsa86sUp9HUqm_19openzeppelin_stylus5utils7structs6bitmapNtB4_6BitMap14required_slots
FN:28,_RNvXs0_NtNtNtCsa86sUp9HUqm_19openzeppelin_stylus5utils7structs6bitmapNtB5_6BitMapNtNtNtCs8c3p7fi1c1U_10stylus_sdk7storage6traits11StorageType3new
FN:22,_RNvXs0_NtNtNtCsa86sUp9HUqm_19openzeppelin_stylus5utils7structs6bitmapNtB5_6BitMapNtNtNtCs8c3p7fi1c1U_10stylus_sdk7storage6traits11StorageType4load
FN:22,_RNvXs0_NtNtNtCsa86sUp9HUqm_19openzeppelin_stylus5utils7structs6bitmapNtB5_6BitMapNtNtNtCs8c3p7fi1c1U_10stylus_sdk7storage6traits11StorageType8load_mut
FN:28,_RNvMs_NtNtNtCs6vaqcEMrLsG_19openzeppelin_stylus5utils7structs6bitmapNtB4_6BitMap14required_slots
FN:22,_RNvXs0_NtNtNtCs6vaqcEMrLsG_19openzeppelin_stylus5utils7structs6bitmapNtB5_6BitMapNtNtNtCs8c3p7fi1c1U_10stylus_sdk7storage6traits11StorageType4load
FN:22,_RNvXs0_NtNtNtCs6vaqcEMrLsG_19openzeppelin_stylus5utils7structs6bitmapNtB5_6BitMapNtNtNtCs8c3p7fi1c1U_10stylus_sdk7storage6traits11StorageType8load_mut
FN:37,_RNvMNtNtNtCs6vaqcEMrLsG_19openzeppelin_stylus5utils7structs6bitmapNtB2_6BitMap3get
FN:50,_RNvMNtNtNtCs6vaqcEMrLsG_19openzeppelin_stylus5utils7structs6bitmapNtB2_6BitMap6set_to
FN:63,_RNvMNtNtNtCs6vaqcEMrLsG_19openzeppelin_stylus5utils7structs6bitmapNtB2_6BitMap3set
FN:76,_RNvMNtNtNtCs6vaqcEMrLsG_19openzeppelin_stylus5utils7structs6bitmapNtB2_6BitMap5unset
FN:85,_RNvMNtNtNtCs6vaqcEMrLsG_19openzeppelin_stylus5utils7structs6bitmapNtB2_6BitMap8get_mask
FN:90,_RNvMNtNtNtCs6vaqcEMrLsG_19openzeppelin_stylus5utils7structs6bitmapNtB2_6BitMap10get_bucket
FN:28,_RNvXs0_NtNtNtCs6vaqcEMrLsG_19openzeppelin_stylus5utils7structs6bitmapNtB5_6BitMapNtNtNtCs8c3p7fi1c1U_10stylus_sdk7storage6traits11StorageType3new
FN:101,_RNvNtNtNtNtCs6vaqcEMrLsG_19openzeppelin_stylus5utils7structs6bitmap5testss_9set_value
FN:111,_RNvNtNtNtNtCs6vaqcEMrLsG_19openzeppelin_stylus5utils7structs6bitmap5testss_11unset_value
FN:122,_RNvNtNtNtNtCs6vaqcEMrLsG_19openzeppelin_stylus5utils7structs6bitmap5testss_12set_to_value
FNDA:0,_RNvMNtNtNtCsa86sUp9HUqm_19openzeppelin_stylus5utils7structs6bitmapNtB2_6BitMap3get
FNDA:0,_RNvMNtNtNtCsa86sUp9HUqm_19openzeppelin_stylus5utils7structs6bitmapNtB2_6BitMap6set_to
FNDA:0,_RNvMNtNtNtCsa86sUp9HUqm_19openzeppelin_stylus5utils7structs6bitmapNtB2_6BitMap3set
FNDA:0,_RNvMNtNtNtCsa86sUp9HUqm_19openzeppelin_stylus5utils7structs6bitmapNtB2_6BitMap5unset
FNDA:0,_RNvMNtNtNtCsa86sUp9HUqm_19openzeppelin_stylus5utils7structs6bitmapNtB2_6BitMap8get_mask
FNDA:0,_RNvMNtNtNtCsa86sUp9HUqm_19openzeppelin_stylus5utils7structs6bitmapNtB2_6BitMap10get_bucket
FNDA:0,_RNvMs_NtNtNtCsa86sUp9HUqm_19openzeppelin_stylus5utils7structs6bitmapNtB4_6BitMap14required_slots
FNDA:0,_RNvXs0_NtNtNtCsa86sUp9HUqm_19openzeppelin_stylus5utils7structs6bitmapNtB5_6BitMapNtNtNtCs8c3p7fi1c1U_10stylus_sdk7storage6traits11StorageType3new
FNDA:0,_RNvXs0_NtNtNtCsa86sUp9HUqm_19openzeppelin_stylus5utils7structs6bitmapNtB5_6BitMapNtNtNtCs8c3p7fi1c1U_10stylus_sdk7storage6traits11StorageType4load
FNDA:0,_RNvXs0_NtNtNtCsa86sUp9HUqm_19openzeppelin_stylus5utils7structs6bitmapNtB5_6BitMapNtNtNtCs8c3p7fi1c1U_10stylus_sdk7storage6traits11StorageType8load_mut
FNDA:0,_RNvMs_NtNtNtCs6vaqcEMrLsG_19openzeppelin_stylus5utils7structs6bitmapNtB4_6BitMap14required_slots
FNDA:0,_RNvXs0_NtNtNtCs6vaqcEMrLsG_19openzeppelin_stylus5utils7structs6bitmapNtB5_6BitMapNtNtNtCs8c3p7fi1c1U_10stylus_sdk7storage6traits11StorageType4load
FNDA:0,_RNvXs0_NtNtNtCs6vaqcEMrLsG_19openzeppelin_stylus5utils7structs6bitmapNtB5_6BitMapNtNtNtCs8c3p7fi1c1U_10stylus_sdk7storage6traits11StorageType8load_mut
FNDA:1559,_RNvMNtNtNtCs6vaqcEMrLsG_19openzeppelin_stylus5utils7structs6bitmapNtB2_6BitMap3get
FNDA:512,_RNvMNtNtNtCs6vaqcEMrLsG_19openzeppelin_stylus5utils7structs6bitmapNtB2_6BitMap6set_to
FNDA:769,_RNvMNtNtNtCs6vaqcEMrLsG_19openzeppelin_stylus5utils7structs6bitmapNtB2_6BitMap3set
FNDA:512,_RNvMNtNtNtCs6vaqcEMrLsG_19openzeppelin_stylus5utils7structs6bitmapNtB2_6BitMap5unset
FNDA:2840,_RNvMNtNtNtCs6vaqcEMrLsG_19openzeppelin_stylus5utils7structs6bitmapNtB2_6BitMap8get_mask
FNDA:2840,_RNvMNtNtNtCs6vaqcEMrLsG_19openzeppelin_stylus5utils7structs6bitmapNtB2_6BitMap10get_bucket
FNDA:789,_RNvXs0_NtNtNtCs6vaqcEMrLsG_19openzeppelin_stylus5utils7structs6bitmapNtB5_6BitMapNtNtNtCs8c3p7fi1c1U_10stylus_sdk7storage6traits11StorageType3new
FNDA:1,_RNvNtNtNtNtCs6vaqcEMrLsG_19openzeppelin_stylus5utils7structs6bitmap5testss_9set_value
FNDA:1,_RNvNtNtNtNtCs6vaqcEMrLsG_19openzeppelin_stylus5utils7structs6bitmap5testss_11unset_value
FNDA:1,_RNvNtNtNtNtCs6vaqcEMrLsG_19openzeppelin_stylus5utils7structs6bitmap5testss_12set_to_value
FNF:11
FNH:10
DA:22,0
DA:23,0
DA:24,0
DA:25,0
DA:26,0
DA:27,0
DA:28,789
DA:37,1559
DA:38,1559
DA:39,1559
DA:40,1559
DA:41,1559
DA:42,1559
DA:50,512
DA:51,512
DA:52,256
DA:53,256
DA:54,256
DA:55,256
DA:56,512
DA:63,769
DA:64,769
DA:65,769
DA:66,769
DA:67,769
DA:68,769
DA:69,769
DA:76,512
DA:77,512
DA:78,512
DA:79,512
DA:80,512
DA:81,512
DA:82,512
DA:85,2840
DA:86,2840
DA:87,2840
DA:90,2840
DA:91,2840
DA:92,2840
DA:101,1
DA:111,1
DA:122,1
BRF:0
BRH:0
LF:44
LH:37
end_of_record
SF:/home/nenad/repos/rust-contracts-stylus/contracts/src/utils/structs/checkpoints/generic_size.rs
FN:93,_RNvXs_NtNtNtNtCsa86sUp9HUqm_19openzeppelin_stylus5utils7structs11checkpoints12generic_sizeINtNtCs8c3p7fi1c1U_10stylus_sdk7storage11StorageUintKj60_Kj2_ENtB4_8Accessor3getBc_
FN:93,_RNvXs_NtNtNtNtCsa86sUp9HUqm_19openzeppelin_stylus5utils7structs11checkpoints12generic_sizeINtNtCs8c3p7fi1c1U_10stylus_sdk7storage11StorageUintKja0_Kj3_ENtB4_8Accessor3getBc_
FN:97,_RNvXININtNtNtNtCsa86sUp9HUqm_19openzeppelin_stylus5utils7structs11checkpoints12generic_sizes_0KpKpEINtNtCs8c3p7fi1c1U_10stylus_sdk7storage11StorageUintKpKpENtB5_8Accessor3setBd_
FN:93,_RNvXs_NtNtNtNtCs6vaqcEMrLsG_19openzeppelin_stylus5utils7structs11checkpoints12generic_sizeINtNtCs8c3p7fi1c1U_10stylus_sdk7storage11StorageUintKj60_Kj2_ENtB4_8Accessor3getBc_
FN:93,_RNvXs_NtNtNtNtCs6vaqcEMrLsG_19openzeppelin_stylus5utils7structs11checkpoints12generic_sizeINtNtCs8c3p7fi1c1U_10stylus_sdk7storage11StorageUintKja0_Kj3_ENtB4_8Accessor3getBc_
FN:97,_RNvXs_NtNtNtNtCs6vaqcEMrLsG_19openzeppelin_stylus5utils7structs11checkpoints12generic_sizeINtNtCs8c3p7fi1c1U_10stylus_sdk7storage11StorageUintKj60_Kj2_ENtB4_8Accessor3setBc_
FN:97,_RNvXs_NtNtNtNtCs6vaqcEMrLsG_19openzeppelin_stylus5utils7structs11checkpoints12generic_sizeINtNtCs8c3p7fi1c1U_10stylus_sdk7storage11StorageUintKja0_Kj3_ENtB4_8Accessor3setBc_
FNDA:0,_RNvXs_NtNtNtNtCsa86sUp9HUqm_19openzeppelin_stylus5utils7structs11checkpoints12generic_sizeINtNtCs8c3p7fi1c1U_10stylus_sdk7storage11StorageUintKj60_Kj2_ENtB4_8Accessor3getBc_
FNDA:0,_RNvXs_NtNtNtNtCsa86sUp9HUqm_19openzeppelin_stylus5utils7structs11checkpoints12generic_sizeINtNtCs8c3p7fi1c1U_10stylus_sdk7storage11StorageUintKja0_Kj3_ENtB4_8Accessor3getBc_
FNDA:0,_RNvXININtNtNtNtCsa86sUp9HUqm_19openzeppelin_stylus5utils7structs11checkpoints12generic_sizes_0KpKpEINtNtCs8c3p7fi1c1U_10stylus_sdk7storage11StorageUintKpKpENtB5_8Accessor3setBd_
FNDA:71,_RNvXs_NtNtNtNtCs6vaqcEMrLsG_19openzeppelin_stylus5utils7structs11checkpoints12generic_sizeINtNtCs8c3p7fi1c1U_10stylus_sdk7storage11StorageUintKj60_Kj2_ENtB4_8Accessor3getBc_
FNDA:45,_RNvXs_NtNtNtNtCs6vaqcEMrLsG_19openzeppelin_stylus5utils7structs11checkpoints12generic_sizeINtNtCs8c3p7fi1c1U_10stylus_sdk7storage11StorageUintKja0_Kj3_ENtB4_8Accessor3getBc_
FNDA:29,_RNvXs_NtNtNtNtCs6vaqcEMrLsG_19openzeppelin_stylus5utils7structs11checkpoints12generic_sizeINtNtCs8c3p7fi1c1U_10stylus_sdk7storage11StorageUintKj60_Kj2_ENtB4_8Accessor3setBc_
FNDA:30,_RNvXs_NtNtNtNtCs6vaqcEMrLsG_19openzeppelin_stylus5utils7structs11checkpoints12generic_sizeINtNtCs8c3p7fi1c1U_10stylus_sdk7storage11StorageUintKja0_Kj3_ENtB4_8Accessor3setBc_
FNF:2
FNH:2
DA:93,116
DA:94,116
DA:95,116
DA:97,59
DA:98,59
DA:99,59
BRF:0
BRH:0
LF:6
LH:6
end_of_record
SF:/home/nenad/repos/rust-contracts-stylus/contracts/src/utils/structs/checkpoints/mod.rs
FN:33,_RNvXs3_NtNtNtCsa86sUp9HUqm_19openzeppelin_stylus5utils7structs11checkpointsINtNtCsdDMkpvQxPWz_5alloc3vec3VechEINtNtCshuVUGNokh5j_4core7convert4FromNtB5_5ErrorE4from
FN:59,_RNvMs5_NtNtNtCsa86sUp9HUqm_19openzeppelin_stylus5utils7structs11checkpointsINtB5_5TracepE14required_slotsBb_
FN:45,_RNvXININtNtNtCsa86sUp9HUqm_19openzeppelin_stylus5utils7structs11checkpointss6_0pEINtB5_5TracepENtNtNtCs8c3p7fi1c1U_10stylus_sdk7storage6traits11StorageType4loadBb_
FN:45,_RNvXININtNtNtCsa86sUp9HUqm_19openzeppelin_stylus5utils7structs11checkpointss6_0pEINtB5_5TracepENtNtNtCs8c3p7fi1c1U_10stylus_sdk7storage6traits11StorageType8load_mutBb_
FN:59,_RNvMs7_NtNtNtCsa86sUp9HUqm_19openzeppelin_stylus5utils7structs11checkpointsINtB5_10CheckpointpE14required_slotsBb_
FN:45,_RNvXININtNtNtCsa86sUp9HUqm_19openzeppelin_stylus5utils7structs11checkpointss8_0pEINtB5_10CheckpointpENtNtNtCs8c3p7fi1c1U_10stylus_sdk7storage6traits11StorageType8load_mutBb_
FN:81,_RNvMs_NtNtNtCsa86sUp9HUqm_19openzeppelin_stylus5utils7structs11checkpointsINtB4_5TracepE4pushBa_
FN:114,_RNvMs_NtNtNtCsa86sUp9HUqm_19openzeppelin_stylus5utils7structs11checkpointsINtB4_5TracepE12upper_lookupBa_
FN:134,_RNvMs_NtNtNtCsa86sUp9HUqm_19openzeppelin_stylus5utils7structs11checkpointsINtB4_5TracepE19upper_lookup_recentBa_
FN:164,_RNvMs_NtNtNtCsa86sUp9HUqm_19openzeppelin_stylus5utils7structs11checkpointsINtB4_5TracepE6latestBa_
FN:209,_RNvMs_NtNtNtCsa86sUp9HUqm_19openzeppelin_stylus5utils7structs11checkpointsINtB4_5TracepE2atBa_
FN:210,_RNCNvMs_NtNtNtCsa86sUp9HUqm_19openzeppelin_stylus5utils7structs11checkpointsINtB6_5TracepE2at0Bc_
FN:231,_RNvMs_NtNtNtCsa86sUp9HUqm_19openzeppelin_stylus5utils7structs11checkpointsINtB4_5TracepE7__insertBa_
FN:274,_RNvMs_NtNtNtCsa86sUp9HUqm_19openzeppelin_stylus5utils7structs11checkpointsINtB4_5TracepE20__upper_binary_lookupBa_
FN:350,_RNvMs_NtNtNtCsa86sUp9HUqm_19openzeppelin_stylus5utils7structs11checkpointsINtB4_5TracepE10__index_mutBa_
FN:353,_RNCNvMs_NtNtNtCsa86sUp9HUqm_19openzeppelin_stylus5utils7structs11checkpointsINtB6_5TracepE10__index_mut0Bc_
FN:363,_RNvMs_NtNtNtCsa86sUp9HUqm_19openzeppelin_stylus5utils7structs11checkpointsINtB4_5TracepE15__unchecked_pushBa_
FN:40,_RNvXNtNtNtCsa86sUp9HUqm_19openzeppelin_stylus5utils7structs11checkpointsNtB2_5ErrorNtNtNtCs8c3p7fi1c1U_10stylus_sdk4call5error11MethodError6encode
FN:33,_RNvXs2_NtNtNtCsa86sUp9HUqm_19openzeppelin_stylus5utils7structs11checkpointsNtB5_5ErrorINtNtCshuVUGNokh5j_4core7convert4FromNtB5_28CheckpointUnorderedInsertionE4from
FN:96,_RNvMs_NtNtNtCsa86sUp9HUqm_19openzeppelin_stylus5utils7structs11checkpointsINtB4_5TraceNtNtB4_12generic_size4S160E12lower_lookupBa_
FN:180,_RNvMs_NtNtNtCsa86sUp9HUqm_19openzeppelin_stylus5utils7structs11checkpointsINtB4_5TraceNtNtB4_12generic_size4S160E17latest_checkpointBa_
FN:195,_RNvMs_NtNtNtCsa86sUp9HUqm_19openzeppelin_stylus5utils7structs11checkpointsINtB4_5TraceNtNtB4_12generic_size4S160E6lengthBa_
FN:305,_RNvMs_NtNtNtCsa86sUp9HUqm_19openzeppelin_stylus5utils7structs11checkpointsINtB4_5TraceNtNtB4_12generic_size4S160E20__lower_binary_lookupBa_
FN:333,_RNvMs_NtNtNtCsa86sUp9HUqm_19openzeppelin_stylus5utils7structs11checkpointsINtB4_5TraceNtNtB4_12generic_size4S160E6__indexBa_
FN:336,_RNCNvMs_NtNtNtCsa86sUp9HUqm_19openzeppelin_stylus5utils7structs11checkpointsINtB6_5TraceNtNtB6_12generic_size4S160E6__index0Bc_
FN:59,_RNvXs6_NtNtNtCsa86sUp9HUqm_19openzeppelin_stylus5utils7structs11checkpointsINtB5_5TraceNtNtB5_12generic_size4S160ENtNtNtCs8c3p7fi1c1U_10stylus_sdk7storage6traits11StorageType3newBb_
FN:59,_RNvXs8_NtNtNtCsa86sUp9HUqm_19openzeppelin_stylus5utils7structs11checkpointsINtB5_10CheckpointNtNtB5_12generic_size4S160ENtNtNtCs8c3p7fi1c1U_10stylus_sdk7storage6traits11StorageType3newBb_
FN:45,_RNvXs8_NtNtNtCsa86sUp9HUqm_19openzeppelin_stylus5utils7structs11checkpointsINtB5_10CheckpointNtNtB5_12generic_size4S160ENtNtNtCs8c3p7fi1c1U_10stylus_sdk7storage6traits11StorageType4loadBb_
FN:26,_RNvNvNtNtNtCs6vaqcEMrLsG_19openzeppelin_stylus5utils7structs11checkpoints1__15__type_assertion
FN:33,_RNvXs3_NtNtNtCs6vaqcEMrLsG_19openzeppelin_stylus5utils7structs11checkpointsINtNtCsdDMkpvQxPWz_5alloc3vec3VechEINtNtCshuVUGNokh5j_4core7convert4FromNtB5_5ErrorE4from
FN:40,_RNvXNtNtNtCs6vaqcEMrLsG_19openzeppelin_stylus5utils7structs11checkpointsNtB2_5ErrorNtNtNtCs8c3p7fi1c1U_10stylus_sdk4call5error11MethodError6encode
FN:59,_RNvMs5_NtNtNtCs6vaqcEMrLsG_19openzeppelin_stylus5utils7structs11checkpointsINtB5_5TracepE14required_slotsBb_
FN:45,_RNvXININtNtNtCs6vaqcEMrLsG_19openzeppelin_stylus5utils7structs11checkpointss6_0pEINtB5_5TracepENtNtNtCs8c3p7fi1c1U_10stylus_sdk7storage6traits11StorageType4loadBb_
FN:45,_RNvXININtNtNtCs6vaqcEMrLsG_19openzeppelin_stylus5utils7structs11checkpointss6_0pEINtB5_5TracepENtNtNtCs8c3p7fi1c1U_10stylus_sdk7storage6traits11StorageType8load_mutBb_
FN:59,_RNvMs7_NtNtNtCs6vaqcEMrLsG_19openzeppelin_stylus5utils7structs11checkpointsINtB5_10CheckpointpE14required_slotsBb_
FN:45,_RNvXININtNtNtCs6vaqcEMrLsG_19openzeppelin_stylus5utils7structs11checkpointss8_0pEINtB5_10CheckpointpENtNtNtCs8c3p7fi1c1U_10stylus_sdk7storage6traits11StorageType8load_mutBb_
FN:378,_RNvNtNtNtNtCs6vaqcEMrLsG_19openzeppelin_stylus5utils7structs11checkpoints5testss_4push
FN:400,_RNvNtNtNtNtCs6vaqcEMrLsG_19openzeppelin_stylus5utils7structs11checkpoints5testss_15push_same_value
FN:425,_RNvNtNtNtNtCs6vaqcEMrLsG_19openzeppelin_stylus5utils7structs11checkpoints5testss_12lower_lookup
FN:437,_RNvNtNtNtNtCs6vaqcEMrLsG_19openzeppelin_stylus5utils7structs11checkpoints5testss_12upper_lookup
FN:449,_RNvNtNtNtNtCs6vaqcEMrLsG_19openzeppelin_stylus5utils7structs11checkpoints5testss_19upper_lookup_recent
FN:493,_RNvNtNtNtNtCs6vaqcEMrLsG_19openzeppelin_stylus5utils7structs11checkpoints5testss_6latest
FN:502,_RNvNtNtNtNtCs6vaqcEMrLsG_19openzeppelin_stylus5utils7structs11checkpoints5testss_17latest_checkpoint
FN:514,_RNvNtNtNtNtCs6vaqcEMrLsG_19openzeppelin_stylus5utils7structs11checkpoints5testss_30error_when_unordered_insertion
FN:81,_RNvMs_NtNtNtCs6vaqcEMrLsG_19openzeppelin_stylus5utils7structs11checkpointsINtB4_5TraceNtNtB4_12generic_size4S160E4pushBa_
FN:96,_RNvMs_NtNtNtCs6vaqcEMrLsG_19openzeppelin_stylus5utils7structs11checkpointsINtB4_5TraceNtNtB4_12generic_size4S160E12lower_lookupBa_
FN:114,_RNvMs_NtNtNtCs6vaqcEMrLsG_19openzeppelin_stylus5utils7structs11checkpointsINtB4_5TraceNtNtB4_12generic_size4S160E12upper_lookupBa_
FN:134,_RNvMs_NtNtNtCs6vaqcEMrLsG_19openzeppelin_stylus5utils7structs11checkpointsINtB4_5TraceNtNtB4_12generic_size4S160E19upper_lookup_recentBa_
FN:164,_RNvMs_NtNtNtCs6vaqcEMrLsG_19openzeppelin_stylus5utils7structs11checkpointsINtB4_5TraceNtNtB4_12generic_size4S160E6latestBa_
FN:180,_RNvMs_NtNtNtCs6vaqcEMrLsG_19openzeppelin_stylus5utils7structs11checkpointsINtB4_5TraceNtNtB4_12generic_size4S160E17latest_checkpointBa_
FN:195,_RNvMs_NtNtNtCs6vaqcEMrLsG_19openzeppelin_stylus5utils7structs11checkpointsINtB4_5TraceNtNtB4_12generic_size4S160E6lengthBa_
FN:209,_RNvMs_NtNtNtCs6vaqcEMrLsG_19openzeppelin_stylus5utils7structs11checkpointsINtB4_5TraceNtNtB4_12generic_size4S160E2atBa_
FN:210,_RNCNvMs_NtNtNtCs6vaqcEMrLsG_19openzeppelin_stylus5utils7structs11checkpointsINtB6_5TraceNtNtB6_12generic_size4S160E2at0Bc_
FN:231,_RNvMs_NtNtNtCs6vaqcEMrLsG_19openzeppelin_stylus5utils7structs11checkpointsINtB4_5TraceNtNtB4_12generic_size4S160E7__insertBa_
FN:274,_RNvMs_NtNtNtCs6vaqcEMrLsG_19openzeppelin_stylus5utils7structs11checkpointsINtB4_5TraceNtNtB4_12generic_size4S160E20__upper_binary_lookupBa_
FN:305,_RNvMs_NtNtNtCs6vaqcEMrLsG_19openzeppelin_stylus5utils7structs11checkpointsINtB4_5TraceNtNtB4_12generic_size4S160E20__lower_binary_lookupBa_
FN:333,_RNvMs_NtNtNtCs6vaqcEMrLsG_19openzeppelin_stylus5utils7structs11checkpointsINtB4_5TraceNtNtB4_12generic_size4S160E6__indexBa_
FN:336,_RNCNvMs_NtNtNtCs6vaqcEMrLsG_19openzeppelin_stylus5utils7structs11checkpointsINtB6_5TraceNtNtB6_12generic_size4S160E6__index0Bc_
FN:350,_RNvMs_NtNtNtCs6vaqcEMrLsG_19openzeppelin_stylus5utils7structs11checkpointsINtB4_5TraceNtNtB4_12generic_size4S160E10__index_mutBa_
FN:353,_RNCNvMs_NtNtNtCs6vaqcEMrLsG_19openzeppelin_stylus5utils7structs11checkpointsINtB6_5TraceNtNtB6_12generic_size4S160E10__index_mut0Bc_
FN:363,_RNvMs_NtNtNtCs6vaqcEMrLsG_19openzeppelin_stylus5utils7structs11checkpointsINtB4_5TraceNtNtB4_12generic_size4S160E15__unchecked_pushBa_
FN:59,_RNvXs6_NtNtNtCs6vaqcEMrLsG_19openzeppelin_stylus5utils7structs11checkpointsINtB5_5TraceNtNtB5_12generic_size4S160ENtNtNtCs8c3p7fi1c1U_10stylus_sdk7storage6traits11StorageType3newBb_
FN:59,_RNvXs8_NtNtNtCs6vaqcEMrLsG_19openzeppelin_stylus5utils7structs11checkpointsINtB5_10CheckpointNtNtB5_12generic_size4S160ENtNtNtCs8c3p7fi1c1U_10stylus_sdk7storage6traits11StorageType3newBb_
FN:45,_RNvXs8_NtNtNtCs6vaqcEMrLsG_19openzeppelin_stylus5utils7structs11checkpointsINtB5_10CheckpointNtNtB5_12generic_size4S160ENtNtNtCs8c3p7fi1c1U_10stylus_sdk7storage6traits11StorageType4loadBb_
FN:33,_RNvXs2_NtNtNtCs6vaqcEMrLsG_19openzeppelin_stylus5utils7structs11checkpointsNtB5_5ErrorINtNtCshuVUGNokh5j_4core7convert4FromNtB5_28CheckpointUnorderedInsertionE4from
FNDA:0,_RNvXs3_NtNtNtCsa86sUp9HUqm_19openzeppelin_stylus5utils7structs11checkpointsINtNtCsdDMkpvQxPWz_5alloc3vec3VechEINtNtCshuVUGNokh5j_4core7convert4FromNtB5_5ErrorE4from
FNDA:0,_RNvMs5_NtNtNtCsa86sUp9HUqm_19openzeppelin_stylus5utils7structs11checkpointsINtB5_5TracepE14required_slotsBb_
FNDA:0,_RNvXININtNtNtCsa86sUp9HUqm_19openzeppelin_stylus5utils7structs11checkpointss6_0pEINtB5_5TracepENtNtNtCs8c3p7fi1c1U_10stylus_sdk7storage6traits11StorageType4loadBb_
FNDA:0,_RNvXININtNtNtCsa86sUp9HUqm_19openzeppelin_stylus5utils7structs11checkpointss6_0pEINtB5_5TracepENtNtNtCs8c3p7fi1c1U_10stylus_sdk7storage6traits11StorageType8load_mutBb_
FNDA:0,_RNvMs7_NtNtNtCsa86sUp9HUqm_19openzeppelin_stylus5utils7structs11checkpointsINtB5_10CheckpointpE14required_slotsBb_
FNDA:0,_RNvXININtNtNtCsa86sUp9HUqm_19openzeppelin_stylus5utils7structs11checkpointss8_0pEINtB5_10CheckpointpENtNtNtCs8c3p7fi1c1U_10stylus_sdk7storage6traits11StorageType8load_mutBb_
FNDA:0,_RNvMs_NtNtNtCsa86sUp9HUqm_19openzeppelin_stylus5utils7structs11checkpointsINtB4_5TracepE4pushBa_
FNDA:0,_RNvMs_NtNtNtCsa86sUp9HUqm_19openzeppelin_stylus5utils7structs11checkpointsINtB4_5TracepE12upper_lookupBa_
FNDA:0,_RNvMs_NtNtNtCsa86sUp9HUqm_19openzeppelin_stylus5utils7structs11checkpointsINtB4_5TracepE19upper_lookup_recentBa_
FNDA:0,_RNvMs_NtNtNtCsa86sUp9HUqm_19openzeppelin_stylus5utils7structs11checkpointsINtB4_5TracepE6latestBa_
FNDA:0,_RNvMs_NtNtNtCsa86sUp9HUqm_19openzeppelin_stylus5utils7structs11checkpointsINtB4_5TracepE2atBa_
FNDA:0,_RNCNvMs_NtNtNtCsa86sUp9HUqm_19openzeppelin_stylus5utils7structs11checkpointsINtB6_5TracepE2at0Bc_
FNDA:0,_RNvMs_NtNtNtCsa86sUp9HUqm_19openzeppelin_stylus5utils7structs11checkpointsINtB4_5TracepE7__insertBa_
FNDA:0,_RNvMs_NtNtNtCsa86sUp9HUqm_19openzeppelin_stylus5utils7structs11checkpointsINtB4_5TracepE20__upper_binary_lookupBa_
FNDA:0,_RNvMs_NtNtNtCsa86sUp9HUqm_19openzeppelin_stylus5utils7structs11checkpointsINtB4_5TracepE10__index_mutBa_
FNDA:0,_RNCNvMs_NtNtNtCsa86sUp9HUqm_19openzeppelin_stylus5utils7structs11checkpointsINtB6_5TracepE10__index_mut0Bc_
FNDA:0,_RNvMs_NtNtNtCsa86sUp9HUqm_19openzeppelin_stylus5utils7structs11checkpointsINtB4_5TracepE15__unchecked_pushBa_
FNDA:0,_RNvXNtNtNtCsa86sUp9HUqm_19openzeppelin_stylus5utils7structs11checkpointsNtB2_5ErrorNtNtNtCs8c3p7fi1c1U_10stylus_sdk4call5error11MethodError6encode
FNDA:0,_RNvXs2_NtNtNtCsa86sUp9HUqm_19openzeppelin_stylus5utils7structs11checkpointsNtB5_5ErrorINtNtCshuVUGNokh5j_4core7convert4FromNtB5_28CheckpointUnorderedInsertionE4from
FNDA:0,_RNvMs_NtNtNtCsa86sUp9HUqm_19openzeppelin_stylus5utils7structs11checkpointsINtB4_5TraceNtNtB4_12generic_size4S160E12lower_lookupBa_
FNDA:0,_RNvMs_NtNtNtCsa86sUp9HUqm_19openzeppelin_stylus5utils7structs11checkpointsINtB4_5TraceNtNtB4_12generic_size4S160E17latest_checkpointBa_
FNDA:0,_RNvMs_NtNtNtCsa86sUp9HUqm_19openzeppelin_stylus5utils7structs11checkpointsINtB4_5TraceNtNtB4_12generic_size4S160E6lengthBa_
FNDA:0,_RNvMs_NtNtNtCsa86sUp9HUqm_19openzeppelin_stylus5utils7structs11checkpointsINtB4_5TraceNtNtB4_12generic_size4S160E20__lower_binary_lookupBa_
FNDA:0,_RNvMs_NtNtNtCsa86sUp9HUqm_19openzeppelin_stylus5utils7structs11checkpointsINtB4_5TraceNtNtB4_12generic_size4S160E6__indexBa_
FNDA:0,_RNCNvMs_NtNtNtCsa86sUp9HUqm_19openzeppelin_stylus5utils7structs11checkpointsINtB6_5TraceNtNtB6_12generic_size4S160E6__index0Bc_
FNDA:0,_RNvXs6_NtNtNtCsa86sUp9HUqm_19openzeppelin_stylus5utils7structs11checkpointsINtB5_5TraceNtNtB5_12generic_size4S160ENtNtNtCs8c3p7fi1c1U_10stylus_sdk7storage6traits11StorageType3newBb_
FNDA:0,_RNvXs8_NtNtNtCsa86sUp9HUqm_19openzeppelin_stylus5utils7structs11checkpointsINtB5_10CheckpointNtNtB5_12generic_size4S160ENtNtNtCs8c3p7fi1c1U_10stylus_sdk7storage6traits11StorageType3newBb_
FNDA:0,_RNvXs8_NtNtNtCsa86sUp9HUqm_19openzeppelin_stylus5utils7structs11checkpointsINtB5_10CheckpointNtNtB5_12generic_size4S160ENtNtNtCs8c3p7fi1c1U_10stylus_sdk7storage6traits11StorageType4loadBb_
FNDA:0,_RNvNvNtNtNtCs6vaqcEMrLsG_19openzeppelin_stylus5utils7structs11checkpoints1__15__type_assertion
FNDA:0,_RNvXs3_NtNtNtCs6vaqcEMrLsG_19openzeppelin_stylus5utils7structs11checkpointsINtNtCsdDMkpvQxPWz_5alloc3vec3VechEINtNtCshuVUGNokh5j_4core7convert4FromNtB5_5ErrorE4from
FNDA:0,_RNvXNtNtNtCs6vaqcEMrLsG_19openzeppelin_stylus5utils7structs11checkpointsNtB2_5ErrorNtNtNtCs8c3p7fi1c1U_10stylus_sdk4call5error11MethodError6encode
FNDA:0,_RNvMs5_NtNtNtCs6vaqcEMrLsG_19openzeppelin_stylus5utils7structs11checkpointsINtB5_5TracepE14required_slotsBb_
FNDA:0,_RNvXININtNtNtCs6vaqcEMrLsG_19openzeppelin_stylus5utils7structs11checkpointss6_0pEINtB5_5TracepENtNtNtCs8c3p7fi1c1U_10stylus_sdk7storage6traits11StorageType4loadBb_
FNDA:0,_RNvXININtNtNtCs6vaqcEMrLsG_19openzeppelin_stylus5utils7structs11checkpointss6_0pEINtB5_5TracepENtNtNtCs8c3p7fi1c1U_10stylus_sdk7storage6traits11StorageType8load_mutBb_
FNDA:0,_RNvMs7_NtNtNtCs6vaqcEMrLsG_19openzeppelin_stylus5utils7structs11checkpointsINtB5_10CheckpointpE14required_slotsBb_
FNDA:0,_RNvXININtNtNtCs6vaqcEMrLsG_19openzeppelin_stylus5utils7structs11checkpointss8_0pEINtB5_10CheckpointpENtNtNtCs8c3p7fi1c1U_10stylus_sdk7storage6traits11StorageType8load_mutBb_
FNDA:1,_RNvNtNtNtNtCs6vaqcEMrLsG_19openzeppelin_stylus5utils7structs11checkpoints5testss_4push
FNDA:1,_RNvNtNtNtNtCs6vaqcEMrLsG_19openzeppelin_stylus5utils7structs11checkpoints5testss_15push_same_value
FNDA:1,_RNvNtNtNtNtCs6vaqcEMrLsG_19openzeppelin_stylus5utils7structs11checkpoints5testss_12lower_lookup
FNDA:1,_RNvNtNtNtNtCs6vaqcEMrLsG_19openzeppelin_stylus5utils7structs11checkpoints5testss_12upper_lookup
FNDA:1,_RNvNtNtNtNtCs6vaqcEMrLsG_19openzeppelin_stylus5utils7structs11checkpoints5testss_19upper_lookup_recent
FNDA:1,_RNvNtNtNtNtCs6vaqcEMrLsG_19openzeppelin_stylus5utils7structs11checkpoints5testss_6latest
FNDA:1,_RNvNtNtNtNtCs6vaqcEMrLsG_19openzeppelin_stylus5utils7structs11checkpoints5testss_17latest_checkpoint
FNDA:1,_RNvNtNtNtNtCs6vaqcEMrLsG_19openzeppelin_stylus5utils7structs11checkpoints5testss_30error_when_unordered_insertion
FNDA:31,_RNvMs_NtNtNtCs6vaqcEMrLsG_19openzeppelin_stylus5utils7structs11checkpointsINtB4_5TraceNtNtB4_12generic_size4S160E4pushBa_
FNDA:25,_RNvMs_NtNtNtCs6vaqcEMrLsG_19openzeppelin_stylus5utils7structs11checkpointsINtB4_5TraceNtNtB4_12generic_size4S160E12lower_lookupBa_
FNDA:4,_RNvMs_NtNtNtCs6vaqcEMrLsG_19openzeppelin_stylus5utils7structs11checkpointsINtB4_5TraceNtNtB4_12generic_size4S160E12upper_lookupBa_
FNDA:7,_RNvMs_NtNtNtCs6vaqcEMrLsG_19openzeppelin_stylus5utils7structs11checkpointsINtB4_5TraceNtNtB4_12generic_size4S160E19upper_lookup_recentBa_
FNDA:2,_RNvMs_NtNtNtCs6vaqcEMrLsG_19openzeppelin_stylus5utils7structs11checkpointsINtB4_5TraceNtNtB4_12generic_size4S160E6latestBa_
FNDA:11,_RNvMs_NtNtNtCs6vaqcEMrLsG_19openzeppelin_stylus5utils7structs11checkpointsINtB4_5TraceNtNtB4_12generic_size4S160E17latest_checkpointBa_
FNDA:82,_RNvMs_NtNtNtCs6vaqcEMrLsG_19openzeppelin_stylus5utils7structs11checkpointsINtB4_5TraceNtNtB4_12generic_size4S160E6lengthBa_
FNDA:5,_RNvMs_NtNtNtCs6vaqcEMrLsG_19openzeppelin_stylus5utils7structs11checkpointsINtB4_5TraceNtNtB4_12generic_size4S160E2atBa_
FNDA:0,_RNCNvMs_NtNtNtCs6vaqcEMrLsG_19openzeppelin_stylus5utils7structs11checkpointsINtB6_5TraceNtNtB6_12generic_size4S160E2at0Bc_
FNDA:31,_RNvMs_NtNtNtCs6vaqcEMrLsG_19openzeppelin_stylus5utils7structs11checkpointsINtB4_5TraceNtNtB4_12generic_size4S160E7__insertBa_
FNDA:11,_RNvMs_NtNtNtCs6vaqcEMrLsG_19openzeppelin_stylus5utils7structs11checkpointsINtB4_5TraceNtNtB4_12generic_size4S160E20__upper_binary_lookupBa_
FNDA:25,_RNvMs_NtNtNtCs6vaqcEMrLsG_19openzeppelin_stylus5utils7structs11checkpointsINtB4_5TraceNtNtB4_12generic_size4S160E20__lower_binary_lookupBa_
FNDA:81,_RNvMs_NtNtNtCs6vaqcEMrLsG_19openzeppelin_stylus5utils7structs11checkpointsINtB4_5TraceNtNtB4_12generic_size4S160E6__indexBa_
FNDA:0,_RNCNvMs_NtNtNtCs6vaqcEMrLsG_19openzeppelin_stylus5utils7structs11checkpointsINtB6_5TraceNtNtB6_12generic_size4S160E6__index0Bc_
FNDA:1,_RNvMs_NtNtNtCs6vaqcEMrLsG_19openzeppelin_stylus5utils7structs11checkpointsINtB4_5TraceNtNtB4_12generic_size4S160E10__index_mutBa_
FNDA:0,_RNCNvMs_NtNtNtCs6vaqcEMrLsG_19openzeppelin_stylus5utils7structs11checkpointsINtB6_5TraceNtNtB6_12generic_size4S160E10__index_mut0Bc_
FNDA:29,_RNvMs_NtNtNtCs6vaqcEMrLsG_19openzeppelin_stylus5utils7structs11checkpointsINtB4_5TraceNtNtB4_12generic_size4S160E15__unchecked_pushBa_
FNDA:29,_RNvXs6_NtNtNtCs6vaqcEMrLsG_19openzeppelin_stylus5utils7structs11checkpointsINtB5_5TraceNtNtB5_12generic_size4S160ENtNtNtCs8c3p7fi1c1U_10stylus_sdk7storage6traits11StorageType3newBb_
FNDA:116,_RNvXs8_NtNtNtCs6vaqcEMrLsG_19openzeppelin_stylus5utils7structs11checkpointsINtB5_10CheckpointNtNtB5_12generic_size4S160ENtNtNtCs8c3p7fi1c1U_10stylus_sdk7storage6traits11StorageType3newBb_
FNDA:86,_RNvXs8_NtNtNtCs6vaqcEMrLsG_19openzeppelin_stylus5utils7structs11checkpointsINtB5_10CheckpointNtNtB5_12generic_size4S160ENtNtNtCs8c3p7fi1c1U_10stylus_sdk7storage6traits11StorageType4loadBb_
FNDA:1,_RNvXs2_NtNtNtCs6vaqcEMrLsG_19openzeppelin_stylus5utils7structs11checkpointsNtB5_5ErrorINtNtCshuVUGNokh5j_4core7convert4FromNtB5_28CheckpointUnorderedInsertionE4from
FNF:30
FNH:25
DA:26,0
DA:27,0
DA:28,0
DA:29,0
DA:30,0
DA:33,1
DA:40,0
DA:41,0
DA:42,0
DA:45,86
DA:46,86
DA:47,86
DA:48,86
DA:49,86
DA:50,86
DA:51,86
DA:52,86
DA:53,86
DA:54,86
DA:55,86
DA:56,86
DA:57,86
DA:58,86
DA:59,145
DA:81,31
DA:82,31
DA:83,31
DA:84,31
DA:85,31
DA:86,31
DA:87,31
DA:96,25
DA:97,25
DA:98,25
DA:99,25
DA:100,20
DA:102,5
DA:104,25
DA:114,4
DA:115,4
DA:116,4
DA:117,4
DA:118,1
DA:120,3
DA:122,4
DA:134,7
DA:135,7
DA:136,7
DA:137,7
DA:138,7
DA:139,7
DA:140,7
DA:141,4
DA:142,4
DA:143,2
DA:144,2
DA:145,2
DA:146,2
DA:147,3
DA:149,7
DA:150,7
DA:151,7
DA:152,1
DA:154,6
DA:156,7
DA:164,2
DA:165,2
DA:166,2
DA:167,1
DA:169,1
DA:171,2
DA:180,11
DA:181,11
DA:182,11
DA:183,6
DA:185,5
DA:186,5
DA:188,11
DA:195,82
DA:196,82
DA:197,82
DA:209,5
DA:210,5
DA:211,0
DA:212,5
DA:213,5
DA:214,5
DA:231,31
DA:232,31
DA:233,31
DA:234,31
DA:235,31
DA:236,31
DA:237,31
DA:238,20
DA:239,20
DA:240,20
DA:241,20
DA:242,20
DA:243,20
DA:244,1
DA:245,19
DA:246,19
DA:247,19
DA:248,19
DA:249,1
DA:250,18
DA:251,18
DA:252,18
DA:253,19
DA:255,11
DA:256,11
DA:258,31
DA:274,11
DA:275,11
DA:276,11
DA:277,11
DA:278,11
DA:279,11
DA:280,32
DA:281,21
DA:282,21
DA:283,12
DA:284,12
DA:285,9
DA:286,9
DA:288,11
DA:289,11
DA:305,25
DA:306,25
DA:307,25
DA:308,25
DA:309,25
DA:310,25
DA:311,41
DA:312,16
DA:313,16
DA:314,10
DA:315,10
DA:316,6
DA:317,6
DA:319,25
DA:320,25
DA:333,81
DA:334,81
DA:335,81
DA:336,81
DA:337,81
DA:350,1
DA:351,1
DA:352,1
DA:353,1
DA:354,1
DA:363,29
DA:364,29
DA:365,29
DA:366,29
DA:367,29
DA:378,1
DA:400,1
DA:425,1
DA:437,1
DA:449,1
DA:493,1
DA:502,1
DA:514,1
BRF:0
BRH:0
LF:170
LH:158
end_of_record
SF:/home/nenad/repos/rust-contracts-stylus/lib/crypto/src/bigint.rs
FN:155,_RINvNtCs6zlNjbpqib3_19openzeppelin_crypto6bigint14from_str_radixKj1_EB4_
FN:155,_RINvNtCs6zlNjbpqib3_19openzeppelin_crypto6bigint14from_str_radixKj4_EB4_
FN:197,_RINvNtCs6zlNjbpqib3_19openzeppelin_crypto6bigint3mulKj1_EB4_
FN:197,_RINvNtCs6zlNjbpqib3_19openzeppelin_crypto6bigint3mulKj4_EB4_
FN:208,_RINvNtCs6zlNjbpqib3_19openzeppelin_crypto6bigint3addKj1_EB4_
FN:208,_RINvNtCs6zlNjbpqib3_19openzeppelin_crypto6bigint3addKj4_EB4_
FN:246,_RNvNtNtCs6zlNjbpqib3_19openzeppelin_crypto6bigint4tests_22convert_from_str_radix
FN:269,_RNvNtNtCs6zlNjbpqib3_19openzeppelin_crypto6bigint4tests_20uint_bit_iterator_be
FN:146,_RNvXs_NtCs6zlNjbpqib3_19openzeppelin_crypto6bigintINtNtCs3TdFz0fPAh9_13crypto_bigint4uint4UintKj4_ENtNtB6_4bits13BitIteratorBE11bit_be_iterB6_
FN:218,_RNvNtCs6zlNjbpqib3_19openzeppelin_crypto6bigint15parse_utf8_byte
FN:124,_RNvXININtCs6zlNjbpqib3_19openzeppelin_crypto6bigint0KpEINtNtCs3TdFz0fPAh9_13crypto_bigint4uint4UintKpENtB5_10BigInteger6is_oddB7_
FN:128,_RNvXININtCs6zlNjbpqib3_19openzeppelin_crypto6bigint0KpEINtNtCs3TdFz0fPAh9_13crypto_bigint4uint4UintKpENtB5_10BigInteger7is_evenB7_
FN:132,_RNvXININtCs6zlNjbpqib3_19openzeppelin_crypto6bigint0KpEINtNtCs3TdFz0fPAh9_13crypto_bigint4uint4UintKpENtB5_10BigInteger7is_zeroB7_
FN:136,_RNvXININtCs6zlNjbpqib3_19openzeppelin_crypto6bigint0KpEINtNtCs3TdFz0fPAh9_13crypto_bigint4uint4UintKpENtB5_10BigInteger8num_bitsB7_
FN:140,_RNvXININtCs6zlNjbpqib3_19openzeppelin_crypto6bigint0KpEINtNtCs3TdFz0fPAh9_13crypto_bigint4uint4UintKpENtB5_10BigInteger7get_bitB7_
FNDA:2,_RINvNtCs6zlNjbpqib3_19openzeppelin_crypto6bigint14from_str_radixKj1_EB4_
FNDA:1,_RINvNtCs6zlNjbpqib3_19openzeppelin_crypto6bigint14from_str_radixKj4_EB4_
FNDA:166,_RINvNtCs6zlNjbpqib3_19openzeppelin_crypto6bigint3mulKj1_EB4_
FNDA:153,_RINvNtCs6zlNjbpqib3_19openzeppelin_crypto6bigint3mulKj4_EB4_
FNDA:84,_RINvNtCs6zlNjbpqib3_19openzeppelin_crypto6bigint3addKj1_EB4_
FNDA:77,_RINvNtCs6zlNjbpqib3_19openzeppelin_crypto6bigint3addKj4_EB4_
FNDA:1,_RNvNtNtCs6zlNjbpqib3_19openzeppelin_crypto6bigint4tests_22convert_from_str_radix
FNDA:1,_RNvNtNtCs6zlNjbpqib3_19openzeppelin_crypto6bigint4tests_20uint_bit_iterator_be
FNDA:1,_RNvXs_NtCs6zlNjbpqib3_19openzeppelin_crypto6bigintINtNtCs3TdFz0fPAh9_13crypto_bigint4uint4UintKj4_ENtNtB6_4bits13BitIteratorBE11bit_be_iterB6_
FNDA:161,_RNvNtCs6zlNjbpqib3_19openzeppelin_crypto6bigint15parse_utf8_byte
FNDA:0,_RNvXININtCs6zlNjbpqib3_19openzeppelin_crypto6bigint0KpEINtNtCs3TdFz0fPAh9_13crypto_bigint4uint4UintKpENtB5_10BigInteger6is_oddB7_
FNDA:0,_RNvXININtCs6zlNjbpqib3_19openzeppelin_crypto6bigint0KpEINtNtCs3TdFz0fPAh9_13crypto_bigint4uint4UintKpENtB5_10BigInteger7is_evenB7_
FNDA:0,_RNvXININtCs6zlNjbpqib3_19openzeppelin_crypto6bigint0KpEINtNtCs3TdFz0fPAh9_13crypto_bigint4uint4UintKpENtB5_10BigInteger7is_zeroB7_
FNDA:0,_RNvXININtCs6zlNjbpqib3_19openzeppelin_crypto6bigint0KpEINtNtCs3TdFz0fPAh9_13crypto_bigint4uint4UintKpENtB5_10BigInteger8num_bitsB7_
FNDA:0,_RNvXININtCs6zlNjbpqib3_19openzeppelin_crypto6bigint0KpEINtNtCs3TdFz0fPAh9_13crypto_bigint4uint4UintKpENtB5_10BigInteger7get_bitB7_
FNF:12
FNH:7
DA:124,0
DA:125,0
DA:126,0
DA:128,0
DA:129,0
DA:130,0
DA:132,0
DA:133,0
DA:134,0
DA:136,0
DA:137,0
DA:138,0
DA:140,0
DA:141,0
DA:142,0
DA:146,1
DA:147,1
DA:148,1
DA:155,3
DA:156,3
DA:157,3
DA:158,3
DA:159,3
DA:160,3
DA:161,3
DA:162,3
DA:163,3
DA:164,3
DA:165,3
DA:166,3
DA:167,3
DA:171,161
DA:172,161
DA:174,0
DA:176,161
DA:177,161
DA:178,161
DA:179,161
DA:180,161
DA:181,161
DA:182,161
DA:183,161
DA:184,3
DA:185,158
DA:186,158
DA:187,158
DA:188,158
DA:189,158
DA:190,158
DA:191,158
DA:193,3
DA:197,319
DA:198,319
DA:199,319
DA:200,319
DA:201,319
DA:202,319
DA:203,319
DA:204,319
DA:208,161
DA:209,161
DA:210,161
DA:211,161
DA:212,161
DA:213,161
DA:214,161
DA:215,161
DA:218,161
DA:219,161
DA:220,161
DA:221,0
DA:223,161
DA:246,1
DA:247,1
DA:248,1
DA:249,1
DA:250,1
DA:251,1
DA:252,1
DA:253,1
DA:254,1
DA:255,1
DA:256,1
DA:257,1
DA:258,1
DA:260,1
DA:261,1
DA:262,1
DA:263,1
DA:264,1
DA:265,1
DA:266,1
DA:269,1
DA:270,1
DA:271,1
DA:272,1
DA:273,1
DA:274,1
DA:275,1
DA:276,1
BRF:0
BRH:0
LF:100
LH:83
end_of_record
SF:/home/nenad/repos/rust-contracts-stylus/lib/crypto/src/bits.rs
FN:11,_RNvYINtNtCs3TdFz0fPAh9_13crypto_bigint4uint4UintKj4_ENtNtCs6zlNjbpqib3_19openzeppelin_crypto4bits13BitIteratorBE19bit_be_trimmed_iterBT_
FN:19,_RNvXNtCs6zlNjbpqib3_19openzeppelin_crypto4bitshNtB2_13BitIteratorBE11bit_be_iter
FN:20,_RNCNvXNtCs6zlNjbpqib3_19openzeppelin_crypto4bitshNtB4_13BitIteratorBE11bit_be_iter0B6_
FN:19,_RNvXs_NtCs6zlNjbpqib3_19openzeppelin_crypto4bitstNtB4_13BitIteratorBE11bit_be_iter
FN:20,_RNCNvXs_NtCs6zlNjbpqib3_19openzeppelin_crypto4bitstNtB6_13BitIteratorBE11bit_be_iter0B8_
FN:19,_RNvXs2_NtCs6zlNjbpqib3_19openzeppelin_crypto4bitsoNtB5_13BitIteratorBE11bit_be_iter
FN:20,_RNCNvXs2_NtCs6zlNjbpqib3_19openzeppelin_crypto4bitsoNtB7_13BitIteratorBE11bit_be_iter0B9_
FN:19,_RNvXs3_NtCs6zlNjbpqib3_19openzeppelin_crypto4bitsjNtB5_13BitIteratorBE11bit_be_iter
FN:20,_RNCNvXs3_NtCs6zlNjbpqib3_19openzeppelin_crypto4bitsjNtB7_13BitIteratorBE11bit_be_iter0B9_
FN:39,_RNvNtNtCs6zlNjbpqib3_19openzeppelin_crypto4bits5testss_19u64_bit_iterator_be
FN:11,_RNvYmNtNtCs6zlNjbpqib3_19openzeppelin_crypto4bits13BitIteratorBE19bit_be_trimmed_iterB7_
FN:11,_RNvYyNtNtCs6zlNjbpqib3_19openzeppelin_crypto4bits13BitIteratorBE19bit_be_trimmed_iterB7_
FN:12,_RNCNvYINtNtCs3TdFz0fPAh9_13crypto_bigint4uint4UintKj4_ENtNtCs6zlNjbpqib3_19openzeppelin_crypto4bits13BitIteratorBE19bit_be_trimmed_iter0BV_
FN:12,_RNCNvYmNtNtCs6zlNjbpqib3_19openzeppelin_crypto4bits13BitIteratorBE19bit_be_trimmed_iter0B9_
FN:12,_RNCNvYyNtNtCs6zlNjbpqib3_19openzeppelin_crypto4bits13BitIteratorBE19bit_be_trimmed_iter0B9_
FN:20,_RNCNvXs0_NtCs6zlNjbpqib3_19openzeppelin_crypto4bitsmNtB7_13BitIteratorBE11bit_be_iter0B9_
FN:20,_RNCNvXs1_NtCs6zlNjbpqib3_19openzeppelin_crypto4bitsyNtB7_13BitIteratorBE11bit_be_iter0B9_
FN:19,_RNvXs0_NtCs6zlNjbpqib3_19openzeppelin_crypto4bitsmNtB5_13BitIteratorBE11bit_be_iter
FN:19,_RNvXs1_NtCs6zlNjbpqib3_19openzeppelin_crypto4bitsyNtB5_13BitIteratorBE11bit_be_iter
FNDA:1,_RNvYINtNtCs3TdFz0fPAh9_13crypto_bigint4uint4UintKj4_ENtNtCs6zlNjbpqib3_19openzeppelin_crypto4bits13BitIteratorBE19bit_be_trimmed_iterBT_
FNDA:0,_RNvXNtCs6zlNjbpqib3_19openzeppelin_crypto4bitshNtB2_13BitIteratorBE11bit_be_iter
FNDA:0,_RNCNvXNtCs6zlNjbpqib3_19openzeppelin_crypto4bitshNtB4_13BitIteratorBE11bit_be_iter0B6_
FNDA:0,_RNvXs_NtCs6zlNjbpqib3_19openzeppelin_crypto4bitstNtB4_13BitIteratorBE11bit_be_iter
FNDA:0,_RNCNvXs_NtCs6zlNjbpqib3_19openzeppelin_crypto4bitstNtB6_13BitIteratorBE11bit_be_iter0B8_
FNDA:0,_RNvXs2_NtCs6zlNjbpqib3_19openzeppelin_crypto4bitsoNtB5_13BitIteratorBE11bit_be_iter
FNDA:0,_RNCNvXs2_NtCs6zlNjbpqib3_19openzeppelin_crypto4bitsoNtB7_13BitIteratorBE11bit_be_iter0B9_
FNDA:0,_RNvXs3_NtCs6zlNjbpqib3_19openzeppelin_crypto4bitsjNtB5_13BitIteratorBE11bit_be_iter
FNDA:0,_RNCNvXs3_NtCs6zlNjbpqib3_19openzeppelin_crypto4bitsjNtB7_13BitIteratorBE11bit_be_iter0B9_
FNDA:1,_RNvNtNtCs6zlNjbpqib3_19openzeppelin_crypto4bits5testss_19u64_bit_iterator_be
FNDA:256,_RNvYmNtNtCs6zlNjbpqib3_19openzeppelin_crypto4bits13BitIteratorBE19bit_be_trimmed_iterB7_
FNDA:1,_RNvYyNtNtCs6zlNjbpqib3_19openzeppelin_crypto4bits13BitIteratorBE19bit_be_trimmed_iterB7_
FNDA:253,_RNCNvYINtNtCs3TdFz0fPAh9_13crypto_bigint4uint4UintKj4_ENtNtCs6zlNjbpqib3_19openzeppelin_crypto4bits13BitIteratorBE19bit_be_trimmed_iter0BV_
FNDA:6147,_RNCNvYmNtNtCs6zlNjbpqib3_19openzeppelin_crypto4bits13BitIteratorBE19bit_be_trimmed_iter0B9_
FNDA:61,_RNCNvYyNtNtCs6zlNjbpqib3_19openzeppelin_crypto4bits13BitIteratorBE19bit_be_trimmed_iter0B9_
FNDA:8192,_RNCNvXs0_NtCs6zlNjbpqib3_19openzeppelin_crypto4bitsmNtB7_13BitIteratorBE11bit_be_iter0B9_
FNDA:320,_RNCNvXs1_NtCs6zlNjbpqib3_19openzeppelin_crypto4bitsyNtB7_13BitIteratorBE11bit_be_iter0B9_
FNDA:256,_RNvXs0_NtCs6zlNjbpqib3_19openzeppelin_crypto4bitsmNtB5_13BitIteratorBE11bit_be_iter
FNDA:5,_RNvXs1_NtCs6zlNjbpqib3_19openzeppelin_crypto4bitsyNtB5_13BitIteratorBE11bit_be_iter
FNF:5
FNH:5
DA:11,258
DA:12,6461
DA:13,258
DA:19,261
DA:20,8512
DA:21,261
DA:39,1
DA:40,1
DA:41,1
DA:42,1
DA:43,1
DA:44,1
DA:45,1
BRF:0
BRH:0
LF:15
LH:15
end_of_record
SF:/home/nenad/repos/rust-contracts-stylus/lib/crypto/src/field/fp.rs
FN:48,_RNvYNtNtNtNtCs6zlNjbpqib3_19openzeppelin_crypto5field2fp5tests9Fp64ParamINtB6_8FpParamsKj1_E10add_assignBa_
FN:53,_RNvYNtNtNtNtCs6zlNjbpqib3_19openzeppelin_crypto5field2fp5tests9Fp64ParamINtB6_8FpParamsKj1_E10sub_assignBa_
FN:58,_RNvYNtNtNtNtCs6zlNjbpqib3_19openzeppelin_crypto5field2fp5tests9Fp64ParamINtB6_8FpParamsKj1_E15double_in_placeBa_
FN:63,_RNvYNtNtNtNtCs6zlNjbpqib3_19openzeppelin_crypto5field2fp5tests9Fp64ParamINtB6_8FpParamsKj1_E12neg_in_placeBa_
FN:68,_RNvYNtNtNtNtCs6zlNjbpqib3_19openzeppelin_crypto5field2fp5tests9Fp64ParamINtB6_8FpParamsKj1_E10mul_assignBa_
FN:73,_RNvYNtNtNtNtCs6zlNjbpqib3_19openzeppelin_crypto5field2fp5tests9Fp64ParamINtB6_8FpParamsKj1_E15square_in_placeBa_
FN:79,_RNvYNtNtNtNtCs6zlNjbpqib3_19openzeppelin_crypto5field2fp5tests9Fp64ParamINtB6_8FpParamsKj1_E7inverseBa_
FN:90,_RNvYNtNtNtNtCs6zlNjbpqib3_19openzeppelin_crypto5field2fp5tests9Fp64ParamINtB6_8FpParamsKj1_E11from_bigintBa_
FN:96,_RNvYNtNtNtNtCs6zlNjbpqib3_19openzeppelin_crypto5field2fp5tests9Fp64ParamINtB6_8FpParamsKj1_E11into_bigintBa_
FN:954,_RNCNvNCNvNtNtNtCs6zlNjbpqib3_19openzeppelin_crypto5field2fp5testss_3pows_08dumb_pow0Bd_
FN:199,_RNvMs_NtNtCs6zlNjbpqib3_19openzeppelin_crypto5field2fpINtB4_2FpNtNtB4_5tests9Fp64ParamKj1_E3newB8_
FN:233,_RNvXs2_NtNtCs6zlNjbpqib3_19openzeppelin_crypto5field2fpINtB5_2FpNtNtB5_5tests9Fp64ParamKj1_ENtNtCscvi8cNJv7me_10num_traits10identities4Zero4zeroB9_
FN:245,_RNvXs3_NtNtCs6zlNjbpqib3_19openzeppelin_crypto5field2fpINtB5_2FpNtNtB5_5tests9Fp64ParamKj1_ENtNtCscvi8cNJv7me_10num_traits10identities3One3oneB9_
FN:261,_RNvXs4_NtNtCs6zlNjbpqib3_19openzeppelin_crypto5field2fpINtB5_2FpNtNtB5_5tests9Fp64ParamKj1_ENtNtB7_5group13AdditiveGroup6doubleB9_
FN:268,_RNvXs4_NtNtCs6zlNjbpqib3_19openzeppelin_crypto5field2fpINtB5_2FpNtNtB5_5tests9Fp64ParamKj1_ENtNtB7_5group13AdditiveGroup15double_in_placeB9_
FN:284,_RNvXs5_NtNtCs6zlNjbpqib3_19openzeppelin_crypto5field2fpINtB5_2FpNtNtB5_5tests9Fp64ParamKj1_ENtB7_5Field6squareB9_
FN:290,_RNvXs5_NtNtCs6zlNjbpqib3_19openzeppelin_crypto5field2fpINtB5_2FpNtNtB5_5tests9Fp64ParamKj1_ENtB7_5Field15square_in_placeB9_
FN:296,_RNvXs5_NtNtCs6zlNjbpqib3_19openzeppelin_crypto5field2fpINtB5_2FpNtNtB5_5tests9Fp64ParamKj1_ENtB7_5Field7inverseB9_
FN:317,_RNvXs6_NtNtCs6zlNjbpqib3_19openzeppelin_crypto5field2fpINtB5_2FpNtNtB5_5tests9Fp64ParamKj1_ENtNtB7_5prime10PrimeField11from_bigintB9_
FN:321,_RNvXs6_NtNtCs6zlNjbpqib3_19openzeppelin_crypto5field2fpINtB5_2FpNtNtB5_5tests9Fp64ParamKj1_ENtNtB7_5prime10PrimeField11into_bigintB9_
FN:441,_RNvXsc_NtNtCs6zlNjbpqib3_19openzeppelin_crypto5field2fpINtB5_2FpNtNtB5_5tests9Fp64ParamKj1_ENtNtNtCshuVUGNokh5j_4core3ops5arith3Neg3negB9_
FN:561,_RNvXsl_NtNtCs6zlNjbpqib3_19openzeppelin_crypto5field2fpINtB5_2FpNtNtB5_5tests9Fp64ParamKj1_EINtNtNtCshuVUGNokh5j_4core3ops5arith9AddAssignRBR_E10add_assignB9_
FN:570,_RNvXsm_NtNtCs6zlNjbpqib3_19openzeppelin_crypto5field2fpINtB5_2FpNtNtB5_5tests9Fp64ParamKj1_EINtNtNtCshuVUGNokh5j_4core3ops5arith9SubAssignRBR_E10sub_assignB9_
FN:582,_RNvXsn_NtNtCs6zlNjbpqib3_19openzeppelin_crypto5field2fpINtB5_2FpNtNtB5_5tests9Fp64ParamKj1_ENtNtNtCshuVUGNokh5j_4core3ops5arith3Add3addB9_
FN:610,_RNvXsp_NtNtCs6zlNjbpqib3_19openzeppelin_crypto5field2fpINtB5_2FpNtNtB5_5tests9Fp64ParamKj1_ENtNtNtCshuVUGNokh5j_4core3ops5arith3Sub3subB9_
FN:692,_RNvXsx_NtNtCs6zlNjbpqib3_19openzeppelin_crypto5field2fpINtB5_2FpNtNtB5_5tests9Fp64ParamKj1_EINtNtNtCshuVUGNokh5j_4core3ops5arith9MulAssignRBR_E10mul_assignB9_
FN:703,_RNvXsy_NtNtCs6zlNjbpqib3_19openzeppelin_crypto5field2fpINtB5_2FpNtNtB5_5tests9Fp64ParamKj1_EINtNtNtCshuVUGNokh5j_4core3ops5arith9DivAssignRBR_E10div_assignB9_
FN:716,_RNvXsz_NtNtCs6zlNjbpqib3_19openzeppelin_crypto5field2fpINtB5_2FpNtNtB5_5tests9Fp64ParamKj1_ENtNtNtCshuVUGNokh5j_4core3ops5arith3Mul3mulB9_
FN:730,_RNvXsA_NtNtCs6zlNjbpqib3_19openzeppelin_crypto5field2fpINtB5_2FpNtNtB5_5tests9Fp64ParamKj1_ENtNtNtCshuVUGNokh5j_4core3ops5arith3Div3divB9_
FN:345,_RNvXsY_NtNtCs6zlNjbpqib3_19openzeppelin_crypto5field2fpINtB5_2FpNtNtB5_5tests9Fp64ParamKj1_EINtNtCshuVUGNokh5j_4core7convert4FromyE4fromB9_
FN:358,_RNvXs13_NtNtCs6zlNjbpqib3_19openzeppelin_crypto5field2fpINtB6_2FpNtNtB6_5tests9Fp64ParamKj1_EINtNtCshuVUGNokh5j_4core7convert4FromxE4fromBa_
FN:395,_RNvXs1c_NtNtCs6zlNjbpqib3_19openzeppelin_crypto5field2fpnINtNtCshuVUGNokh5j_4core7convert4FromINtB6_2FpNtNtB6_5tests9Fp64ParamKj1_EE4fromBa_
FN:398,_RNCNvXs1c_NtNtCs6zlNjbpqib3_19openzeppelin_crypto5field2fpnINtNtCshuVUGNokh5j_4core7convert4FromINtB8_2FpNtNtB8_5tests9Fp64ParamKj1_EE4from0Bc_
FN:105,_RNvXININtNtCs6zlNjbpqib3_19openzeppelin_crypto5field2fpsM_0pKpEINtB5_2FppKpENtNtCshuVUGNokh5j_4core5clone5Clone5cloneB9_
FN:105,_RNvXININtNtCs6zlNjbpqib3_19openzeppelin_crypto5field2fpsO_0pKpEINtB5_2FppKpENtNtCshuVUGNokh5j_4core3cmp9PartialEq2eqB9_
FN:105,_RNvXININtNtCs6zlNjbpqib3_19openzeppelin_crypto5field2fpsQ_0pKpEINtB5_2FppKpENtNtCshuVUGNokh5j_4core7default7Default7defaultB9_
FN:147,_RNvXININtNtCs6zlNjbpqib3_19openzeppelin_crypto5field2fpsR_0pKpEINtB5_12ResidueParampKpENtNtCshuVUGNokh5j_4core3fmt5Debug3fmtB9_
FN:147,_RNvXININtNtCs6zlNjbpqib3_19openzeppelin_crypto5field2fpsS_0pKpEINtB5_12ResidueParampKpENtNtCshuVUGNokh5j_4core5clone5Clone5cloneB9_
FN:147,_RNvXININtNtCs6zlNjbpqib3_19openzeppelin_crypto5field2fpsU_0pKpEINtB5_12ResidueParampKpENtNtCshuVUGNokh5j_4core3cmp9PartialEq2eqB9_
FN:147,_RNvXININtNtCs6zlNjbpqib3_19openzeppelin_crypto5field2fpsW_0pKpEINtB5_12ResidueParampKpENtNtCshuVUGNokh5j_4core7default7Default7defaultB9_
FN:210,_RNvMs_NtNtCs6zlNjbpqib3_19openzeppelin_crypto5field2fpINtB4_2FppKpE13new_uncheckedB8_
FN:220,_RINvXININtNtCs6zlNjbpqib3_19openzeppelin_crypto5field2fps0_0pKpEINtB6_2FppKpENtNtCshuVUGNokh5j_4core4hash4Hash4hashpEBa_
FN:226,_RNvXININtNtCs6zlNjbpqib3_19openzeppelin_crypto5field2fps1_0pKpEINtB5_2FppKpENtNtCshuVUGNokh5j_4core3fmt5Debug3fmtB9_
FN:238,_RNvXININtNtCs6zlNjbpqib3_19openzeppelin_crypto5field2fps2_0pKpEINtB5_2FppKpENtNtCscvi8cNJv7me_10num_traits10identities4Zero7is_zeroB9_
FN:250,_RNvXININtNtCs6zlNjbpqib3_19openzeppelin_crypto5field2fps3_0pKpEINtB5_2FppKpENtNtCscvi8cNJv7me_10num_traits10identities3One6is_oneB9_
FN:274,_RNvXININtNtCs6zlNjbpqib3_19openzeppelin_crypto5field2fps4_0pKpEINtB5_2FppKpENtNtB7_5group13AdditiveGroup12neg_in_placeB9_
FN:300,_RNvXININtNtCs6zlNjbpqib3_19openzeppelin_crypto5field2fps5_0pKpEINtB5_2FppKpENtB7_5Field16inverse_in_placeB9_
FN:327,_RNvXININtNtCs6zlNjbpqib3_19openzeppelin_crypto5field2fps7_0pKpEINtB5_2FppKpENtNtCshuVUGNokh5j_4core3cmp3Ord3cmpB9_
FN:334,_RNvXININtNtCs6zlNjbpqib3_19openzeppelin_crypto5field2fps8_0pKpEINtB5_2FppKpENtNtCshuVUGNokh5j_4core3cmp10PartialOrd11partial_cmpB9_
FN:345,_RNvXININtNtCs6zlNjbpqib3_19openzeppelin_crypto5field2fpsX_0pKpEINtB5_2FppKpEINtNtCshuVUGNokh5j_4core7convert4FromoE4fromB9_
FN:345,_RNvXININtNtCs6zlNjbpqib3_19openzeppelin_crypto5field2fpsZ_0pKpEINtB5_2FppKpEINtNtCshuVUGNokh5j_4core7convert4FrommE4fromB9_
FN:345,_RNvXININtNtCs6zlNjbpqib3_19openzeppelin_crypto5field2fps10_0pKpEINtB5_2FppKpEINtNtCshuVUGNokh5j_4core7convert4FromtE4fromB9_
FN:345,_RNvXININtNtCs6zlNjbpqib3_19openzeppelin_crypto5field2fps11_0pKpEINtB5_2FppKpEINtNtCshuVUGNokh5j_4core7convert4FromhE4fromB9_
FN:358,_RNvXININtNtCs6zlNjbpqib3_19openzeppelin_crypto5field2fps12_0pKpEINtB5_2FppKpEINtNtCshuVUGNokh5j_4core7convert4FromnE4fromB9_
FN:358,_RNvXININtNtCs6zlNjbpqib3_19openzeppelin_crypto5field2fps14_0pKpEINtB5_2FppKpEINtNtCshuVUGNokh5j_4core7convert4FromlE4fromB9_
FN:358,_RNvXININtNtCs6zlNjbpqib3_19openzeppelin_crypto5field2fps15_0pKpEINtB5_2FppKpEINtNtCshuVUGNokh5j_4core7convert4FromsE4fromB9_
FN:358,_RNvXININtNtCs6zlNjbpqib3_19openzeppelin_crypto5field2fps16_0pKpEINtB5_2FppKpEINtNtCshuVUGNokh5j_4core7convert4FromaE4fromB9_
FN:383,_RNvXININtNtCs6zlNjbpqib3_19openzeppelin_crypto5field2fps9_0pKpEINtB5_2FppKpEINtNtCshuVUGNokh5j_4core7convert4FrombE4fromB9_
FN:395,_RNvXININtNtCs6zlNjbpqib3_19openzeppelin_crypto5field2fps17_0pEoINtNtCshuVUGNokh5j_4core7convert4FromINtB5_2FppKj1_EE4fromB9_
FN:398,_RNCNvXININtNtCs6zlNjbpqib3_19openzeppelin_crypto5field2fps17_0pEoINtNtCshuVUGNokh5j_4core7convert4FromINtB7_2FppKj1_EE4from0Bb_
FN:395,_RNvXININtNtCs6zlNjbpqib3_19openzeppelin_crypto5field2fps18_0pEyINtNtCshuVUGNokh5j_4core7convert4FromINtB5_2FppKj1_EE4fromB9_
FN:398,_RNCNvXININtNtCs6zlNjbpqib3_19openzeppelin_crypto5field2fps18_0pEyINtNtCshuVUGNokh5j_4core7convert4FromINtB7_2FppKj1_EE4from0Bb_
FN:395,_RNvXININtNtCs6zlNjbpqib3_19openzeppelin_crypto5field2fps19_0pEmINtNtCshuVUGNokh5j_4core7convert4FromINtB5_2FppKj1_EE4fromB9_
FN:398,_RNCNvXININtNtCs6zlNjbpqib3_19openzeppelin_crypto5field2fps19_0pEmINtNtCshuVUGNokh5j_4core7convert4FromINtB7_2FppKj1_EE4from0Bb_
FN:395,_RNvXININtNtCs6zlNjbpqib3_19openzeppelin_crypto5field2fps1a_0pEtINtNtCshuVUGNokh5j_4core7convert4FromINtB5_2FppKj1_EE4fromB9_
FN:398,_RNCNvXININtNtCs6zlNjbpqib3_19openzeppelin_crypto5field2fps1a_0pEtINtNtCshuVUGNokh5j_4core7convert4FromINtB7_2FppKj1_EE4from0Bb_
FN:395,_RNvXININtNtCs6zlNjbpqib3_19openzeppelin_crypto5field2fps1b_0pEhINtNtCshuVUGNokh5j_4core7convert4FromINtB5_2FppKj1_EE4fromB9_
FN:398,_RNCNvXININtNtCs6zlNjbpqib3_19openzeppelin_crypto5field2fps1b_0pEhINtNtCshuVUGNokh5j_4core7convert4FromINtB7_2FppKj1_EE4from0Bb_
FN:395,_RNvXININtNtCs6zlNjbpqib3_19openzeppelin_crypto5field2fps1d_0pExINtNtCshuVUGNokh5j_4core7convert4FromINtB5_2FppKj1_EE4fromB9_
FN:398,_RNCNvXININtNtCs6zlNjbpqib3_19openzeppelin_crypto5field2fps1d_0pExINtNtCshuVUGNokh5j_4core7convert4FromINtB7_2FppKj1_EE4from0Bb_
FN:395,_RNvXININtNtCs6zlNjbpqib3_19openzeppelin_crypto5field2fps1e_0pElINtNtCshuVUGNokh5j_4core7convert4FromINtB5_2FppKj1_EE4fromB9_
FN:398,_RNCNvXININtNtCs6zlNjbpqib3_19openzeppelin_crypto5field2fps1e_0pElINtNtCshuVUGNokh5j_4core7convert4FromINtB7_2FppKj1_EE4from0Bb_
FN:395,_RNvXININtNtCs6zlNjbpqib3_19openzeppelin_crypto5field2fps1f_0pEsINtNtCshuVUGNokh5j_4core7convert4FromINtB5_2FppKj1_EE4fromB9_
FN:398,_RNCNvXININtNtCs6zlNjbpqib3_19openzeppelin_crypto5field2fps1f_0pEsINtNtCshuVUGNokh5j_4core7convert4FromINtB7_2FppKj1_EE4from0Bb_
FN:395,_RNvXININtNtCs6zlNjbpqib3_19openzeppelin_crypto5field2fps1g_0pEaINtNtCshuVUGNokh5j_4core7convert4FromINtB5_2FppKj1_EE4fromB9_
FN:398,_RNCNvXININtNtCs6zlNjbpqib3_19openzeppelin_crypto5field2fps1g_0pEaINtNtCshuVUGNokh5j_4core7convert4FromINtB7_2FppKj1_EE4from0Bb_
FN:422,_RINvXININtNtCs6zlNjbpqib3_19openzeppelin_crypto5field2fpsa_0pKpEINtB6_2FppKpENtNtCs3TdFz0fPAh9_13crypto_bigint6traits6Random6randompEBa_
FN:431,_RNvXININtNtCs6zlNjbpqib3_19openzeppelin_crypto5field2fpsb_0pKpEINtB5_2FppKpENtNtCshuVUGNokh5j_4core3fmt7Display3fmtB9_
FN:453,_RNvXININtNtCs6zlNjbpqib3_19openzeppelin_crypto5field2fpsd_0pKpEINtB5_2FppKpEINtNtNtCshuVUGNokh5j_4core3ops5arith3AddRBZ_E3addB9_
FN:466,_RNvXININtNtCs6zlNjbpqib3_19openzeppelin_crypto5field2fpse_0pKpEINtB5_2FppKpEINtNtNtCshuVUGNokh5j_4core3ops5arith3SubRBZ_E3subB9_
FN:479,_RNvXININtNtCs6zlNjbpqib3_19openzeppelin_crypto5field2fpsf_0pKpEINtB5_2FppKpEINtNtNtCshuVUGNokh5j_4core3ops5arith3MulRBZ_E3mulB9_
FN:494,_RNvXININtNtCs6zlNjbpqib3_19openzeppelin_crypto5field2fpsg_0pKpEINtB5_2FppKpEINtNtNtCshuVUGNokh5j_4core3ops5arith3DivRBZ_E3divB9_
FN:507,_RNvXININtNtCs6zlNjbpqib3_19openzeppelin_crypto5field2fpsh_0pKpERINtB5_2FppKpENtNtNtCshuVUGNokh5j_4core3ops5arith3Add3addB9_
FN:521,_RNvXININtNtCs6zlNjbpqib3_19openzeppelin_crypto5field2fpsi_0pKpERINtB5_2FppKpENtNtNtCshuVUGNokh5j_4core3ops5arith3Sub3subB9_
FN:535,_RNvXININtNtCs6zlNjbpqib3_19openzeppelin_crypto5field2fpsj_0pKpERINtB5_2FppKpENtNtNtCshuVUGNokh5j_4core3ops5arith3Mul3mulB9_
FN:549,_RNvXININtNtCs6zlNjbpqib3_19openzeppelin_crypto5field2fpsk_0pKpERINtB5_2FppKpENtNtNtCshuVUGNokh5j_4core3ops5arith3Div3divB9_
FN:596,_RNvXININtNtCs6zlNjbpqib3_19openzeppelin_crypto5field2fpso_0pKpEINtB5_2FppKpEINtNtNtCshuVUGNokh5j_4core3ops5arith3AddQBZ_E3addB9_
FN:624,_RNvXININtNtCs6zlNjbpqib3_19openzeppelin_crypto5field2fpsq_0pKpEINtB5_2FppKpEINtNtNtCshuVUGNokh5j_4core3ops5arith3SubQBZ_E3subB9_
FN:635,_RINvXININtNtCs6zlNjbpqib3_19openzeppelin_crypto5field2fpsr_0pKpEINtB6_2FppKpENtNtNtNtCshuVUGNokh5j_4core4iter6traits5accum3Sum3sumpEBa_
FN:644,_RINvXININtNtCs6zlNjbpqib3_19openzeppelin_crypto5field2fpss_0pKpEINtB6_2FppKpEINtNtNtNtCshuVUGNokh5j_4core4iter6traits5accum3SumRB10_E3sumpEBa_
FN:654,_RNvXININtNtCs6zlNjbpqib3_19openzeppelin_crypto5field2fpst_0pKpEINtB5_2FppKpENtNtNtCshuVUGNokh5j_4core3ops5arith9AddAssign10add_assignB9_
FN:664,_RNvXININtNtCs6zlNjbpqib3_19openzeppelin_crypto5field2fpsu_0pKpEINtB5_2FppKpENtNtNtCshuVUGNokh5j_4core3ops5arith9SubAssign10sub_assignB9_
FN:674,_RNvXININtNtCs6zlNjbpqib3_19openzeppelin_crypto5field2fpsv_0pKpEINtB5_2FppKpEINtNtNtCshuVUGNokh5j_4core3ops5arith9AddAssignQBZ_E10add_assignB9_
FN:684,_RNvXININtNtCs6zlNjbpqib3_19openzeppelin_crypto5field2fpsw_0pKpEINtB5_2FppKpEINtNtNtCshuVUGNokh5j_4core3ops5arith9SubAssignQBZ_E10sub_assignB9_
FN:744,_RNvXININtNtCs6zlNjbpqib3_19openzeppelin_crypto5field2fpsB_0pKpEINtB5_2FppKpEINtNtNtCshuVUGNokh5j_4core3ops5arith3MulQBZ_E3mulB9_
FN:758,_RNvXININtNtCs6zlNjbpqib3_19openzeppelin_crypto5field2fpsC_0pKpEINtB5_2FppKpEINtNtNtCshuVUGNokh5j_4core3ops5arith3DivQBZ_E3divB9_
FN:769,_RINvXININtNtCs6zlNjbpqib3_19openzeppelin_crypto5field2fpsD_0pKpEINtB6_2FppKpENtNtNtNtCshuVUGNokh5j_4core4iter6traits5accum7Product7productpEBa_
FN:778,_RINvXININtNtCs6zlNjbpqib3_19openzeppelin_crypto5field2fpsE_0pKpEINtB6_2FppKpEINtNtNtNtCshuVUGNokh5j_4core4iter6traits5accum7ProductRB10_E7productpEBa_
FN:788,_RNvXININtNtCs6zlNjbpqib3_19openzeppelin_crypto5field2fpsF_0pKpEINtB5_2FppKpENtNtNtCshuVUGNokh5j_4core3ops5arith9MulAssign10mul_assignB9_
FN:798,_RNvXININtNtCs6zlNjbpqib3_19openzeppelin_crypto5field2fpsG_0pKpEINtB5_2FppKpEINtNtNtCshuVUGNokh5j_4core3ops5arith9DivAssignQBZ_E10div_assignB9_
FN:808,_RNvXININtNtCs6zlNjbpqib3_19openzeppelin_crypto5field2fpsH_0pKpEINtB5_2FppKpEINtNtNtCshuVUGNokh5j_4core3ops5arith9MulAssignQBZ_E10mul_assignB9_
FN:818,_RNvXININtNtCs6zlNjbpqib3_19openzeppelin_crypto5field2fpsI_0pKpEINtB5_2FppKpENtNtNtCshuVUGNokh5j_4core3ops5arith9DivAssign10div_assignB9_
FN:826,_RNvXININtNtCs6zlNjbpqib3_19openzeppelin_crypto5field2fpsJ_0pKpEINtB5_2FppKpENtCs3bmOkNV3xOm_7zeroize7Zeroize7zeroizeB9_
FN:835,_RNvXININtNtCs6zlNjbpqib3_19openzeppelin_crypto5field2fpsK_0pKpEINtNtCs3TdFz0fPAh9_13crypto_bigint4uint4UintKpEINtNtCshuVUGNokh5j_4core7convert4FromINtB5_2FppKpEE4fromB9_
FN:845,_RNvXININtNtCs6zlNjbpqib3_19openzeppelin_crypto5field2fpsL_0pKpEINtB5_2FppKpEINtNtCshuVUGNokh5j_4core7convert4FromINtNtCs3TdFz0fPAh9_13crypto_bigint4uint4UintKpEE4fromB9_
FN:953,_RNvNCNvNtNtNtCs6zlNjbpqib3_19openzeppelin_crypto5field2fp5testss_3pows_08dumb_pow
FNDA:512,_RNvYNtNtNtNtCs6zlNjbpqib3_19openzeppelin_crypto5field2fp5tests9Fp64ParamINtB6_8FpParamsKj1_E10add_assignBa_
FNDA:256,_RNvYNtNtNtNtCs6zlNjbpqib3_19openzeppelin_crypto5field2fp5tests9Fp64ParamINtB6_8FpParamsKj1_E10sub_assignBa_
FNDA:256,_RNvYNtNtNtNtCs6zlNjbpqib3_19openzeppelin_crypto5field2fp5tests9Fp64ParamINtB6_8FpParamsKj1_E15double_in_placeBa_
FNDA:2045,_RNvYNtNtNtNtCs6zlNjbpqib3_19openzeppelin_crypto5field2fp5tests9Fp64ParamINtB6_8FpParamsKj1_E12neg_in_placeBa_
FNDA:2004,_RNvYNtNtNtNtCs6zlNjbpqib3_19openzeppelin_crypto5field2fp5tests9Fp64ParamINtB6_8FpParamsKj1_E10mul_assignBa_
FNDA:2557,_RNvYNtNtNtNtCs6zlNjbpqib3_19openzeppelin_crypto5field2fp5tests9Fp64ParamINtB6_8FpParamsKj1_E15square_in_placeBa_
FNDA:256,_RNvYNtNtNtNtCs6zlNjbpqib3_19openzeppelin_crypto5field2fp5tests9Fp64ParamINtB6_8FpParamsKj1_E7inverseBa_
FNDA:3584,_RNvYNtNtNtNtCs6zlNjbpqib3_19openzeppelin_crypto5field2fp5tests9Fp64ParamINtB6_8FpParamsKj1_E11from_bigintBa_
FNDA:3072,_RNvYNtNtNtNtCs6zlNjbpqib3_19openzeppelin_crypto5field2fp5tests9Fp64ParamINtB6_8FpParamsKj1_E11into_bigintBa_
FNDA:125942,_RNCNvNCNvNtNtNtCs6zlNjbpqib3_19openzeppelin_crypto5field2fp5testss_3pows_08dumb_pow0Bd_
FNDA:3584,_RNvMs_NtNtCs6zlNjbpqib3_19openzeppelin_crypto5field2fpINtB4_2FpNtNtB4_5tests9Fp64ParamKj1_E3newB8_
FNDA:512,_RNvXs2_NtNtCs6zlNjbpqib3_19openzeppelin_crypto5field2fpINtB5_2FpNtNtB5_5tests9Fp64ParamKj1_ENtNtCscvi8cNJv7me_10num_traits10identities4Zero4zeroB9_
FNDA:768,_RNvXs3_NtNtCs6zlNjbpqib3_19openzeppelin_crypto5field2fpINtB5_2FpNtNtB5_5tests9Fp64ParamKj1_ENtNtCscvi8cNJv7me_10num_traits10identities3One3oneB9_
FNDA:256,_RNvXs4_NtNtCs6zlNjbpqib3_19openzeppelin_crypto5field2fpINtB5_2FpNtNtB5_5tests9Fp64ParamKj1_ENtNtB7_5group13AdditiveGroup6doubleB9_
FNDA:256,_RNvXs4_NtNtCs6zlNjbpqib3_19openzeppelin_crypto5field2fpINtB5_2FpNtNtB5_5tests9Fp64ParamKj1_ENtNtB7_5group13AdditiveGroup15double_in_placeB9_
FNDA:256,_RNvXs5_NtNtCs6zlNjbpqib3_19openzeppelin_crypto5field2fpINtB5_2FpNtNtB5_5tests9Fp64ParamKj1_ENtB7_5Field6squareB9_
FNDA:2557,_RNvXs5_NtNtCs6zlNjbpqib3_19openzeppelin_crypto5field2fpINtB5_2FpNtNtB5_5tests9Fp64ParamKj1_ENtB7_5Field15square_in_placeB9_
FNDA:256,_RNvXs5_NtNtCs6zlNjbpqib3_19openzeppelin_crypto5field2fpINtB5_2FpNtNtB5_5tests9Fp64ParamKj1_ENtB7_5Field7inverseB9_
FNDA:3584,_RNvXs6_NtNtCs6zlNjbpqib3_19openzeppelin_crypto5field2fpINtB5_2FpNtNtB5_5tests9Fp64ParamKj1_ENtNtB7_5prime10PrimeField11from_bigintB9_
FNDA:3072,_RNvXs6_NtNtCs6zlNjbpqib3_19openzeppelin_crypto5field2fpINtB5_2FpNtNtB5_5tests9Fp64ParamKj1_ENtNtB7_5prime10PrimeField11into_bigintB9_
FNDA:2045,_RNvXsc_NtNtCs6zlNjbpqib3_19openzeppelin_crypto5field2fpINtB5_2FpNtNtB5_5tests9Fp64ParamKj1_ENtNtNtCshuVUGNokh5j_4core3ops5arith3Neg3negB9_
FNDA:512,_RNvXsl_NtNtCs6zlNjbpqib3_19openzeppelin_crypto5field2fpINtB5_2FpNtNtB5_5tests9Fp64ParamKj1_EINtNtNtCshuVUGNokh5j_4core3ops5arith9AddAssignRBR_E10add_assignB9_
FNDA:256,_RNvXsm_NtNtCs6zlNjbpqib3_19openzeppelin_crypto5field2fpINtB5_2FpNtNtB5_5tests9Fp64ParamKj1_EINtNtNtCshuVUGNokh5j_4core3ops5arith9SubAssignRBR_E10sub_assignB9_
FNDA:512,_RNvXsn_NtNtCs6zlNjbpqib3_19openzeppelin_crypto5field2fpINtB5_2FpNtNtB5_5tests9Fp64ParamKj1_ENtNtNtCshuVUGNokh5j_4core3ops5arith3Add3addB9_
FNDA:256,_RNvXsp_NtNtCs6zlNjbpqib3_19openzeppelin_crypto5field2fpINtB5_2FpNtNtB5_5tests9Fp64ParamKj1_ENtNtNtCshuVUGNokh5j_4core3ops5arith3Sub3subB9_
FNDA:2004,_RNvXsx_NtNtCs6zlNjbpqib3_19openzeppelin_crypto5field2fpINtB5_2FpNtNtB5_5tests9Fp64ParamKj1_EINtNtNtCshuVUGNokh5j_4core3ops5arith9MulAssignRBR_E10mul_assignB9_
FNDA:256,_RNvXsy_NtNtCs6zlNjbpqib3_19openzeppelin_crypto5field2fpINtB5_2FpNtNtB5_5tests9Fp64ParamKj1_EINtNtNtCshuVUGNokh5j_4core3ops5arith9DivAssignRBR_E10div_assignB9_
FNDA:512,_RNvXsz_NtNtCs6zlNjbpqib3_19openzeppelin_crypto5field2fpINtB5_2FpNtNtB5_5tests9Fp64ParamKj1_ENtNtNtCshuVUGNokh5j_4core3ops5arith3Mul3mulB9_
FNDA:256,_RNvXsA_NtNtCs6zlNjbpqib3_19openzeppelin_crypto5field2fpINtB5_2FpNtNtB5_5tests9Fp64ParamKj1_ENtNtNtCshuVUGNokh5j_4core3ops5arith3Div3divB9_
FNDA:3584,_RNvXsY_NtNtCs6zlNjbpqib3_19openzeppelin_crypto5field2fpINtB5_2FpNtNtB5_5tests9Fp64ParamKj1_EINtNtCshuVUGNokh5j_4core7convert4FromyE4fromB9_
FNDA:3584,_RNvXs13_NtNtCs6zlNjbpqib3_19openzeppelin_crypto5field2fpINtB6_2FpNtNtB6_5tests9Fp64ParamKj1_EINtNtCshuVUGNokh5j_4core7convert4FromxE4fromBa_
FNDA:3072,_RNvXs1c_NtNtCs6zlNjbpqib3_19openzeppelin_crypto5field2fpnINtNtCshuVUGNokh5j_4core7convert4FromINtB6_2FpNtNtB6_5tests9Fp64ParamKj1_EE4fromBa_
FNDA:0,_RNCNvXs1c_NtNtCs6zlNjbpqib3_19openzeppelin_crypto5field2fpnINtNtCshuVUGNokh5j_4core7convert4FromINtB8_2FpNtNtB8_5tests9Fp64ParamKj1_EE4from0Bc_
FNDA:0,_RNvXININtNtCs6zlNjbpqib3_19openzeppelin_crypto5field2fpsM_0pKpEINtB5_2FppKpENtNtCshuVUGNokh5j_4core5clone5Clone5cloneB9_
FNDA:0,_RNvXININtNtCs6zlNjbpqib3_19openzeppelin_crypto5field2fpsO_0pKpEINtB5_2FppKpENtNtCshuVUGNokh5j_4core3cmp9PartialEq2eqB9_
FNDA:0,_RNvXININtNtCs6zlNjbpqib3_19openzeppelin_crypto5field2fpsQ_0pKpEINtB5_2FppKpENtNtCshuVUGNokh5j_4core7default7Default7defaultB9_
FNDA:0,_RNvXININtNtCs6zlNjbpqib3_19openzeppelin_crypto5field2fpsR_0pKpEINtB5_12ResidueParampKpENtNtCshuVUGNokh5j_4core3fmt5Debug3fmtB9_
FNDA:0,_RNvXININtNtCs6zlNjbpqib3_19openzeppelin_crypto5field2fpsS_0pKpEINtB5_12ResidueParampKpENtNtCshuVUGNokh5j_4core5clone5Clone5cloneB9_
FNDA:0,_RNvXININtNtCs6zlNjbpqib3_19openzeppelin_crypto5field2fpsU_0pKpEINtB5_12ResidueParampKpENtNtCshuVUGNokh5j_4core3cmp9PartialEq2eqB9_
FNDA:0,_RNvXININtNtCs6zlNjbpqib3_19openzeppelin_crypto5field2fpsW_0pKpEINtB5_12ResidueParampKpENtNtCshuVUGNokh5j_4core7default7Default7defaultB9_
FNDA:0,_RNvMs_NtNtCs6zlNjbpqib3_19openzeppelin_crypto5field2fpINtB4_2FppKpE13new_uncheckedB8_
FNDA:0,_RINvXININtNtCs6zlNjbpqib3_19openzeppelin_crypto5field2fps0_0pKpEINtB6_2FppKpENtNtCshuVUGNokh5j_4core4hash4Hash4hashpEBa_
FNDA:0,_RNvXININtNtCs6zlNjbpqib3_19openzeppelin_crypto5field2fps1_0pKpEINtB5_2FppKpENtNtCshuVUGNokh5j_4core3fmt5Debug3fmtB9_
FNDA:0,_RNvXININtNtCs6zlNjbpqib3_19openzeppelin_crypto5field2fps2_0pKpEINtB5_2FppKpENtNtCscvi8cNJv7me_10num_traits10identities4Zero7is_zeroB9_
FNDA:0,_RNvXININtNtCs6zlNjbpqib3_19openzeppelin_crypto5field2fps3_0pKpEINtB5_2FppKpENtNtCscvi8cNJv7me_10num_traits10identities3One6is_oneB9_
FNDA:0,_RNvXININtNtCs6zlNjbpqib3_19openzeppelin_crypto5field2fps4_0pKpEINtB5_2FppKpENtNtB7_5group13AdditiveGroup12neg_in_placeB9_
FNDA:0,_RNvXININtNtCs6zlNjbpqib3_19openzeppelin_crypto5field2fps5_0pKpEINtB5_2FppKpENtB7_5Field16inverse_in_placeB9_
FNDA:0,_RNvXININtNtCs6zlNjbpqib3_19openzeppelin_crypto5field2fps7_0pKpEINtB5_2FppKpENtNtCshuVUGNokh5j_4core3cmp3Ord3cmpB9_
FNDA:0,_RNvXININtNtCs6zlNjbpqib3_19openzeppelin_crypto5field2fps8_0pKpEINtB5_2FppKpENtNtCshuVUGNokh5j_4core3cmp10PartialOrd11partial_cmpB9_
FNDA:0,_RNvXININtNtCs6zlNjbpqib3_19openzeppelin_crypto5field2fpsX_0pKpEINtB5_2FppKpEINtNtCshuVUGNokh5j_4core7convert4FromoE4fromB9_
FNDA:0,_RNvXININtNtCs6zlNjbpqib3_19openzeppelin_crypto5field2fpsZ_0pKpEINtB5_2FppKpEINtNtCshuVUGNokh5j_4core7convert4FrommE4fromB9_
FNDA:0,_RNvXININtNtCs6zlNjbpqib3_19openzeppelin_crypto5field2fps10_0pKpEINtB5_2FppKpEINtNtCshuVUGNokh5j_4core7convert4FromtE4fromB9_
FNDA:0,_RNvXININtNtCs6zlNjbpqib3_19openzeppelin_crypto5field2fps11_0pKpEINtB5_2FppKpEINtNtCshuVUGNokh5j_4core7convert4FromhE4fromB9_
FNDA:0,_RNvXININtNtCs6zlNjbpqib3_19openzeppelin_crypto5field2fps12_0pKpEINtB5_2FppKpEINtNtCshuVUGNokh5j_4core7convert4FromnE4fromB9_
FNDA:0,_RNvXININtNtCs6zlNjbpqib3_19openzeppelin_crypto5field2fps14_0pKpEINtB5_2FppKpEINtNtCshuVUGNokh5j_4core7convert4FromlE4fromB9_
FNDA:0,_RNvXININtNtCs6zlNjbpqib3_19openzeppelin_crypto5field2fps15_0pKpEINtB5_2FppKpEINtNtCshuVUGNokh5j_4core7convert4FromsE4fromB9_
FNDA:0,_RNvXININtNtCs6zlNjbpqib3_19openzeppelin_crypto5field2fps16_0pKpEINtB5_2FppKpEINtNtCshuVUGNokh5j_4core7convert4FromaE4fromB9_
FNDA:0,_RNvXININtNtCs6zlNjbpqib3_19openzeppelin_crypto5field2fps9_0pKpEINtB5_2FppKpEINtNtCshuVUGNokh5j_4core7convert4FrombE4fromB9_
FNDA:0,_RNvXININtNtCs6zlNjbpqib3_19openzeppelin_crypto5field2fps17_0pEoINtNtCshuVUGNokh5j_4core7convert4FromINtB5_2FppKj1_EE4fromB9_
FNDA:0,_RNCNvXININtNtCs6zlNjbpqib3_19openzeppelin_crypto5field2fps17_0pEoINtNtCshuVUGNokh5j_4core7convert4FromINtB7_2FppKj1_EE4from0Bb_
FNDA:0,_RNvXININtNtCs6zlNjbpqib3_19openzeppelin_crypto5field2fps18_0pEyINtNtCshuVUGNokh5j_4core7convert4FromINtB5_2FppKj1_EE4fromB9_
FNDA:0,_RNCNvXININtNtCs6zlNjbpqib3_19openzeppelin_crypto5field2fps18_0pEyINtNtCshuVUGNokh5j_4core7convert4FromINtB7_2FppKj1_EE4from0Bb_
FNDA:0,_RNvXININtNtCs6zlNjbpqib3_19openzeppelin_crypto5field2fps19_0pEmINtNtCshuVUGNokh5j_4core7convert4FromINtB5_2FppKj1_EE4fromB9_
FNDA:0,_RNCNvXININtNtCs6zlNjbpqib3_19openzeppelin_crypto5field2fps19_0pEmINtNtCshuVUGNokh5j_4core7convert4FromINtB7_2FppKj1_EE4from0Bb_
FNDA:0,_RNvXININtNtCs6zlNjbpqib3_19openzeppelin_crypto5field2fps1a_0pEtINtNtCshuVUGNokh5j_4core7convert4FromINtB5_2FppKj1_EE4fromB9_
FNDA:0,_RNCNvXININtNtCs6zlNjbpqib3_19openzeppelin_crypto5field2fps1a_0pEtINtNtCshuVUGNokh5j_4core7convert4FromINtB7_2FppKj1_EE4from0Bb_
FNDA:0,_RNvXININtNtCs6zlNjbpqib3_19openzeppelin_crypto5field2fps1b_0pEhINtNtCshuVUGNokh5j_4core7convert4FromINtB5_2FppKj1_EE4fromB9_
FNDA:0,_RNCNvXININtNtCs6zlNjbpqib3_19openzeppelin_crypto5field2fps1b_0pEhINtNtCshuVUGNokh5j_4core7convert4FromINtB7_2FppKj1_EE4from0Bb_
FNDA:0,_RNvXININtNtCs6zlNjbpqib3_19openzeppelin_crypto5field2fps1d_0pExINtNtCshuVUGNokh5j_4core7convert4FromINtB5_2FppKj1_EE4fromB9_
FNDA:0,_RNCNvXININtNtCs6zlNjbpqib3_19openzeppelin_crypto5field2fps1d_0pExINtNtCshuVUGNokh5j_4core7convert4FromINtB7_2FppKj1_EE4from0Bb_
FNDA:0,_RNvXININtNtCs6zlNjbpqib3_19openzeppelin_crypto5field2fps1e_0pElINtNtCshuVUGNokh5j_4core7convert4FromINtB5_2FppKj1_EE4fromB9_
FNDA:0,_RNCNvXININtNtCs6zlNjbpqib3_19openzeppelin_crypto5field2fps1e_0pElINtNtCshuVUGNokh5j_4core7convert4FromINtB7_2FppKj1_EE4from0Bb_
FNDA:0,_RNvXININtNtCs6zlNjbpqib3_19openzeppelin_crypto5field2fps1f_0pEsINtNtCshuVUGNokh5j_4core7convert4FromINtB5_2FppKj1_EE4fromB9_
FNDA:0,_RNCNvXININtNtCs6zlNjbpqib3_19openzeppelin_crypto5field2fps1f_0pEsINtNtCshuVUGNokh5j_4core7convert4FromINtB7_2FppKj1_EE4from0Bb_
FNDA:0,_RNvXININtNtCs6zlNjbpqib3_19openzeppelin_crypto5field2fps1g_0pEaINtNtCshuVUGNokh5j_4core7convert4FromINtB5_2FppKj1_EE4fromB9_
FNDA:0,_RNCNvXININtNtCs6zlNjbpqib3_19openzeppelin_crypto5field2fps1g_0pEaINtNtCshuVUGNokh5j_4core7convert4FromINtB7_2FppKj1_EE4from0Bb_
FNDA:0,_RINvXININtNtCs6zlNjbpqib3_19openzeppelin_crypto5field2fpsa_0pKpEINtB6_2FppKpENtNtCs3TdFz0fPAh9_13crypto_bigint6traits6Random6randompEBa_
FNDA:0,_RNvXININtNtCs6zlNjbpqib3_19openzeppelin_crypto5field2fpsb_0pKpEINtB5_2FppKpENtNtCshuVUGNokh5j_4core3fmt7Display3fmtB9_
FNDA:0,_RNvXININtNtCs6zlNjbpqib3_19openzeppelin_crypto5field2fpsd_0pKpEINtB5_2FppKpEINtNtNtCshuVUGNokh5j_4core3ops5arith3AddRBZ_E3addB9_
FNDA:0,_RNvXININtNtCs6zlNjbpqib3_19openzeppelin_crypto5field2fpse_0pKpEINtB5_2FppKpEINtNtNtCshuVUGNokh5j_4core3ops5arith3SubRBZ_E3subB9_
FNDA:0,_RNvXININtNtCs6zlNjbpqib3_19openzeppelin_crypto5field2fpsf_0pKpEINtB5_2FppKpEINtNtNtCshuVUGNokh5j_4core3ops5arith3MulRBZ_E3mulB9_
FNDA:0,_RNvXININtNtCs6zlNjbpqib3_19openzeppelin_crypto5field2fpsg_0pKpEINtB5_2FppKpEINtNtNtCshuVUGNokh5j_4core3ops5arith3DivRBZ_E3divB9_
FNDA:0,_RNvXININtNtCs6zlNjbpqib3_19openzeppelin_crypto5field2fpsh_0pKpERINtB5_2FppKpENtNtNtCshuVUGNokh5j_4core3ops5arith3Add3addB9_
FNDA:0,_RNvXININtNtCs6zlNjbpqib3_19openzeppelin_crypto5field2fpsi_0pKpERINtB5_2FppKpENtNtNtCshuVUGNokh5j_4core3ops5arith3Sub3subB9_
FNDA:0,_RNvXININtNtCs6zlNjbpqib3_19openzeppelin_crypto5field2fpsj_0pKpERINtB5_2FppKpENtNtNtCshuVUGNokh5j_4core3ops5arith3Mul3mulB9_
FNDA:0,_RNvXININtNtCs6zlNjbpqib3_19openzeppelin_crypto5field2fpsk_0pKpERINtB5_2FppKpENtNtNtCshuVUGNokh5j_4core3ops5arith3Div3divB9_
FNDA:0,_RNvXININtNtCs6zlNjbpqib3_19openzeppelin_crypto5field2fpso_0pKpEINtB5_2FppKpEINtNtNtCshuVUGNokh5j_4core3ops5arith3AddQBZ_E3addB9_
FNDA:0,_RNvXININtNtCs6zlNjbpqib3_19openzeppelin_crypto5field2fpsq_0pKpEINtB5_2FppKpEINtNtNtCshuVUGNokh5j_4core3ops5arith3SubQBZ_E3subB9_
FNDA:0,_RINvXININtNtCs6zlNjbpqib3_19openzeppelin_crypto5field2fpsr_0pKpEINtB6_2FppKpENtNtNtNtCshuVUGNokh5j_4core4iter6traits5accum3Sum3sumpEBa_
FNDA:0,_RINvXININtNtCs6zlNjbpqib3_19openzeppelin_crypto5field2fpss_0pKpEINtB6_2FppKpEINtNtNtNtCshuVUGNokh5j_4core4iter6traits5accum3SumRB10_E3sumpEBa_
FNDA:0,_RNvXININtNtCs6zlNjbpqib3_19openzeppelin_crypto5field2fpst_0pKpEINtB5_2FppKpENtNtNtCshuVUGNokh5j_4core3ops5arith9AddAssign10add_assignB9_
FNDA:0,_RNvXININtNtCs6zlNjbpqib3_19openzeppelin_crypto5field2fpsu_0pKpEINtB5_2FppKpENtNtNtCshuVUGNokh5j_4core3ops5arith9SubAssign10sub_assignB9_
FNDA:0,_RNvXININtNtCs6zlNjbpqib3_19openzeppelin_crypto5field2fpsv_0pKpEINtB5_2FppKpEINtNtNtCshuVUGNokh5j_4core3ops5arith9AddAssignQBZ_E10add_assignB9_
FNDA:0,_RNvXININtNtCs6zlNjbpqib3_19openzeppelin_crypto5field2fpsw_0pKpEINtB5_2FppKpEINtNtNtCshuVUGNokh5j_4core3ops5arith9SubAssignQBZ_E10sub_assignB9_
FNDA:0,_RNvXININtNtCs6zlNjbpqib3_19openzeppelin_crypto5field2fpsB_0pKpEINtB5_2FppKpEINtNtNtCshuVUGNokh5j_4core3ops5arith3MulQBZ_E3mulB9_
FNDA:0,_RNvXININtNtCs6zlNjbpqib3_19openzeppelin_crypto5field2fpsC_0pKpEINtB5_2FppKpEINtNtNtCshuVUGNokh5j_4core3ops5arith3DivQBZ_E3divB9_
FNDA:0,_RINvXININtNtCs6zlNjbpqib3_19openzeppelin_crypto5field2fpsD_0pKpEINtB6_2FppKpENtNtNtNtCshuVUGNokh5j_4core4iter6traits5accum7Product7productpEBa_
FNDA:0,_RINvXININtNtCs6zlNjbpqib3_19openzeppelin_crypto5field2fpsE_0pKpEINtB6_2FppKpEINtNtNtNtCshuVUGNokh5j_4core4iter6traits5accum7ProductRB10_E7productpEBa_
FNDA:0,_RNvXININtNtCs6zlNjbpqib3_19openzeppelin_crypto5field2fpsF_0pKpEINtB5_2FppKpENtNtNtCshuVUGNokh5j_4core3ops5arith9MulAssign10mul_assignB9_
FNDA:0,_RNvXININtNtCs6zlNjbpqib3_19openzeppelin_crypto5field2fpsG_0pKpEINtB5_2FppKpEINtNtNtCshuVUGNokh5j_4core3ops5arith9DivAssignQBZ_E10div_assignB9_
FNDA:0,_RNvXININtNtCs6zlNjbpqib3_19openzeppelin_crypto5field2fpsH_0pKpEINtB5_2FppKpEINtNtNtCshuVUGNokh5j_4core3ops5arith9MulAssignQBZ_E10mul_assignB9_
FNDA:0,_RNvXININtNtCs6zlNjbpqib3_19openzeppelin_crypto5field2fpsI_0pKpEINtB5_2FppKpENtNtNtCshuVUGNokh5j_4core3ops5arith9DivAssign10div_assignB9_
FNDA:0,_RNvXININtNtCs6zlNjbpqib3_19openzeppelin_crypto5field2fpsJ_0pKpEINtB5_2FppKpENtCs3bmOkNV3xOm_7zeroize7Zeroize7zeroizeB9_
FNDA:0,_RNvXININtNtCs6zlNjbpqib3_19openzeppelin_crypto5field2fpsK_0pKpEINtNtCs3TdFz0fPAh9_13crypto_bigint4uint4UintKpEINtNtCshuVUGNokh5j_4core7convert4FromINtB5_2FppKpEE4fromB9_
FNDA:0,_RNvXININtNtCs6zlNjbpqib3_19openzeppelin_crypto5field2fpsL_0pKpEINtB5_2FppKpEINtNtCshuVUGNokh5j_4core7convert4FromINtNtCs3TdFz0fPAh9_13crypto_bigint4uint4UintKpEE4fromB9_
FNDA:256,_RNvNCNvNtNtNtCs6zlNjbpqib3_19openzeppelin_crypto5field2fp5testss_3pows_08dumb_pow
FNF:75
FNH:33
DA:48,512
DA:49,512
DA:50,512
DA:53,256
DA:54,256
DA:55,256
DA:58,256
DA:59,256
DA:60,256
DA:63,2045
DA:64,2045
DA:65,2045
DA:68,2004
DA:69,2004
DA:70,2004
DA:73,2557
DA:74,2557
DA:75,2557
DA:79,256
DA:80,256
DA:81,256
DA:82,256
DA:83,256
DA:84,256
DA:90,3584
DA:91,3584
DA:92,3584
DA:96,3072
DA:97,3072
DA:98,3072
DA:105,0
DA:147,0
DA:199,3584
DA:200,3584
DA:201,3584
DA:210,0
DA:211,0
DA:212,0
DA:213,0
DA:214,0
DA:215,0
DA:216,0
DA:220,0
DA:221,0
DA:222,0
DA:226,0
DA:227,0
DA:228,0
DA:233,512
DA:234,512
DA:235,512
DA:238,0
DA:239,0
DA:240,0
DA:245,768
DA:246,768
DA:247,768
DA:250,0
DA:251,0
DA:252,0
DA:261,256
DA:262,256
DA:263,256
DA:264,256
DA:265,256
DA:268,256
DA:269,256
DA:270,256
DA:271,256
DA:274,0
DA:275,0
DA:276,0
DA:277,0
DA:284,256
DA:285,256
DA:286,256
DA:287,256
DA:288,256
DA:290,2557
DA:291,2557
DA:292,2557
DA:293,2557
DA:296,256
DA:297,256
DA:298,256
DA:300,0
DA:301,0
DA:302,0
DA:303,0
DA:305,0
DA:307,0
DA:317,3584
DA:318,3584
DA:319,3584
DA:321,3072
DA:322,3072
DA:323,3072
DA:327,0
DA:328,0
DA:329,0
DA:334,0
DA:335,0
DA:336,0
DA:345,3584
DA:346,3584
DA:347,3584
DA:358,3584
DA:359,3584
DA:360,3584
DA:361,1795
DA:363,1789
DA:365,3584
DA:383,0
DA:384,0
DA:385,0
DA:395,3072
DA:396,3072
DA:397,3072
DA:398,3072
DA:399,0
DA:400,3072
DA:401,3072
DA:422,0
DA:423,0
DA:424,0
DA:431,0
DA:432,0
DA:433,0
DA:434,0
DA:441,2045
DA:442,2045
DA:443,2045
DA:444,2045
DA:453,0
DA:455,0
DA:456,0
DA:457,0
DA:466,0
DA:468,0
DA:469,0
DA:470,0
DA:479,0
DA:481,0
DA:482,0
DA:483,0
DA:494,0
DA:496,0
DA:497,0
DA:498,0
DA:507,0
DA:509,0
DA:510,0
DA:511,0
DA:512,0
DA:521,0
DA:523,0
DA:524,0
DA:525,0
DA:526,0
DA:535,0
DA:537,0
DA:538,0
DA:539,0
DA:540,0
DA:549,0
DA:551,0
DA:552,0
DA:553,0
DA:554,0
DA:561,512
DA:562,512
DA:563,512
DA:570,256
DA:571,256
DA:572,256
DA:582,512
DA:584,512
DA:585,512
DA:586,512
DA:596,0
DA:598,0
DA:599,0
DA:600,0
DA:610,256
DA:612,256
DA:613,256
DA:614,256
DA:624,0
DA:626,0
DA:627,0
DA:628,0
DA:635,0
DA:636,0
DA:637,0
DA:644,0
DA:645,0
DA:646,0
DA:654,0
DA:655,0
DA:656,0
DA:664,0
DA:665,0
DA:666,0
DA:674,0
DA:675,0
DA:676,0
DA:684,0
DA:685,0
DA:686,0
DA:692,2004
DA:693,2004
DA:694,2004
DA:703,256
DA:705,256
DA:706,256
DA:716,512
DA:718,512
DA:719,512
DA:720,512
DA:730,256
DA:732,256
DA:733,256
DA:734,256
DA:744,0
DA:746,0
DA:747,0
DA:748,0
DA:758,0
DA:760,0
DA:761,0
DA:762,0
DA:769,0
DA:770,0
DA:771,0
DA:778,0
DA:779,0
DA:780,0
DA:788,0
DA:789,0
DA:790,0
DA:798,0
DA:799,0
DA:800,0
DA:808,0
DA:809,0
DA:810,0
DA:818,0
DA:819,0
DA:820,0
DA:826,0
DA:827,0
DA:828,0
DA:835,0
DA:836,0
DA:837,0
DA:845,0
DA:846,0
DA:847,0
DA:953,256
DA:954,125942
DA:955,256
BRF:0
BRH:0
LF:263
LH:117
end_of_record
SF:/home/nenad/repos/rust-contracts-stylus/lib/crypto/src/field/group.rs
FN:65,_RNvYpNtNtNtCs6zlNjbpqib3_19openzeppelin_crypto5field5group13AdditiveGroup6doubleB9_
FN:72,_RNvYpNtNtNtCs6zlNjbpqib3_19openzeppelin_crypto5field5group13AdditiveGroup15double_in_placeB9_
FN:78,_RNvYpNtNtNtCs6zlNjbpqib3_19openzeppelin_crypto5field5group13AdditiveGroup12neg_in_placeB9_
FNDA:0,_RNvYpNtNtNtCs6zlNjbpqib3_19openzeppelin_crypto5field5group13AdditiveGroup6doubleB9_
FNDA:0,_RNvYpNtNtNtCs6zlNjbpqib3_19openzeppelin_crypto5field5group13AdditiveGroup15double_in_placeB9_
FNDA:0,_RNvYpNtNtNtCs6zlNjbpqib3_19openzeppelin_crypto5field5group13AdditiveGroup12neg_in_placeB9_
FNF:3
FNH:0
DA:65,0
DA:66,0
DA:67,0
DA:68,0
DA:69,0
DA:72,0
DA:73,0
DA:74,0
DA:75,0
DA:78,0
DA:79,0
DA:80,0
DA:81,0
BRF:0
BRH:0
LF:13
LH:0
end_of_record
SF:/home/nenad/repos/rust-contracts-stylus/lib/crypto/src/field/mod.rs
FN:121,_RINvYINtNtNtCs6zlNjbpqib3_19openzeppelin_crypto5field2fp2FpNtNtB6_5tests9Fp64ParamKj1_ENtB8_5Field3powmEBa_
FNDA:256,_RINvYINtNtNtCs6zlNjbpqib3_19openzeppelin_crypto5field2fp2FpNtNtB6_5tests9Fp64ParamKj1_ENtB8_5Field3powmEBa_
FNF:1
FNH:1
DA:121,256
DA:122,256
DA:124,2301
DA:125,2301
DA:126,2301
DA:127,2301
DA:128,1236
DA:129,1236
DA:131,256
DA:132,256
BRF:0
BRH:0
LF:10
LH:10
end_of_record
SF:/home/nenad/repos/rust-contracts-stylus/lib/crypto/src/field/prime.rs
FN:22,_RNvYpNtNtNtCs6zlNjbpqib3_19openzeppelin_crypto5field5prime10PrimeField14characteristicB9_
FN:29,_RNvYpNtNtNtCs6zlNjbpqib3_19openzeppelin_crypto5field5prime10PrimeField16extension_degreeB9_
FNDA:0,_RNvYpNtNtNtCs6zlNjbpqib3_19openzeppelin_crypto5field5prime10PrimeField14characteristicB9_
FNDA:0,_RNvYpNtNtNtCs6zlNjbpqib3_19openzeppelin_crypto5field5prime10PrimeField16extension_degreeB9_
FNF:2
FNH:0
DA:22,0
DA:23,0
DA:24,0
DA:29,0
DA:30,0
DA:31,0
BRF:0
BRH:0
LF:6
LH:0
end_of_record
SF:/home/nenad/repos/rust-contracts-stylus/lib/crypto/src/hash.rs
FN:131,_RINvNtCs675GRJCPYPR_19openzeppelin_crypto4hash9hash_pairNtNtB4_6keccak9Keccak256Ahj20_EB4_
FN:144,_RINvNtCs675GRJCPYPR_19openzeppelin_crypto4hash21commutative_hash_pairNtNtB4_6keccak9Keccak256Ahj20_EB4_
FN:168,_RNvNtNtCs6zlNjbpqib3_19openzeppelin_crypto4hash5testss_12hashes_pairs
FN:182,_RNvNtNtCs6zlNjbpqib3_19openzeppelin_crypto4hash5testss_26commutatively_hashes_pairs
FN:114,_RINvYpNtNtCs6zlNjbpqib3_19openzeppelin_crypto4hash11BuildHasher8hash_onepEB8_
FN:162,_RINvXNtNtCs6zlNjbpqib3_19openzeppelin_crypto4hash5testsRShNtB5_4Hash4hashNtNtB7_6keccak9Keccak256EB7_
FN:131,_RINvNtCs6zlNjbpqib3_19openzeppelin_crypto4hash9hash_pairNtNtB4_6keccak9Keccak256Ahj20_EB4_
FN:131,_RINvNtCs6zlNjbpqib3_19openzeppelin_crypto4hash9hash_pairNtNtB4_6keccak9Keccak256RShEB4_
FN:144,_RINvNtCs6zlNjbpqib3_19openzeppelin_crypto4hash21commutative_hash_pairNtNtB4_6keccak9Keccak256Ahj20_EB4_
FN:144,_RINvNtCs6zlNjbpqib3_19openzeppelin_crypto4hash21commutative_hash_pairNtNtB4_6keccak9Keccak256RShEB4_
FNDA:0,_RINvNtCs675GRJCPYPR_19openzeppelin_crypto4hash9hash_pairNtNtB4_6keccak9Keccak256Ahj20_EB4_
FNDA:0,_RINvNtCs675GRJCPYPR_19openzeppelin_crypto4hash21commutative_hash_pairNtNtB4_6keccak9Keccak256Ahj20_EB4_
FNDA:1,_RNvNtNtCs6zlNjbpqib3_19openzeppelin_crypto4hash5testss_12hashes_pairs
FNDA:1,_RNvNtNtCs6zlNjbpqib3_19openzeppelin_crypto4hash5testss_26commutatively_hashes_pairs
FNDA:0,_RINvYpNtNtCs6zlNjbpqib3_19openzeppelin_crypto4hash11BuildHasher8hash_onepEB8_
FNDA:10,_RINvXNtNtCs6zlNjbpqib3_19openzeppelin_crypto4hash5testsRShNtB5_4Hash4hashNtNtB7_6keccak9Keccak256EB7_
FNDA:24,_RINvNtCs6zlNjbpqib3_19openzeppelin_crypto4hash9hash_pairNtNtB4_6keccak9Keccak256Ahj20_EB4_
FNDA:5,_RINvNtCs6zlNjbpqib3_19openzeppelin_crypto4hash9hash_pairNtNtB4_6keccak9Keccak256RShEB4_
FNDA:24,_RINvNtCs6zlNjbpqib3_19openzeppelin_crypto4hash21commutative_hash_pairNtNtB4_6keccak9Keccak256Ahj20_EB4_
FNDA:2,_RINvNtCs6zlNjbpqib3_19openzeppelin_crypto4hash21commutative_hash_pairNtNtB4_6keccak9Keccak256RShEB4_
FNF:6
FNH:5
DA:114,0
DA:115,0
DA:116,0
DA:117,0
DA:118,0
DA:119,0
DA:120,0
DA:121,0
DA:122,0
DA:123,0
DA:124,0
DA:125,0
DA:126,0
DA:131,29
DA:132,29
DA:133,29
DA:134,29
DA:135,29
DA:136,29
DA:137,29
DA:138,29
DA:139,29
DA:144,26
DA:145,26
DA:146,26
DA:147,26
DA:148,26
DA:149,26
DA:150,14
DA:152,12
DA:154,26
DA:162,10
DA:163,10
DA:164,10
DA:168,1
DA:169,1
DA:170,1
DA:171,1
DA:172,1
DA:173,1
DA:174,1
DA:175,1
DA:177,1
DA:178,1
DA:179,1
DA:182,1
DA:183,1
DA:184,1
DA:185,1
DA:186,1
DA:187,1
DA:188,1
DA:189,1
DA:190,1
BRF:0
BRH:0
LF:54
LH:41
end_of_record
SF:/home/nenad/repos/rust-contracts-stylus/lib/crypto/src/keccak.rs
FN:17,_RNvXNtCs675GRJCPYPR_19openzeppelin_crypto6keccakNtB2_13KeccakBuilderNtNtB4_4hash11BuildHasher12build_hasherB4_
FN:35,_RNvXs_NtCs675GRJCPYPR_19openzeppelin_crypto6keccakNtB4_9Keccak256NtNtB6_4hash6Hasher8finalize
FN:31,_RINvXs_NtCs675GRJCPYPR_19openzeppelin_crypto6keccakNtB5_9Keccak256NtNtB7_4hash6Hasher6updateRAhj20_EB7_
FN:44,_RINvXs0_NtCs675GRJCPYPR_19openzeppelin_crypto6keccakAhj20_NtNtB8_4hash4Hash4hashNtB6_9Keccak256EB8_
FN:17,_RNvXNtCs6zlNjbpqib3_19openzeppelin_crypto6keccakNtB2_13KeccakBuilderNtNtB4_4hash11BuildHasher12build_hasherB4_
FN:35,_RNvXs_NtCs6zlNjbpqib3_19openzeppelin_crypto6keccakNtB4_9Keccak256NtNtB6_4hash6Hasher8finalize
FN:31,_RINvXs_NtCs6zlNjbpqib3_19openzeppelin_crypto6keccakNtB5_9Keccak256NtNtB7_4hash6Hasher6updateRAhj20_EB7_
FN:31,_RINvXs_NtCs6zlNjbpqib3_19openzeppelin_crypto6keccakNtB5_9Keccak256NtNtB7_4hash6Hasher6updateRRShEB7_
FN:44,_RINvXs0_NtCs6zlNjbpqib3_19openzeppelin_crypto6keccakAhj20_NtNtB8_4hash4Hash4hashNtB6_9Keccak256EB8_
FNDA:0,_RNvXNtCs675GRJCPYPR_19openzeppelin_crypto6keccakNtB2_13KeccakBuilderNtNtB4_4hash11BuildHasher12build_hasherB4_
FNDA:0,_RNvXs_NtCs675GRJCPYPR_19openzeppelin_crypto6keccakNtB4_9Keccak256NtNtB6_4hash6Hasher8finalize
FNDA:0,_RINvXs_NtCs675GRJCPYPR_19openzeppelin_crypto6keccakNtB5_9Keccak256NtNtB7_4hash6Hasher6updateRAhj20_EB7_
FNDA:0,_RINvXs0_NtCs675GRJCPYPR_19openzeppelin_crypto6keccakAhj20_NtNtB8_4hash4Hash4hashNtB6_9Keccak256EB8_
FNDA:29,_RNvXNtCs6zlNjbpqib3_19openzeppelin_crypto6keccakNtB2_13KeccakBuilderNtNtB4_4hash11BuildHasher12build_hasherB4_
FNDA:29,_RNvXs_NtCs6zlNjbpqib3_19openzeppelin_crypto6keccakNtB4_9Keccak256NtNtB6_4hash6Hasher8finalize
FNDA:48,_RINvXs_NtCs6zlNjbpqib3_19openzeppelin_crypto6keccakNtB5_9Keccak256NtNtB7_4hash6Hasher6updateRAhj20_EB7_
FNDA:10,_RINvXs_NtCs6zlNjbpqib3_19openzeppelin_crypto6keccakNtB5_9Keccak256NtNtB7_4hash6Hasher6updateRRShEB7_
FNDA:48,_RINvXs0_NtCs6zlNjbpqib3_19openzeppelin_crypto6keccakAhj20_NtNtB8_4hash4Hash4hashNtB6_9Keccak256EB8_
FNF:4
FNH:4
DA:17,29
DA:18,29
DA:19,29
DA:31,58
DA:32,58
DA:33,58
DA:35,29
DA:36,29
DA:37,29
DA:38,29
DA:39,29
DA:44,48
DA:45,48
DA:46,48
BRF:0
BRH:0
LF:14
LH:14
end_of_record
SF:/home/nenad/repos/rust-contracts-stylus/lib/crypto/src/merkle.rs
FN:60,_RNvMNtCs675GRJCPYPR_19openzeppelin_crypto6merkleNtB2_8Verifier6verify
FN:129,_RNvMNtCs675GRJCPYPR_19openzeppelin_crypto6merkleNtB2_8Verifier18verify_multi_proof
FN:341,_RNvXs0_NtCs675GRJCPYPR_19openzeppelin_crypto6merkleNtB5_15MultiProofErrorNtNtCshuVUGNokh5j_4core3fmt7Display3fmt
FN:179,_RNvMs_NtCs675GRJCPYPR_19openzeppelin_crypto6merkleNtB4_8Verifier19verify_with_builderB6_
FN:258,_RNvMs_NtCs675GRJCPYPR_19openzeppelin_crypto6merkleNtB4_8Verifier31verify_multi_proof_with_builderB6_
FN:273,_RNCNvMs_NtCs675GRJCPYPR_19openzeppelin_crypto6merkleNtB6_8Verifier31verify_multi_proof_with_builder0B8_
FN:60,_RNvMNtCs6zlNjbpqib3_19openzeppelin_crypto6merkleNtB2_8Verifier6verify
FN:129,_RNvMNtCs6zlNjbpqib3_19openzeppelin_crypto6merkleNtB2_8Verifier18verify_multi_proof
FN:386,_RNvNtNtCs6zlNjbpqib3_19openzeppelin_crypto6merkle5testss_21verifies_valid_proofs
FN:422,_RNvNtNtCs6zlNjbpqib3_19openzeppelin_crypto6merkle5testss_22rejects_invalid_proofs
FN:442,_RNvNtNtCs6zlNjbpqib3_19openzeppelin_crypto6merkle5testss_34rejects_proofs_with_invalid_length
FN:465,_RNvNtNtCs6zlNjbpqib3_19openzeppelin_crypto6merkle5testss_26verifies_valid_multi_proof
FN:493,_RNvNtNtCs6zlNjbpqib3_19openzeppelin_crypto6merkle5testss_27rejects_invalid_multi_proof
FN:519,_RNvNtNtCs6zlNjbpqib3_19openzeppelin_crypto6merkle5testss_33errors_invalid_multi_proof_leaves
FN:555,_RNvNtNtCs6zlNjbpqib3_19openzeppelin_crypto6merkle5testss_30errors_multi_proof_len_invalid
FN:591,_RNvNtNtCs6zlNjbpqib3_19openzeppelin_crypto6merkle5testss_32verifies_single_leaf_multi_proof
FN:614,_RNvNtNtCs6zlNjbpqib3_19openzeppelin_crypto6merkle5testss_33verifies_empty_leaves_multi_proof
FN:633,_RNvNtNtCs6zlNjbpqib3_19openzeppelin_crypto6merkle5testss_30errors_manipulated_multi_proof
FN:179,_RNvMs_NtCs6zlNjbpqib3_19openzeppelin_crypto6merkleNtB4_8Verifier19verify_with_builderB6_
FN:258,_RNvMs_NtCs6zlNjbpqib3_19openzeppelin_crypto6merkleNtB4_8Verifier31verify_multi_proof_with_builderB6_
FN:273,_RNCNvMs_NtCs6zlNjbpqib3_19openzeppelin_crypto6merkleNtB6_8Verifier31verify_multi_proof_with_builder0B8_
FN:341,_RNvXs0_NtCs6zlNjbpqib3_19openzeppelin_crypto6merkleNtB5_15MultiProofErrorNtNtCshuVUGNokh5j_4core3fmt7Display3fmt
FNDA:0,_RNvMNtCs675GRJCPYPR_19openzeppelin_crypto6merkleNtB2_8Verifier6verify
FNDA:0,_RNvMNtCs675GRJCPYPR_19openzeppelin_crypto6merkleNtB2_8Verifier18verify_multi_proof
FNDA:0,_RNvXs0_NtCs675GRJCPYPR_19openzeppelin_crypto6merkleNtB5_15MultiProofErrorNtNtCshuVUGNokh5j_4core3fmt7Display3fmt
FNDA:0,_RNvMs_NtCs675GRJCPYPR_19openzeppelin_crypto6merkleNtB4_8Verifier19verify_with_builderB6_
FNDA:0,_RNvMs_NtCs675GRJCPYPR_19openzeppelin_crypto6merkleNtB4_8Verifier31verify_multi_proof_with_builderB6_
FNDA:0,_RNCNvMs_NtCs675GRJCPYPR_19openzeppelin_crypto6merkleNtB6_8Verifier31verify_multi_proof_with_builder0B8_
FNDA:4,_RNvMNtCs6zlNjbpqib3_19openzeppelin_crypto6merkleNtB2_8Verifier6verify
FNDA:7,_RNvMNtCs6zlNjbpqib3_19openzeppelin_crypto6merkleNtB2_8Verifier18verify_multi_proof
FNDA:1,_RNvNtNtCs6zlNjbpqib3_19openzeppelin_crypto6merkle5testss_21verifies_valid_proofs
FNDA:1,_RNvNtNtCs6zlNjbpqib3_19openzeppelin_crypto6merkle5testss_22rejects_invalid_proofs
FNDA:1,_RNvNtNtCs6zlNjbpqib3_19openzeppelin_crypto6merkle5testss_34rejects_proofs_with_invalid_length
FNDA:1,_RNvNtNtCs6zlNjbpqib3_19openzeppelin_crypto6merkle5testss_26verifies_valid_multi_proof
FNDA:1,_RNvNtNtCs6zlNjbpqib3_19openzeppelin_crypto6merkle5testss_27rejects_invalid_multi_proof
FNDA:1,_RNvNtNtCs6zlNjbpqib3_19openzeppelin_crypto6merkle5testss_33errors_invalid_multi_proof_leaves
FNDA:1,_RNvNtNtCs6zlNjbpqib3_19openzeppelin_crypto6merkle5testss_30errors_multi_proof_len_invalid
FNDA:1,_RNvNtNtCs6zlNjbpqib3_19openzeppelin_crypto6merkle5testss_32verifies_single_leaf_multi_proof
FNDA:1,_RNvNtNtCs6zlNjbpqib3_19openzeppelin_crypto6merkle5testss_33verifies_empty_leaves_multi_proof
FNDA:1,_RNvNtNtCs6zlNjbpqib3_19openzeppelin_crypto6merkle5testss_30errors_manipulated_multi_proof
FNDA:4,_RNvMs_NtCs6zlNjbpqib3_19openzeppelin_crypto6merkleNtB4_8Verifier19verify_with_builderB6_
FNDA:7,_RNvMs_NtCs6zlNjbpqib3_19openzeppelin_crypto6merkleNtB4_8Verifier31verify_multi_proof_with_builderB6_
FNDA:1,_RNCNvMs_NtCs6zlNjbpqib3_19openzeppelin_crypto6merkleNtB6_8Verifier31verify_multi_proof_with_builder0B8_
FNDA:0,_RNvXs0_NtCs6zlNjbpqib3_19openzeppelin_crypto6merkleNtB5_15MultiProofErrorNtNtCshuVUGNokh5j_4core3fmt7Display3fmt
FNF:16
FNH:15
DA:60,4
DA:61,4
DA:62,4
DA:129,7
DA:130,7
DA:131,7
DA:132,7
DA:133,7
DA:134,7
DA:135,7
DA:136,7
DA:137,7
DA:138,7
DA:139,7
DA:140,7
DA:141,7
DA:142,7
DA:179,4
DA:180,4
DA:181,4
DA:182,4
DA:183,4
DA:184,4
DA:185,17
DA:186,13
DA:187,13
DA:189,4
DA:190,4
DA:258,7
DA:259,7
DA:260,7
DA:261,7
DA:262,7
DA:263,7
DA:264,7
DA:265,7
DA:266,7
DA:267,1
DA:268,6
DA:269,6
DA:273,2
DA:274,2
DA:275,4
DA:276,4
DA:277,4
DA:278,4
DA:279,4
DA:280,4
DA:281,4
DA:282,4
DA:283,4
DA:284,4
DA:290,14
DA:291,12
DA:292,12
DA:293,12
DA:294,12
DA:295,12
DA:296,6
DA:297,6
DA:298,6
DA:299,5
DA:301,6
DA:302,6
DA:303,6
DA:304,5
DA:307,10
DA:308,10
DA:312,2
DA:313,2
DA:314,7
DA:341,0
DA:342,0
DA:343,0
DA:344,0
DA:346,0
DA:350,0
DA:351,0
DA:386,1
DA:387,1
DA:388,1
DA:389,1
DA:390,1
DA:391,1
DA:392,1
DA:393,1
DA:394,1
DA:395,1
DA:396,1
DA:397,1
DA:398,1
DA:399,1
DA:400,1
DA:401,1
DA:402,1
DA:403,1
DA:404,1
DA:405,1
DA:406,1
DA:407,1
DA:408,1
DA:409,1
DA:410,1
DA:411,1
DA:412,1
DA:414,1
DA:415,1
DA:416,1
DA:417,1
DA:418,1
DA:419,1
DA:422,1
DA:423,1
DA:424,1
DA:425,1
DA:426,1
DA:427,1
DA:428,1
DA:429,1
DA:430,1
DA:431,1
DA:432,1
DA:433,1
DA:434,1
DA:435,1
DA:436,1
DA:437,1
DA:438,1
DA:439,1
DA:442,1
DA:443,1
DA:444,1
DA:445,1
DA:446,1
DA:447,1
DA:448,1
DA:449,1
DA:450,1
DA:451,1
DA:452,1
DA:453,1
DA:454,1
DA:455,1
DA:456,1
DA:457,1
DA:458,1
DA:459,1
DA:460,1
DA:461,1
DA:462,1
DA:465,1
DA:466,1
DA:467,1
DA:468,1
DA:469,1
DA:470,1
DA:471,1
DA:472,1
DA:473,1
DA:474,1
DA:475,1
DA:476,1
DA:477,1
DA:478,1
DA:479,1
DA:480,1
DA:481,1
DA:482,1
DA:483,1
DA:484,1
DA:485,1
DA:486,1
DA:487,1
DA:488,1
DA:489,1
DA:490,1
DA:493,1
DA:494,1
DA:495,1
DA:496,1
DA:497,1
DA:498,1
DA:499,1
DA:500,1
DA:501,1
DA:502,1
DA:503,1
DA:504,1
DA:505,1
DA:506,1
DA:507,1
DA:508,1
DA:509,1
DA:510,1
DA:511,1
DA:512,1
DA:513,1
DA:514,1
DA:515,1
DA:516,1
DA:519,1
DA:520,1
DA:521,1
DA:522,1
DA:523,1
DA:524,1
DA:525,1
DA:526,1
DA:527,1
DA:528,1
DA:529,1
DA:530,1
DA:531,1
DA:532,1
DA:533,1
DA:534,1
DA:535,1
DA:536,1
DA:537,1
DA:538,1
DA:539,1
DA:540,1
DA:541,1
DA:542,1
DA:543,1
DA:544,1
DA:545,1
DA:546,1
DA:547,1
DA:548,1
DA:549,1
DA:550,1
DA:551,1
DA:552,1
DA:555,1
DA:556,1
DA:557,1
DA:558,1
DA:559,1
DA:560,1
DA:561,1
DA:562,1
DA:563,1
DA:564,1
DA:565,1
DA:566,1
DA:567,1
DA:568,1
DA:569,1
DA:570,1
DA:571,1
DA:572,1
DA:573,1
DA:574,1
DA:575,1
DA:576,1
DA:577,1
DA:578,1
DA:579,1
DA:580,1
DA:581,1
DA:582,1
DA:583,1
DA:584,1
DA:585,1
DA:586,1
DA:587,1
DA:588,1
DA:591,1
DA:592,1
DA:593,1
DA:594,1
DA:595,1
DA:596,1
DA:597,1
DA:598,1
DA:599,1
DA:600,1
DA:601,1
DA:602,1
DA:603,1
DA:604,1
DA:605,1
DA:606,1
DA:607,1
DA:608,1
DA:609,1
DA:610,1
DA:611,1
DA:614,1
DA:615,1
DA:616,1
DA:617,1
DA:618,1
DA:619,1
DA:620,1
DA:621,1
DA:622,1
DA:623,1
DA:624,1
DA:625,1
DA:626,1
DA:627,1
DA:628,1
DA:633,1
DA:634,1
DA:635,1
DA:636,1
DA:637,1
DA:638,1
DA:639,1
DA:640,1
DA:641,1
DA:642,1
DA:643,1
DA:644,1
DA:645,1
DA:646,1
DA:647,1
DA:648,1
DA:649,1
DA:650,1
DA:651,1
DA:652,1
DA:653,1
DA:654,1
DA:655,1
DA:656,1
DA:657,1
DA:658,1
DA:659,1
DA:660,1
DA:661,1
DA:662,1
DA:663,1
BRF:0
BRH:0
LF:336
LH:329
end_of_record
SF:/home/nenad/repos/rust-contracts-stylus/lib/e2e-proc/src/lib.rs
FN:19,_RNvCsi2ujcCNe6Sd_8e2e_proc4test
FN:19,_RNvCsb1acCVmVqoD_8e2e_proc4test
FNDA:0,_RNvCsi2ujcCNe6Sd_8e2e_proc4test
FNDA:0,_RNvCsb1acCVmVqoD_8e2e_proc4test
FNF:1
FNH:0
DA:19,0
DA:20,0
DA:21,0
BRF:0
BRH:0
LF:3
LH:0
end_of_record
SF:/home/nenad/repos/rust-contracts-stylus/lib/e2e-proc/src/test.rs
FN:19,_RNvNtCsi2ujcCNe6Sd_8e2e_proc4test4test
FN:28,_RNCNvNtCsi2ujcCNe6Sd_8e2e_proc4test4test0B5_
FN:28,_RNCNvNtCsb1acCVmVqoD_8e2e_proc4test4test0B5_
FN:19,_RNvNtCsb1acCVmVqoD_8e2e_proc4test4test
FNDA:0,_RNvNtCsi2ujcCNe6Sd_8e2e_proc4test4test
FNDA:0,_RNCNvNtCsi2ujcCNe6Sd_8e2e_proc4test4test0B5_
FNDA:0,_RNCNvNtCsb1acCVmVqoD_8e2e_proc4test4test0B5_
FNDA:0,_RNvNtCsb1acCVmVqoD_8e2e_proc4test4test
FNF:2
FNH:0
DA:19,0
DA:20,0
DA:21,0
DA:22,0
DA:23,0
DA:24,0
DA:25,0
DA:26,0
DA:27,0
DA:28,0
DA:29,0
DA:30,0
DA:32,0
DA:33,0
DA:34,0
DA:35,0
DA:36,0
DA:37,0
DA:38,0
DA:39,0
DA:40,0
DA:41,0
DA:42,0
DA:43,0
DA:44,0
DA:45,0
DA:46,0
DA:47,0
BRF:0
BRH:0
LF:30
LH:0
end_of_record
SF:/home/nenad/repos/rust-contracts-stylus/lib/e2e/src/account.rs
FN:92,_RNCNvNCNvMs_NtCs4DiXaPGaC9_3e2e7accountNtBa_14AccountFactory4lock020SYNC_ACCOUNT_FACTORY0Bc_
FN:33,_RNvMNtCs4DiXaPGaC9_3e2e7accountNtB2_7Account3new
FN:33,_RNCNvMNtCs4DiXaPGaC9_3e2e7accountNtB4_7Account3new0B6_
FN:39,_RNvMNtCs4DiXaPGaC9_3e2e7accountNtB2_7Account2pk
FN:45,_RNvMNtCs4DiXaPGaC9_3e2e7accountNtB2_7Account7address
FN:51,_RNvMNtCs4DiXaPGaC9_3e2e7accountNtB2_7Account3url
FN:61,_RNvMNtCs4DiXaPGaC9_3e2e7accountNtB2_7Account9sign_hash
FN:61,_RNCNvMNtCs4DiXaPGaC9_3e2e7accountNtB4_7Account9sign_hash0B6_
FN:71,_RNvMNtCs4DiXaPGaC9_3e2e7accountNtB2_7Account12sign_message
FN:71,_RNCNvMNtCs4DiXaPGaC9_3e2e7accountNtB4_7Account12sign_message0B6_
FN:76,_RNvMNtCs4DiXaPGaC9_3e2e7accountNtB2_7Account11as_deployer
FN:87,_RNvMs_NtCs4DiXaPGaC9_3e2e7accountNtB4_14AccountFactory4lock
FN:87,_RNCNvMs_NtCs4DiXaPGaC9_3e2e7accountNtB6_14AccountFactory4lock0B8_
FN:103,_RNvMs_NtCs4DiXaPGaC9_3e2e7accountNtB4_14AccountFactory6create
FN:103,_RNCNvMs_NtCs4DiXaPGaC9_3e2e7accountNtB6_14AccountFactory6create0B8_
FNDA:0,_RNCNvNCNvMs_NtCs4DiXaPGaC9_3e2e7accountNtBa_14AccountFactory4lock020SYNC_ACCOUNT_FACTORY0Bc_
FNDA:0,_RNvMNtCs4DiXaPGaC9_3e2e7accountNtB2_7Account3new
FNDA:0,_RNCNvMNtCs4DiXaPGaC9_3e2e7accountNtB4_7Account3new0B6_
FNDA:0,_RNvMNtCs4DiXaPGaC9_3e2e7accountNtB2_7Account2pk
FNDA:0,_RNvMNtCs4DiXaPGaC9_3e2e7accountNtB2_7Account7address
FNDA:0,_RNvMNtCs4DiXaPGaC9_3e2e7accountNtB2_7Account3url
FNDA:0,_RNvMNtCs4DiXaPGaC9_3e2e7accountNtB2_7Account9sign_hash
FNDA:0,_RNCNvMNtCs4DiXaPGaC9_3e2e7accountNtB4_7Account9sign_hash0B6_
FNDA:0,_RNvMNtCs4DiXaPGaC9_3e2e7accountNtB2_7Account12sign_message
FNDA:0,_RNCNvMNtCs4DiXaPGaC9_3e2e7accountNtB4_7Account12sign_message0B6_
FNDA:0,_RNvMNtCs4DiXaPGaC9_3e2e7accountNtB2_7Account11as_deployer
FNDA:0,_RNvMs_NtCs4DiXaPGaC9_3e2e7accountNtB4_14AccountFactory4lock
FNDA:0,_RNCNvMs_NtCs4DiXaPGaC9_3e2e7accountNtB6_14AccountFactory4lock0B8_
FNDA:0,_RNvMs_NtCs4DiXaPGaC9_3e2e7accountNtB4_14AccountFactory6create
FNDA:0,_RNCNvMs_NtCs4DiXaPGaC9_3e2e7accountNtB6_14AccountFactory6create0B8_
FNF:15
FNH:0
DA:33,0
DA:34,0
DA:35,0
DA:39,0
DA:40,0
DA:41,0
DA:45,0
DA:46,0
DA:47,0
DA:51,0
DA:52,0
DA:53,0
DA:61,0
DA:62,0
DA:63,0
DA:71,0
DA:72,0
DA:73,0
DA:76,0
DA:77,0
DA:78,0
DA:87,0
DA:92,0
DA:94,0
DA:95,0
DA:103,0
DA:104,0
DA:106,0
DA:107,0
DA:108,0
DA:110,0
DA:111,0
DA:112,0
DA:113,0
DA:114,0
DA:115,0
DA:116,0
DA:117,0
DA:118,0
DA:119,0
DA:120,0
BRF:0
BRH:0
LF:46
LH:0
end_of_record
SF:/home/nenad/repos/rust-contracts-stylus/lib/e2e/src/deploy.rs
FN:16,_RNvMNtCs4DiXaPGaC9_3e2e6deployNtB2_8Deployer3new
FN:21,_RINvMNtCs4DiXaPGaC9_3e2e6deployNtB3_8Deployer16with_constructorpEB5_
FN:30,_RINvMNtCs4DiXaPGaC9_3e2e6deployNtB3_8Deployer24with_default_constructorpEB5_
FN:46,_RNvMNtCs4DiXaPGaC9_3e2e6deployNtB2_8Deployer6deploy
FN:46,_RNCNvMNtCs4DiXaPGaC9_3e2e6deployNtB4_8Deployer6deploy0B6_
FNDA:0,_RNvMNtCs4DiXaPGaC9_3e2e6deployNtB2_8Deployer3new
FNDA:0,_RINvMNtCs4DiXaPGaC9_3e2e6deployNtB3_8Deployer16with_constructorpEB5_
FNDA:0,_RINvMNtCs4DiXaPGaC9_3e2e6deployNtB3_8Deployer24with_default_constructorpEB5_
FNDA:0,_RNvMNtCs4DiXaPGaC9_3e2e6deployNtB2_8Deployer6deploy
FNDA:0,_RNCNvMNtCs4DiXaPGaC9_3e2e6deployNtB4_8Deployer6deploy0B6_
FNF:5
FNH:0
DA:16,0
DA:17,0
DA:18,0
DA:21,0
DA:22,0
DA:23,0
DA:24,0
DA:25,0
DA:26,0
DA:27,0
DA:30,0
DA:31,0
DA:32,0
DA:33,0
DA:34,0
DA:46,0
DA:47,0
DA:48,0
DA:49,0
DA:50,0
DA:51,0
DA:53,0
DA:54,0
DA:55,0
DA:56,0
DA:57,0
DA:58,0
DA:59,0
DA:60,0
DA:61,0
DA:62,0
DA:63,0
DA:64,0
DA:65,0
DA:66,0
DA:67,0
DA:68,0
DA:69,0
DA:70,0
DA:71,0
BRF:0
BRH:0
LF:41
LH:0
end_of_record
SF:/home/nenad/repos/rust-contracts-stylus/lib/e2e/src/environment.rs
FN:6,_RNvNtCs4DiXaPGaC9_3e2e11environment13get_node_path
FN:16,_RNvNtCs4DiXaPGaC9_3e2e11environment18get_workspace_root
FNDA:0,_RNvNtCs4DiXaPGaC9_3e2e11environment13get_node_path
FNDA:0,_RNvNtCs4DiXaPGaC9_3e2e11environment18get_workspace_root
FNF:2
FNH:0
DA:6,0
DA:7,0
DA:8,0
DA:9,0
DA:16,0
DA:17,0
DA:18,0
DA:19,0
DA:20,0
DA:21,0
DA:22,0
DA:23,0
DA:25,0
DA:26,0
DA:27,0
DA:28,0
DA:29,0
DA:31,0
DA:32,0
DA:33,0
DA:34,0
DA:35,0
DA:36,0
DA:37,0
BRF:0
BRH:0
LF:24
LH:0
end_of_record
SF:/home/nenad/repos/rust-contracts-stylus/lib/e2e/src/error.rs
FN:24,_RNvXNtCs4DiXaPGaC9_3e2e5errorNtB2_9PanicCodeNtNtCshuVUGNokh5j_4core3fmt7Display3fmt
FN:64,_RNvXs_NtCs4DiXaPGaC9_3e2e5errorNtNtCskcbttf40cu_14alloy_contract5error5ErrorNtB4_5Panic13panicked_with
FN:84,_RNvXININtCs4DiXaPGaC9_3e2e5errors0_0pENtNtCskcbttf40cu_14alloy_contract5error5ErrorINtB5_6RevertpE13reverted_withB7_
FN:91,_RNCNvXININtCs4DiXaPGaC9_3e2e5errors0_0pENtNtCskcbttf40cu_14alloy_contract5error5ErrorINtB7_6RevertpE13reverted_with0B9_
FN:100,_RNvXININtCs4DiXaPGaC9_3e2e5errors1_0pENtCsjJ5NHceDgbR_4eyre6ReportINtB5_6RevertpE13reverted_withB7_
FN:103,_RNCNvXININtCs4DiXaPGaC9_3e2e5errors1_0pENtCsjJ5NHceDgbR_4eyre6ReportINtB7_6RevertpE13reverted_with0B9_
FNDA:0,_RNvXNtCs4DiXaPGaC9_3e2e5errorNtB2_9PanicCodeNtNtCshuVUGNokh5j_4core3fmt7Display3fmt
FNDA:0,_RNvXs_NtCs4DiXaPGaC9_3e2e5errorNtNtCskcbttf40cu_14alloy_contract5error5ErrorNtB4_5Panic13panicked_with
